ARM GAS  C:\Users\DAELT-~1\AppData\Local\Temp\cc2rhEX6.s 			page 1


   1              		.cpu cortex-m4
   2              		.arch armv7e-m
   3              		.fpu fpv4-sp-d16
   4              		.eabi_attribute 27, 1
   5              		.eabi_attribute 28, 1
   6              		.eabi_attribute 20, 1
   7              		.eabi_attribute 21, 1
   8              		.eabi_attribute 23, 3
   9              		.eabi_attribute 24, 1
  10              		.eabi_attribute 25, 1
  11              		.eabi_attribute 26, 1
  12              		.eabi_attribute 30, 6
  13              		.eabi_attribute 34, 1
  14              		.eabi_attribute 18, 4
  15              		.file	"stm32f4xx_hal_tim_ex.c"
  16              		.text
  17              	.Ltext0:
  18              		.cfi_sections	.debug_frame
  19              		.file 1 "Drivers/STM32F4xx_HAL_Driver/Src/stm32f4xx_hal_tim_ex.c"
  20              		.section	.text.HAL_TIMEx_HallSensor_Init,"ax",%progbits
  21              		.align	1
  22              		.global	HAL_TIMEx_HallSensor_Init
  23              		.syntax unified
  24              		.thumb
  25              		.thumb_func
  27              	HAL_TIMEx_HallSensor_Init:
  28              	.LFB130:
   1:Drivers/STM32F4xx_HAL_Driver/Src/stm32f4xx_hal_tim_ex.c **** /**
   2:Drivers/STM32F4xx_HAL_Driver/Src/stm32f4xx_hal_tim_ex.c ****   ******************************************************************************
   3:Drivers/STM32F4xx_HAL_Driver/Src/stm32f4xx_hal_tim_ex.c ****   * @file    stm32f4xx_hal_tim_ex.c
   4:Drivers/STM32F4xx_HAL_Driver/Src/stm32f4xx_hal_tim_ex.c ****   * @author  MCD Application Team
   5:Drivers/STM32F4xx_HAL_Driver/Src/stm32f4xx_hal_tim_ex.c ****   * @brief   TIM HAL module driver.
   6:Drivers/STM32F4xx_HAL_Driver/Src/stm32f4xx_hal_tim_ex.c ****   *          This file provides firmware functions to manage the following
   7:Drivers/STM32F4xx_HAL_Driver/Src/stm32f4xx_hal_tim_ex.c ****   *          functionalities of the Timer Extended peripheral:
   8:Drivers/STM32F4xx_HAL_Driver/Src/stm32f4xx_hal_tim_ex.c ****   *           + Time Hall Sensor Interface Initialization
   9:Drivers/STM32F4xx_HAL_Driver/Src/stm32f4xx_hal_tim_ex.c ****   *           + Time Hall Sensor Interface Start
  10:Drivers/STM32F4xx_HAL_Driver/Src/stm32f4xx_hal_tim_ex.c ****   *           + Time Complementary signal break and dead time configuration
  11:Drivers/STM32F4xx_HAL_Driver/Src/stm32f4xx_hal_tim_ex.c ****   *           + Time Master and Slave synchronization configuration
  12:Drivers/STM32F4xx_HAL_Driver/Src/stm32f4xx_hal_tim_ex.c ****   *           + Timer remapping capabilities configuration
  13:Drivers/STM32F4xx_HAL_Driver/Src/stm32f4xx_hal_tim_ex.c ****   ******************************************************************************
  14:Drivers/STM32F4xx_HAL_Driver/Src/stm32f4xx_hal_tim_ex.c ****   * @attention
  15:Drivers/STM32F4xx_HAL_Driver/Src/stm32f4xx_hal_tim_ex.c ****   *
  16:Drivers/STM32F4xx_HAL_Driver/Src/stm32f4xx_hal_tim_ex.c ****   * Copyright (c) 2016 STMicroelectronics.
  17:Drivers/STM32F4xx_HAL_Driver/Src/stm32f4xx_hal_tim_ex.c ****   * All rights reserved.
  18:Drivers/STM32F4xx_HAL_Driver/Src/stm32f4xx_hal_tim_ex.c ****   *
  19:Drivers/STM32F4xx_HAL_Driver/Src/stm32f4xx_hal_tim_ex.c ****   * This software is licensed under terms that can be found in the LICENSE file
  20:Drivers/STM32F4xx_HAL_Driver/Src/stm32f4xx_hal_tim_ex.c ****   * in the root directory of this software component.
  21:Drivers/STM32F4xx_HAL_Driver/Src/stm32f4xx_hal_tim_ex.c ****   * If no LICENSE file comes with this software, it is provided AS-IS.
  22:Drivers/STM32F4xx_HAL_Driver/Src/stm32f4xx_hal_tim_ex.c ****   *
  23:Drivers/STM32F4xx_HAL_Driver/Src/stm32f4xx_hal_tim_ex.c ****   ******************************************************************************
  24:Drivers/STM32F4xx_HAL_Driver/Src/stm32f4xx_hal_tim_ex.c ****   @verbatim
  25:Drivers/STM32F4xx_HAL_Driver/Src/stm32f4xx_hal_tim_ex.c ****   ==============================================================================
  26:Drivers/STM32F4xx_HAL_Driver/Src/stm32f4xx_hal_tim_ex.c ****                       ##### TIMER Extended features #####
  27:Drivers/STM32F4xx_HAL_Driver/Src/stm32f4xx_hal_tim_ex.c ****   ==============================================================================
  28:Drivers/STM32F4xx_HAL_Driver/Src/stm32f4xx_hal_tim_ex.c ****   [..]
  29:Drivers/STM32F4xx_HAL_Driver/Src/stm32f4xx_hal_tim_ex.c ****     The Timer Extended features include:
  30:Drivers/STM32F4xx_HAL_Driver/Src/stm32f4xx_hal_tim_ex.c ****     (#) Complementary outputs with programmable dead-time for :
ARM GAS  C:\Users\DAELT-~1\AppData\Local\Temp\cc2rhEX6.s 			page 2


  31:Drivers/STM32F4xx_HAL_Driver/Src/stm32f4xx_hal_tim_ex.c ****         (++) Output Compare
  32:Drivers/STM32F4xx_HAL_Driver/Src/stm32f4xx_hal_tim_ex.c ****         (++) PWM generation (Edge and Center-aligned Mode)
  33:Drivers/STM32F4xx_HAL_Driver/Src/stm32f4xx_hal_tim_ex.c ****         (++) One-pulse mode output
  34:Drivers/STM32F4xx_HAL_Driver/Src/stm32f4xx_hal_tim_ex.c ****     (#) Synchronization circuit to control the timer with external signals and to
  35:Drivers/STM32F4xx_HAL_Driver/Src/stm32f4xx_hal_tim_ex.c ****         interconnect several timers together.
  36:Drivers/STM32F4xx_HAL_Driver/Src/stm32f4xx_hal_tim_ex.c ****     (#) Break input to put the timer output signals in reset state or in a known state.
  37:Drivers/STM32F4xx_HAL_Driver/Src/stm32f4xx_hal_tim_ex.c ****     (#) Supports incremental (quadrature) encoder and hall-sensor circuitry for
  38:Drivers/STM32F4xx_HAL_Driver/Src/stm32f4xx_hal_tim_ex.c ****         positioning purposes
  39:Drivers/STM32F4xx_HAL_Driver/Src/stm32f4xx_hal_tim_ex.c **** 
  40:Drivers/STM32F4xx_HAL_Driver/Src/stm32f4xx_hal_tim_ex.c ****             ##### How to use this driver #####
  41:Drivers/STM32F4xx_HAL_Driver/Src/stm32f4xx_hal_tim_ex.c ****   ==============================================================================
  42:Drivers/STM32F4xx_HAL_Driver/Src/stm32f4xx_hal_tim_ex.c ****     [..]
  43:Drivers/STM32F4xx_HAL_Driver/Src/stm32f4xx_hal_tim_ex.c ****      (#) Initialize the TIM low level resources by implementing the following functions
  44:Drivers/STM32F4xx_HAL_Driver/Src/stm32f4xx_hal_tim_ex.c ****          depending on the selected feature:
  45:Drivers/STM32F4xx_HAL_Driver/Src/stm32f4xx_hal_tim_ex.c ****            (++) Hall Sensor output : HAL_TIMEx_HallSensor_MspInit()
  46:Drivers/STM32F4xx_HAL_Driver/Src/stm32f4xx_hal_tim_ex.c **** 
  47:Drivers/STM32F4xx_HAL_Driver/Src/stm32f4xx_hal_tim_ex.c ****      (#) Initialize the TIM low level resources :
  48:Drivers/STM32F4xx_HAL_Driver/Src/stm32f4xx_hal_tim_ex.c ****         (##) Enable the TIM interface clock using __HAL_RCC_TIMx_CLK_ENABLE();
  49:Drivers/STM32F4xx_HAL_Driver/Src/stm32f4xx_hal_tim_ex.c ****         (##) TIM pins configuration
  50:Drivers/STM32F4xx_HAL_Driver/Src/stm32f4xx_hal_tim_ex.c ****             (+++) Enable the clock for the TIM GPIOs using the following function:
  51:Drivers/STM32F4xx_HAL_Driver/Src/stm32f4xx_hal_tim_ex.c ****               __HAL_RCC_GPIOx_CLK_ENABLE();
  52:Drivers/STM32F4xx_HAL_Driver/Src/stm32f4xx_hal_tim_ex.c ****             (+++) Configure these TIM pins in Alternate function mode using HAL_GPIO_Init();
  53:Drivers/STM32F4xx_HAL_Driver/Src/stm32f4xx_hal_tim_ex.c **** 
  54:Drivers/STM32F4xx_HAL_Driver/Src/stm32f4xx_hal_tim_ex.c ****      (#) The external Clock can be configured, if needed (the default clock is the
  55:Drivers/STM32F4xx_HAL_Driver/Src/stm32f4xx_hal_tim_ex.c ****          internal clock from the APBx), using the following function:
  56:Drivers/STM32F4xx_HAL_Driver/Src/stm32f4xx_hal_tim_ex.c ****          HAL_TIM_ConfigClockSource, the clock configuration should be done before
  57:Drivers/STM32F4xx_HAL_Driver/Src/stm32f4xx_hal_tim_ex.c ****          any start function.
  58:Drivers/STM32F4xx_HAL_Driver/Src/stm32f4xx_hal_tim_ex.c **** 
  59:Drivers/STM32F4xx_HAL_Driver/Src/stm32f4xx_hal_tim_ex.c ****      (#) Configure the TIM in the desired functioning mode using one of the
  60:Drivers/STM32F4xx_HAL_Driver/Src/stm32f4xx_hal_tim_ex.c ****          initialization function of this driver:
  61:Drivers/STM32F4xx_HAL_Driver/Src/stm32f4xx_hal_tim_ex.c ****           (++) HAL_TIMEx_HallSensor_Init() and HAL_TIMEx_ConfigCommutEvent(): to use the
  62:Drivers/STM32F4xx_HAL_Driver/Src/stm32f4xx_hal_tim_ex.c ****                Timer Hall Sensor Interface and the commutation event with the corresponding
  63:Drivers/STM32F4xx_HAL_Driver/Src/stm32f4xx_hal_tim_ex.c ****                Interrupt and DMA request if needed (Note that One Timer is used to interface
  64:Drivers/STM32F4xx_HAL_Driver/Src/stm32f4xx_hal_tim_ex.c ****                with the Hall sensor Interface and another Timer should be used to use
  65:Drivers/STM32F4xx_HAL_Driver/Src/stm32f4xx_hal_tim_ex.c ****                the commutation event).
  66:Drivers/STM32F4xx_HAL_Driver/Src/stm32f4xx_hal_tim_ex.c **** 
  67:Drivers/STM32F4xx_HAL_Driver/Src/stm32f4xx_hal_tim_ex.c ****      (#) Activate the TIM peripheral using one of the start functions:
  68:Drivers/STM32F4xx_HAL_Driver/Src/stm32f4xx_hal_tim_ex.c ****            (++) Complementary Output Compare : HAL_TIMEx_OCN_Start(), HAL_TIMEx_OCN_Start_DMA(),
  69:Drivers/STM32F4xx_HAL_Driver/Src/stm32f4xx_hal_tim_ex.c ****                 HAL_TIMEx_OCN_Start_IT()
  70:Drivers/STM32F4xx_HAL_Driver/Src/stm32f4xx_hal_tim_ex.c ****            (++) Complementary PWM generation : HAL_TIMEx_PWMN_Start(), HAL_TIMEx_PWMN_Start_DMA(),
  71:Drivers/STM32F4xx_HAL_Driver/Src/stm32f4xx_hal_tim_ex.c ****                 HAL_TIMEx_PWMN_Start_IT()
  72:Drivers/STM32F4xx_HAL_Driver/Src/stm32f4xx_hal_tim_ex.c ****            (++) Complementary One-pulse mode output : HAL_TIMEx_OnePulseN_Start(), HAL_TIMEx_OnePul
  73:Drivers/STM32F4xx_HAL_Driver/Src/stm32f4xx_hal_tim_ex.c ****            (++) Hall Sensor output : HAL_TIMEx_HallSensor_Start(), HAL_TIMEx_HallSensor_Start_DMA()
  74:Drivers/STM32F4xx_HAL_Driver/Src/stm32f4xx_hal_tim_ex.c ****                 HAL_TIMEx_HallSensor_Start_IT().
  75:Drivers/STM32F4xx_HAL_Driver/Src/stm32f4xx_hal_tim_ex.c **** 
  76:Drivers/STM32F4xx_HAL_Driver/Src/stm32f4xx_hal_tim_ex.c ****   @endverbatim
  77:Drivers/STM32F4xx_HAL_Driver/Src/stm32f4xx_hal_tim_ex.c ****   ******************************************************************************
  78:Drivers/STM32F4xx_HAL_Driver/Src/stm32f4xx_hal_tim_ex.c ****   */
  79:Drivers/STM32F4xx_HAL_Driver/Src/stm32f4xx_hal_tim_ex.c **** 
  80:Drivers/STM32F4xx_HAL_Driver/Src/stm32f4xx_hal_tim_ex.c **** /* Includes ------------------------------------------------------------------*/
  81:Drivers/STM32F4xx_HAL_Driver/Src/stm32f4xx_hal_tim_ex.c **** #include "stm32f4xx_hal.h"
  82:Drivers/STM32F4xx_HAL_Driver/Src/stm32f4xx_hal_tim_ex.c **** 
  83:Drivers/STM32F4xx_HAL_Driver/Src/stm32f4xx_hal_tim_ex.c **** /** @addtogroup STM32F4xx_HAL_Driver
  84:Drivers/STM32F4xx_HAL_Driver/Src/stm32f4xx_hal_tim_ex.c ****   * @{
  85:Drivers/STM32F4xx_HAL_Driver/Src/stm32f4xx_hal_tim_ex.c ****   */
  86:Drivers/STM32F4xx_HAL_Driver/Src/stm32f4xx_hal_tim_ex.c **** 
  87:Drivers/STM32F4xx_HAL_Driver/Src/stm32f4xx_hal_tim_ex.c **** /** @defgroup TIMEx TIMEx
ARM GAS  C:\Users\DAELT-~1\AppData\Local\Temp\cc2rhEX6.s 			page 3


  88:Drivers/STM32F4xx_HAL_Driver/Src/stm32f4xx_hal_tim_ex.c ****   * @brief TIM Extended HAL module driver
  89:Drivers/STM32F4xx_HAL_Driver/Src/stm32f4xx_hal_tim_ex.c ****   * @{
  90:Drivers/STM32F4xx_HAL_Driver/Src/stm32f4xx_hal_tim_ex.c ****   */
  91:Drivers/STM32F4xx_HAL_Driver/Src/stm32f4xx_hal_tim_ex.c **** 
  92:Drivers/STM32F4xx_HAL_Driver/Src/stm32f4xx_hal_tim_ex.c **** #ifdef HAL_TIM_MODULE_ENABLED
  93:Drivers/STM32F4xx_HAL_Driver/Src/stm32f4xx_hal_tim_ex.c **** 
  94:Drivers/STM32F4xx_HAL_Driver/Src/stm32f4xx_hal_tim_ex.c **** /* Private typedef -----------------------------------------------------------*/
  95:Drivers/STM32F4xx_HAL_Driver/Src/stm32f4xx_hal_tim_ex.c **** /* Private define ------------------------------------------------------------*/
  96:Drivers/STM32F4xx_HAL_Driver/Src/stm32f4xx_hal_tim_ex.c **** /* Private macros ------------------------------------------------------------*/
  97:Drivers/STM32F4xx_HAL_Driver/Src/stm32f4xx_hal_tim_ex.c **** /* Private variables ---------------------------------------------------------*/
  98:Drivers/STM32F4xx_HAL_Driver/Src/stm32f4xx_hal_tim_ex.c **** /* Private function prototypes -----------------------------------------------*/
  99:Drivers/STM32F4xx_HAL_Driver/Src/stm32f4xx_hal_tim_ex.c **** static void TIM_DMADelayPulseNCplt(DMA_HandleTypeDef *hdma);
 100:Drivers/STM32F4xx_HAL_Driver/Src/stm32f4xx_hal_tim_ex.c **** static void TIM_DMAErrorCCxN(DMA_HandleTypeDef *hdma);
 101:Drivers/STM32F4xx_HAL_Driver/Src/stm32f4xx_hal_tim_ex.c **** static void TIM_CCxNChannelCmd(TIM_TypeDef *TIMx, uint32_t Channel, uint32_t ChannelNState);
 102:Drivers/STM32F4xx_HAL_Driver/Src/stm32f4xx_hal_tim_ex.c **** 
 103:Drivers/STM32F4xx_HAL_Driver/Src/stm32f4xx_hal_tim_ex.c **** /* Exported functions --------------------------------------------------------*/
 104:Drivers/STM32F4xx_HAL_Driver/Src/stm32f4xx_hal_tim_ex.c **** /** @defgroup TIMEx_Exported_Functions TIM Extended Exported Functions
 105:Drivers/STM32F4xx_HAL_Driver/Src/stm32f4xx_hal_tim_ex.c ****   * @{
 106:Drivers/STM32F4xx_HAL_Driver/Src/stm32f4xx_hal_tim_ex.c ****   */
 107:Drivers/STM32F4xx_HAL_Driver/Src/stm32f4xx_hal_tim_ex.c **** 
 108:Drivers/STM32F4xx_HAL_Driver/Src/stm32f4xx_hal_tim_ex.c **** /** @defgroup TIMEx_Exported_Functions_Group1 Extended Timer Hall Sensor functions
 109:Drivers/STM32F4xx_HAL_Driver/Src/stm32f4xx_hal_tim_ex.c ****   * @brief    Timer Hall Sensor functions
 110:Drivers/STM32F4xx_HAL_Driver/Src/stm32f4xx_hal_tim_ex.c ****   *
 111:Drivers/STM32F4xx_HAL_Driver/Src/stm32f4xx_hal_tim_ex.c **** @verbatim
 112:Drivers/STM32F4xx_HAL_Driver/Src/stm32f4xx_hal_tim_ex.c ****   ==============================================================================
 113:Drivers/STM32F4xx_HAL_Driver/Src/stm32f4xx_hal_tim_ex.c ****                       ##### Timer Hall Sensor functions #####
 114:Drivers/STM32F4xx_HAL_Driver/Src/stm32f4xx_hal_tim_ex.c ****   ==============================================================================
 115:Drivers/STM32F4xx_HAL_Driver/Src/stm32f4xx_hal_tim_ex.c ****   [..]
 116:Drivers/STM32F4xx_HAL_Driver/Src/stm32f4xx_hal_tim_ex.c ****     This section provides functions allowing to:
 117:Drivers/STM32F4xx_HAL_Driver/Src/stm32f4xx_hal_tim_ex.c ****     (+) Initialize and configure TIM HAL Sensor.
 118:Drivers/STM32F4xx_HAL_Driver/Src/stm32f4xx_hal_tim_ex.c ****     (+) De-initialize TIM HAL Sensor.
 119:Drivers/STM32F4xx_HAL_Driver/Src/stm32f4xx_hal_tim_ex.c ****     (+) Start the Hall Sensor Interface.
 120:Drivers/STM32F4xx_HAL_Driver/Src/stm32f4xx_hal_tim_ex.c ****     (+) Stop the Hall Sensor Interface.
 121:Drivers/STM32F4xx_HAL_Driver/Src/stm32f4xx_hal_tim_ex.c ****     (+) Start the Hall Sensor Interface and enable interrupts.
 122:Drivers/STM32F4xx_HAL_Driver/Src/stm32f4xx_hal_tim_ex.c ****     (+) Stop the Hall Sensor Interface and disable interrupts.
 123:Drivers/STM32F4xx_HAL_Driver/Src/stm32f4xx_hal_tim_ex.c ****     (+) Start the Hall Sensor Interface and enable DMA transfers.
 124:Drivers/STM32F4xx_HAL_Driver/Src/stm32f4xx_hal_tim_ex.c ****     (+) Stop the Hall Sensor Interface and disable DMA transfers.
 125:Drivers/STM32F4xx_HAL_Driver/Src/stm32f4xx_hal_tim_ex.c **** 
 126:Drivers/STM32F4xx_HAL_Driver/Src/stm32f4xx_hal_tim_ex.c **** @endverbatim
 127:Drivers/STM32F4xx_HAL_Driver/Src/stm32f4xx_hal_tim_ex.c ****   * @{
 128:Drivers/STM32F4xx_HAL_Driver/Src/stm32f4xx_hal_tim_ex.c ****   */
 129:Drivers/STM32F4xx_HAL_Driver/Src/stm32f4xx_hal_tim_ex.c **** /**
 130:Drivers/STM32F4xx_HAL_Driver/Src/stm32f4xx_hal_tim_ex.c ****   * @brief  Initializes the TIM Hall Sensor Interface and initialize the associated handle.
 131:Drivers/STM32F4xx_HAL_Driver/Src/stm32f4xx_hal_tim_ex.c ****   * @note   When the timer instance is initialized in Hall Sensor Interface mode,
 132:Drivers/STM32F4xx_HAL_Driver/Src/stm32f4xx_hal_tim_ex.c ****   *         timer channels 1 and channel 2 are reserved and cannot be used for
 133:Drivers/STM32F4xx_HAL_Driver/Src/stm32f4xx_hal_tim_ex.c ****   *         other purpose.
 134:Drivers/STM32F4xx_HAL_Driver/Src/stm32f4xx_hal_tim_ex.c ****   * @param  htim TIM Hall Sensor Interface handle
 135:Drivers/STM32F4xx_HAL_Driver/Src/stm32f4xx_hal_tim_ex.c ****   * @param  sConfig TIM Hall Sensor configuration structure
 136:Drivers/STM32F4xx_HAL_Driver/Src/stm32f4xx_hal_tim_ex.c ****   * @retval HAL status
 137:Drivers/STM32F4xx_HAL_Driver/Src/stm32f4xx_hal_tim_ex.c ****   */
 138:Drivers/STM32F4xx_HAL_Driver/Src/stm32f4xx_hal_tim_ex.c **** HAL_StatusTypeDef HAL_TIMEx_HallSensor_Init(TIM_HandleTypeDef *htim, TIM_HallSensor_InitTypeDef *sC
 139:Drivers/STM32F4xx_HAL_Driver/Src/stm32f4xx_hal_tim_ex.c **** {
  29              		.loc 1 139 1
  30              		.cfi_startproc
  31              		@ args = 0, pretend = 0, frame = 40
  32              		@ frame_needed = 1, uses_anonymous_args = 0
  33 0000 80B5     		push	{r7, lr}
ARM GAS  C:\Users\DAELT-~1\AppData\Local\Temp\cc2rhEX6.s 			page 4


  34              	.LCFI0:
  35              		.cfi_def_cfa_offset 8
  36              		.cfi_offset 7, -8
  37              		.cfi_offset 14, -4
  38 0002 8AB0     		sub	sp, sp, #40
  39              	.LCFI1:
  40              		.cfi_def_cfa_offset 48
  41 0004 00AF     		add	r7, sp, #0
  42              	.LCFI2:
  43              		.cfi_def_cfa_register 7
  44 0006 7860     		str	r0, [r7, #4]
  45 0008 3960     		str	r1, [r7]
 140:Drivers/STM32F4xx_HAL_Driver/Src/stm32f4xx_hal_tim_ex.c ****   TIM_OC_InitTypeDef OC_Config;
 141:Drivers/STM32F4xx_HAL_Driver/Src/stm32f4xx_hal_tim_ex.c **** 
 142:Drivers/STM32F4xx_HAL_Driver/Src/stm32f4xx_hal_tim_ex.c ****   /* Check the TIM handle allocation */
 143:Drivers/STM32F4xx_HAL_Driver/Src/stm32f4xx_hal_tim_ex.c ****   if (htim == NULL)
  46              		.loc 1 143 6
  47 000a 7B68     		ldr	r3, [r7, #4]
  48 000c 002B     		cmp	r3, #0
  49 000e 01D1     		bne	.L2
 144:Drivers/STM32F4xx_HAL_Driver/Src/stm32f4xx_hal_tim_ex.c ****   {
 145:Drivers/STM32F4xx_HAL_Driver/Src/stm32f4xx_hal_tim_ex.c ****     return HAL_ERROR;
  50              		.loc 1 145 12
  51 0010 0123     		movs	r3, #1
  52 0012 9AE0     		b	.L5
  53              	.L2:
 146:Drivers/STM32F4xx_HAL_Driver/Src/stm32f4xx_hal_tim_ex.c ****   }
 147:Drivers/STM32F4xx_HAL_Driver/Src/stm32f4xx_hal_tim_ex.c **** 
 148:Drivers/STM32F4xx_HAL_Driver/Src/stm32f4xx_hal_tim_ex.c ****   /* Check the parameters */
 149:Drivers/STM32F4xx_HAL_Driver/Src/stm32f4xx_hal_tim_ex.c ****   assert_param(IS_TIM_HALL_SENSOR_INTERFACE_INSTANCE(htim->Instance));
 150:Drivers/STM32F4xx_HAL_Driver/Src/stm32f4xx_hal_tim_ex.c ****   assert_param(IS_TIM_COUNTER_MODE(htim->Init.CounterMode));
 151:Drivers/STM32F4xx_HAL_Driver/Src/stm32f4xx_hal_tim_ex.c ****   assert_param(IS_TIM_CLOCKDIVISION_DIV(htim->Init.ClockDivision));
 152:Drivers/STM32F4xx_HAL_Driver/Src/stm32f4xx_hal_tim_ex.c ****   assert_param(IS_TIM_AUTORELOAD_PRELOAD(htim->Init.AutoReloadPreload));
 153:Drivers/STM32F4xx_HAL_Driver/Src/stm32f4xx_hal_tim_ex.c ****   assert_param(IS_TIM_IC_POLARITY(sConfig->IC1Polarity));
 154:Drivers/STM32F4xx_HAL_Driver/Src/stm32f4xx_hal_tim_ex.c ****   assert_param(IS_TIM_IC_PRESCALER(sConfig->IC1Prescaler));
 155:Drivers/STM32F4xx_HAL_Driver/Src/stm32f4xx_hal_tim_ex.c ****   assert_param(IS_TIM_IC_FILTER(sConfig->IC1Filter));
 156:Drivers/STM32F4xx_HAL_Driver/Src/stm32f4xx_hal_tim_ex.c **** 
 157:Drivers/STM32F4xx_HAL_Driver/Src/stm32f4xx_hal_tim_ex.c ****   if (htim->State == HAL_TIM_STATE_RESET)
  54              		.loc 1 157 11
  55 0014 7B68     		ldr	r3, [r7, #4]
  56 0016 93F83D30 		ldrb	r3, [r3, #61]
  57 001a DBB2     		uxtb	r3, r3
  58              		.loc 1 157 6
  59 001c 002B     		cmp	r3, #0
  60 001e 06D1     		bne	.L4
 158:Drivers/STM32F4xx_HAL_Driver/Src/stm32f4xx_hal_tim_ex.c ****   {
 159:Drivers/STM32F4xx_HAL_Driver/Src/stm32f4xx_hal_tim_ex.c ****     /* Allocate lock resource and initialize it */
 160:Drivers/STM32F4xx_HAL_Driver/Src/stm32f4xx_hal_tim_ex.c ****     htim->Lock = HAL_UNLOCKED;
  61              		.loc 1 160 16
  62 0020 7B68     		ldr	r3, [r7, #4]
  63 0022 0022     		movs	r2, #0
  64 0024 83F83C20 		strb	r2, [r3, #60]
 161:Drivers/STM32F4xx_HAL_Driver/Src/stm32f4xx_hal_tim_ex.c **** 
 162:Drivers/STM32F4xx_HAL_Driver/Src/stm32f4xx_hal_tim_ex.c **** #if (USE_HAL_TIM_REGISTER_CALLBACKS == 1)
 163:Drivers/STM32F4xx_HAL_Driver/Src/stm32f4xx_hal_tim_ex.c ****     /* Reset interrupt callbacks to legacy week callbacks */
 164:Drivers/STM32F4xx_HAL_Driver/Src/stm32f4xx_hal_tim_ex.c ****     TIM_ResetCallback(htim);
 165:Drivers/STM32F4xx_HAL_Driver/Src/stm32f4xx_hal_tim_ex.c **** 
ARM GAS  C:\Users\DAELT-~1\AppData\Local\Temp\cc2rhEX6.s 			page 5


 166:Drivers/STM32F4xx_HAL_Driver/Src/stm32f4xx_hal_tim_ex.c ****     if (htim->HallSensor_MspInitCallback == NULL)
 167:Drivers/STM32F4xx_HAL_Driver/Src/stm32f4xx_hal_tim_ex.c ****     {
 168:Drivers/STM32F4xx_HAL_Driver/Src/stm32f4xx_hal_tim_ex.c ****       htim->HallSensor_MspInitCallback = HAL_TIMEx_HallSensor_MspInit;
 169:Drivers/STM32F4xx_HAL_Driver/Src/stm32f4xx_hal_tim_ex.c ****     }
 170:Drivers/STM32F4xx_HAL_Driver/Src/stm32f4xx_hal_tim_ex.c ****     /* Init the low level hardware : GPIO, CLOCK, NVIC */
 171:Drivers/STM32F4xx_HAL_Driver/Src/stm32f4xx_hal_tim_ex.c ****     htim->HallSensor_MspInitCallback(htim);
 172:Drivers/STM32F4xx_HAL_Driver/Src/stm32f4xx_hal_tim_ex.c **** #else
 173:Drivers/STM32F4xx_HAL_Driver/Src/stm32f4xx_hal_tim_ex.c ****     /* Init the low level hardware : GPIO, CLOCK, NVIC and DMA */
 174:Drivers/STM32F4xx_HAL_Driver/Src/stm32f4xx_hal_tim_ex.c ****     HAL_TIMEx_HallSensor_MspInit(htim);
  65              		.loc 1 174 5
  66 0028 7868     		ldr	r0, [r7, #4]
  67 002a FFF7FEFF 		bl	HAL_TIMEx_HallSensor_MspInit
  68              	.L4:
 175:Drivers/STM32F4xx_HAL_Driver/Src/stm32f4xx_hal_tim_ex.c **** #endif /* USE_HAL_TIM_REGISTER_CALLBACKS */
 176:Drivers/STM32F4xx_HAL_Driver/Src/stm32f4xx_hal_tim_ex.c ****   }
 177:Drivers/STM32F4xx_HAL_Driver/Src/stm32f4xx_hal_tim_ex.c **** 
 178:Drivers/STM32F4xx_HAL_Driver/Src/stm32f4xx_hal_tim_ex.c ****   /* Set the TIM state */
 179:Drivers/STM32F4xx_HAL_Driver/Src/stm32f4xx_hal_tim_ex.c ****   htim->State = HAL_TIM_STATE_BUSY;
  69              		.loc 1 179 15
  70 002e 7B68     		ldr	r3, [r7, #4]
  71 0030 0222     		movs	r2, #2
  72 0032 83F83D20 		strb	r2, [r3, #61]
 180:Drivers/STM32F4xx_HAL_Driver/Src/stm32f4xx_hal_tim_ex.c **** 
 181:Drivers/STM32F4xx_HAL_Driver/Src/stm32f4xx_hal_tim_ex.c ****   /* Configure the Time base in the Encoder Mode */
 182:Drivers/STM32F4xx_HAL_Driver/Src/stm32f4xx_hal_tim_ex.c ****   TIM_Base_SetConfig(htim->Instance, &htim->Init);
  73              		.loc 1 182 3
  74 0036 7B68     		ldr	r3, [r7, #4]
  75 0038 1A68     		ldr	r2, [r3]
  76 003a 7B68     		ldr	r3, [r7, #4]
  77 003c 0433     		adds	r3, r3, #4
  78 003e 1946     		mov	r1, r3
  79 0040 1046     		mov	r0, r2
  80 0042 FFF7FEFF 		bl	TIM_Base_SetConfig
 183:Drivers/STM32F4xx_HAL_Driver/Src/stm32f4xx_hal_tim_ex.c **** 
 184:Drivers/STM32F4xx_HAL_Driver/Src/stm32f4xx_hal_tim_ex.c ****   /* Configure the Channel 1 as Input Channel to interface with the three Outputs of the  Hall sens
 185:Drivers/STM32F4xx_HAL_Driver/Src/stm32f4xx_hal_tim_ex.c ****   TIM_TI1_SetConfig(htim->Instance, sConfig->IC1Polarity, TIM_ICSELECTION_TRC, sConfig->IC1Filter);
  81              		.loc 1 185 3
  82 0046 7B68     		ldr	r3, [r7, #4]
  83 0048 1868     		ldr	r0, [r3]
  84 004a 3B68     		ldr	r3, [r7]
  85 004c 1968     		ldr	r1, [r3]
  86 004e 3B68     		ldr	r3, [r7]
  87 0050 9B68     		ldr	r3, [r3, #8]
  88 0052 0322     		movs	r2, #3
  89 0054 FFF7FEFF 		bl	TIM_TI1_SetConfig
 186:Drivers/STM32F4xx_HAL_Driver/Src/stm32f4xx_hal_tim_ex.c **** 
 187:Drivers/STM32F4xx_HAL_Driver/Src/stm32f4xx_hal_tim_ex.c ****   /* Reset the IC1PSC Bits */
 188:Drivers/STM32F4xx_HAL_Driver/Src/stm32f4xx_hal_tim_ex.c ****   htim->Instance->CCMR1 &= ~TIM_CCMR1_IC1PSC;
  90              		.loc 1 188 7
  91 0058 7B68     		ldr	r3, [r7, #4]
  92 005a 1B68     		ldr	r3, [r3]
  93              		.loc 1 188 17
  94 005c 9A69     		ldr	r2, [r3, #24]
  95              		.loc 1 188 7
  96 005e 7B68     		ldr	r3, [r7, #4]
  97 0060 1B68     		ldr	r3, [r3]
  98              		.loc 1 188 25
ARM GAS  C:\Users\DAELT-~1\AppData\Local\Temp\cc2rhEX6.s 			page 6


  99 0062 22F00C02 		bic	r2, r2, #12
 100 0066 9A61     		str	r2, [r3, #24]
 189:Drivers/STM32F4xx_HAL_Driver/Src/stm32f4xx_hal_tim_ex.c ****   /* Set the IC1PSC value */
 190:Drivers/STM32F4xx_HAL_Driver/Src/stm32f4xx_hal_tim_ex.c ****   htim->Instance->CCMR1 |= sConfig->IC1Prescaler;
 101              		.loc 1 190 7
 102 0068 7B68     		ldr	r3, [r7, #4]
 103 006a 1B68     		ldr	r3, [r3]
 104              		.loc 1 190 17
 105 006c 9969     		ldr	r1, [r3, #24]
 106              		.loc 1 190 35
 107 006e 3B68     		ldr	r3, [r7]
 108 0070 5A68     		ldr	r2, [r3, #4]
 109              		.loc 1 190 7
 110 0072 7B68     		ldr	r3, [r7, #4]
 111 0074 1B68     		ldr	r3, [r3]
 112              		.loc 1 190 25
 113 0076 0A43     		orrs	r2, r2, r1
 114 0078 9A61     		str	r2, [r3, #24]
 191:Drivers/STM32F4xx_HAL_Driver/Src/stm32f4xx_hal_tim_ex.c **** 
 192:Drivers/STM32F4xx_HAL_Driver/Src/stm32f4xx_hal_tim_ex.c ****   /* Enable the Hall sensor interface (XOR function of the three inputs) */
 193:Drivers/STM32F4xx_HAL_Driver/Src/stm32f4xx_hal_tim_ex.c ****   htim->Instance->CR2 |= TIM_CR2_TI1S;
 115              		.loc 1 193 7
 116 007a 7B68     		ldr	r3, [r7, #4]
 117 007c 1B68     		ldr	r3, [r3]
 118              		.loc 1 193 17
 119 007e 5A68     		ldr	r2, [r3, #4]
 120              		.loc 1 193 7
 121 0080 7B68     		ldr	r3, [r7, #4]
 122 0082 1B68     		ldr	r3, [r3]
 123              		.loc 1 193 23
 124 0084 42F08002 		orr	r2, r2, #128
 125 0088 5A60     		str	r2, [r3, #4]
 194:Drivers/STM32F4xx_HAL_Driver/Src/stm32f4xx_hal_tim_ex.c **** 
 195:Drivers/STM32F4xx_HAL_Driver/Src/stm32f4xx_hal_tim_ex.c ****   /* Select the TIM_TS_TI1F_ED signal as Input trigger for the TIM */
 196:Drivers/STM32F4xx_HAL_Driver/Src/stm32f4xx_hal_tim_ex.c ****   htim->Instance->SMCR &= ~TIM_SMCR_TS;
 126              		.loc 1 196 7
 127 008a 7B68     		ldr	r3, [r7, #4]
 128 008c 1B68     		ldr	r3, [r3]
 129              		.loc 1 196 17
 130 008e 9A68     		ldr	r2, [r3, #8]
 131              		.loc 1 196 7
 132 0090 7B68     		ldr	r3, [r7, #4]
 133 0092 1B68     		ldr	r3, [r3]
 134              		.loc 1 196 24
 135 0094 22F07002 		bic	r2, r2, #112
 136 0098 9A60     		str	r2, [r3, #8]
 197:Drivers/STM32F4xx_HAL_Driver/Src/stm32f4xx_hal_tim_ex.c ****   htim->Instance->SMCR |= TIM_TS_TI1F_ED;
 137              		.loc 1 197 7
 138 009a 7B68     		ldr	r3, [r7, #4]
 139 009c 1B68     		ldr	r3, [r3]
 140              		.loc 1 197 17
 141 009e 9A68     		ldr	r2, [r3, #8]
 142              		.loc 1 197 7
 143 00a0 7B68     		ldr	r3, [r7, #4]
 144 00a2 1B68     		ldr	r3, [r3]
 145              		.loc 1 197 24
 146 00a4 42F04002 		orr	r2, r2, #64
ARM GAS  C:\Users\DAELT-~1\AppData\Local\Temp\cc2rhEX6.s 			page 7


 147 00a8 9A60     		str	r2, [r3, #8]
 198:Drivers/STM32F4xx_HAL_Driver/Src/stm32f4xx_hal_tim_ex.c **** 
 199:Drivers/STM32F4xx_HAL_Driver/Src/stm32f4xx_hal_tim_ex.c ****   /* Use the TIM_TS_TI1F_ED signal to reset the TIM counter each edge detection */
 200:Drivers/STM32F4xx_HAL_Driver/Src/stm32f4xx_hal_tim_ex.c ****   htim->Instance->SMCR &= ~TIM_SMCR_SMS;
 148              		.loc 1 200 7
 149 00aa 7B68     		ldr	r3, [r7, #4]
 150 00ac 1B68     		ldr	r3, [r3]
 151              		.loc 1 200 17
 152 00ae 9A68     		ldr	r2, [r3, #8]
 153              		.loc 1 200 7
 154 00b0 7B68     		ldr	r3, [r7, #4]
 155 00b2 1B68     		ldr	r3, [r3]
 156              		.loc 1 200 24
 157 00b4 22F00702 		bic	r2, r2, #7
 158 00b8 9A60     		str	r2, [r3, #8]
 201:Drivers/STM32F4xx_HAL_Driver/Src/stm32f4xx_hal_tim_ex.c ****   htim->Instance->SMCR |= TIM_SLAVEMODE_RESET;
 159              		.loc 1 201 7
 160 00ba 7B68     		ldr	r3, [r7, #4]
 161 00bc 1B68     		ldr	r3, [r3]
 162              		.loc 1 201 17
 163 00be 9A68     		ldr	r2, [r3, #8]
 164              		.loc 1 201 7
 165 00c0 7B68     		ldr	r3, [r7, #4]
 166 00c2 1B68     		ldr	r3, [r3]
 167              		.loc 1 201 24
 168 00c4 42F00402 		orr	r2, r2, #4
 169 00c8 9A60     		str	r2, [r3, #8]
 202:Drivers/STM32F4xx_HAL_Driver/Src/stm32f4xx_hal_tim_ex.c **** 
 203:Drivers/STM32F4xx_HAL_Driver/Src/stm32f4xx_hal_tim_ex.c ****   /* Program channel 2 in PWM 2 mode with the desired Commutation_Delay*/
 204:Drivers/STM32F4xx_HAL_Driver/Src/stm32f4xx_hal_tim_ex.c ****   OC_Config.OCFastMode = TIM_OCFAST_DISABLE;
 170              		.loc 1 204 24
 171 00ca 0023     		movs	r3, #0
 172 00cc FB61     		str	r3, [r7, #28]
 205:Drivers/STM32F4xx_HAL_Driver/Src/stm32f4xx_hal_tim_ex.c ****   OC_Config.OCIdleState = TIM_OCIDLESTATE_RESET;
 173              		.loc 1 205 25
 174 00ce 0023     		movs	r3, #0
 175 00d0 3B62     		str	r3, [r7, #32]
 206:Drivers/STM32F4xx_HAL_Driver/Src/stm32f4xx_hal_tim_ex.c ****   OC_Config.OCMode = TIM_OCMODE_PWM2;
 176              		.loc 1 206 20
 177 00d2 7023     		movs	r3, #112
 178 00d4 FB60     		str	r3, [r7, #12]
 207:Drivers/STM32F4xx_HAL_Driver/Src/stm32f4xx_hal_tim_ex.c ****   OC_Config.OCNIdleState = TIM_OCNIDLESTATE_RESET;
 179              		.loc 1 207 26
 180 00d6 0023     		movs	r3, #0
 181 00d8 7B62     		str	r3, [r7, #36]
 208:Drivers/STM32F4xx_HAL_Driver/Src/stm32f4xx_hal_tim_ex.c ****   OC_Config.OCNPolarity = TIM_OCNPOLARITY_HIGH;
 182              		.loc 1 208 25
 183 00da 0023     		movs	r3, #0
 184 00dc BB61     		str	r3, [r7, #24]
 209:Drivers/STM32F4xx_HAL_Driver/Src/stm32f4xx_hal_tim_ex.c ****   OC_Config.OCPolarity = TIM_OCPOLARITY_HIGH;
 185              		.loc 1 209 24
 186 00de 0023     		movs	r3, #0
 187 00e0 7B61     		str	r3, [r7, #20]
 210:Drivers/STM32F4xx_HAL_Driver/Src/stm32f4xx_hal_tim_ex.c ****   OC_Config.Pulse = sConfig->Commutation_Delay;
 188              		.loc 1 210 28
 189 00e2 3B68     		ldr	r3, [r7]
 190 00e4 DB68     		ldr	r3, [r3, #12]
ARM GAS  C:\Users\DAELT-~1\AppData\Local\Temp\cc2rhEX6.s 			page 8


 191              		.loc 1 210 19
 192 00e6 3B61     		str	r3, [r7, #16]
 211:Drivers/STM32F4xx_HAL_Driver/Src/stm32f4xx_hal_tim_ex.c **** 
 212:Drivers/STM32F4xx_HAL_Driver/Src/stm32f4xx_hal_tim_ex.c ****   TIM_OC2_SetConfig(htim->Instance, &OC_Config);
 193              		.loc 1 212 3
 194 00e8 7B68     		ldr	r3, [r7, #4]
 195 00ea 1B68     		ldr	r3, [r3]
 196 00ec 07F10C02 		add	r2, r7, #12
 197 00f0 1146     		mov	r1, r2
 198 00f2 1846     		mov	r0, r3
 199 00f4 FFF7FEFF 		bl	TIM_OC2_SetConfig
 213:Drivers/STM32F4xx_HAL_Driver/Src/stm32f4xx_hal_tim_ex.c **** 
 214:Drivers/STM32F4xx_HAL_Driver/Src/stm32f4xx_hal_tim_ex.c ****   /* Select OC2REF as trigger output on TRGO: write the MMS bits in the TIMx_CR2
 215:Drivers/STM32F4xx_HAL_Driver/Src/stm32f4xx_hal_tim_ex.c ****     register to 101 */
 216:Drivers/STM32F4xx_HAL_Driver/Src/stm32f4xx_hal_tim_ex.c ****   htim->Instance->CR2 &= ~TIM_CR2_MMS;
 200              		.loc 1 216 7
 201 00f8 7B68     		ldr	r3, [r7, #4]
 202 00fa 1B68     		ldr	r3, [r3]
 203              		.loc 1 216 17
 204 00fc 5A68     		ldr	r2, [r3, #4]
 205              		.loc 1 216 7
 206 00fe 7B68     		ldr	r3, [r7, #4]
 207 0100 1B68     		ldr	r3, [r3]
 208              		.loc 1 216 23
 209 0102 22F07002 		bic	r2, r2, #112
 210 0106 5A60     		str	r2, [r3, #4]
 217:Drivers/STM32F4xx_HAL_Driver/Src/stm32f4xx_hal_tim_ex.c ****   htim->Instance->CR2 |= TIM_TRGO_OC2REF;
 211              		.loc 1 217 7
 212 0108 7B68     		ldr	r3, [r7, #4]
 213 010a 1B68     		ldr	r3, [r3]
 214              		.loc 1 217 17
 215 010c 5A68     		ldr	r2, [r3, #4]
 216              		.loc 1 217 7
 217 010e 7B68     		ldr	r3, [r7, #4]
 218 0110 1B68     		ldr	r3, [r3]
 219              		.loc 1 217 23
 220 0112 42F05002 		orr	r2, r2, #80
 221 0116 5A60     		str	r2, [r3, #4]
 218:Drivers/STM32F4xx_HAL_Driver/Src/stm32f4xx_hal_tim_ex.c **** 
 219:Drivers/STM32F4xx_HAL_Driver/Src/stm32f4xx_hal_tim_ex.c ****   /* Initialize the DMA burst operation state */
 220:Drivers/STM32F4xx_HAL_Driver/Src/stm32f4xx_hal_tim_ex.c ****   htim->DMABurstState = HAL_DMA_BURST_STATE_READY;
 222              		.loc 1 220 23
 223 0118 7B68     		ldr	r3, [r7, #4]
 224 011a 0122     		movs	r2, #1
 225 011c 83F84620 		strb	r2, [r3, #70]
 221:Drivers/STM32F4xx_HAL_Driver/Src/stm32f4xx_hal_tim_ex.c **** 
 222:Drivers/STM32F4xx_HAL_Driver/Src/stm32f4xx_hal_tim_ex.c ****   /* Initialize the TIM channels state */
 223:Drivers/STM32F4xx_HAL_Driver/Src/stm32f4xx_hal_tim_ex.c ****   TIM_CHANNEL_STATE_SET(htim, TIM_CHANNEL_1, HAL_TIM_CHANNEL_STATE_READY);
 226              		.loc 1 223 3
 227 0120 7B68     		ldr	r3, [r7, #4]
 228 0122 0122     		movs	r2, #1
 229 0124 83F83E20 		strb	r2, [r3, #62]
 224:Drivers/STM32F4xx_HAL_Driver/Src/stm32f4xx_hal_tim_ex.c ****   TIM_CHANNEL_STATE_SET(htim, TIM_CHANNEL_2, HAL_TIM_CHANNEL_STATE_READY);
 230              		.loc 1 224 3
 231 0128 7B68     		ldr	r3, [r7, #4]
 232 012a 0122     		movs	r2, #1
 233 012c 83F83F20 		strb	r2, [r3, #63]
ARM GAS  C:\Users\DAELT-~1\AppData\Local\Temp\cc2rhEX6.s 			page 9


 225:Drivers/STM32F4xx_HAL_Driver/Src/stm32f4xx_hal_tim_ex.c ****   TIM_CHANNEL_N_STATE_SET(htim, TIM_CHANNEL_1, HAL_TIM_CHANNEL_STATE_READY);
 234              		.loc 1 225 3
 235 0130 7B68     		ldr	r3, [r7, #4]
 236 0132 0122     		movs	r2, #1
 237 0134 83F84220 		strb	r2, [r3, #66]
 226:Drivers/STM32F4xx_HAL_Driver/Src/stm32f4xx_hal_tim_ex.c ****   TIM_CHANNEL_N_STATE_SET(htim, TIM_CHANNEL_2, HAL_TIM_CHANNEL_STATE_READY);
 238              		.loc 1 226 3
 239 0138 7B68     		ldr	r3, [r7, #4]
 240 013a 0122     		movs	r2, #1
 241 013c 83F84320 		strb	r2, [r3, #67]
 227:Drivers/STM32F4xx_HAL_Driver/Src/stm32f4xx_hal_tim_ex.c **** 
 228:Drivers/STM32F4xx_HAL_Driver/Src/stm32f4xx_hal_tim_ex.c ****   /* Initialize the TIM state*/
 229:Drivers/STM32F4xx_HAL_Driver/Src/stm32f4xx_hal_tim_ex.c ****   htim->State = HAL_TIM_STATE_READY;
 242              		.loc 1 229 15
 243 0140 7B68     		ldr	r3, [r7, #4]
 244 0142 0122     		movs	r2, #1
 245 0144 83F83D20 		strb	r2, [r3, #61]
 230:Drivers/STM32F4xx_HAL_Driver/Src/stm32f4xx_hal_tim_ex.c **** 
 231:Drivers/STM32F4xx_HAL_Driver/Src/stm32f4xx_hal_tim_ex.c ****   return HAL_OK;
 246              		.loc 1 231 10
 247 0148 0023     		movs	r3, #0
 248              	.L5:
 232:Drivers/STM32F4xx_HAL_Driver/Src/stm32f4xx_hal_tim_ex.c **** }
 249              		.loc 1 232 1
 250 014a 1846     		mov	r0, r3
 251 014c 2837     		adds	r7, r7, #40
 252              	.LCFI3:
 253              		.cfi_def_cfa_offset 8
 254 014e BD46     		mov	sp, r7
 255              	.LCFI4:
 256              		.cfi_def_cfa_register 13
 257              		@ sp needed
 258 0150 80BD     		pop	{r7, pc}
 259              		.cfi_endproc
 260              	.LFE130:
 262              		.section	.text.HAL_TIMEx_HallSensor_DeInit,"ax",%progbits
 263              		.align	1
 264              		.global	HAL_TIMEx_HallSensor_DeInit
 265              		.syntax unified
 266              		.thumb
 267              		.thumb_func
 269              	HAL_TIMEx_HallSensor_DeInit:
 270              	.LFB131:
 233:Drivers/STM32F4xx_HAL_Driver/Src/stm32f4xx_hal_tim_ex.c **** 
 234:Drivers/STM32F4xx_HAL_Driver/Src/stm32f4xx_hal_tim_ex.c **** /**
 235:Drivers/STM32F4xx_HAL_Driver/Src/stm32f4xx_hal_tim_ex.c ****   * @brief  DeInitializes the TIM Hall Sensor interface
 236:Drivers/STM32F4xx_HAL_Driver/Src/stm32f4xx_hal_tim_ex.c ****   * @param  htim TIM Hall Sensor Interface handle
 237:Drivers/STM32F4xx_HAL_Driver/Src/stm32f4xx_hal_tim_ex.c ****   * @retval HAL status
 238:Drivers/STM32F4xx_HAL_Driver/Src/stm32f4xx_hal_tim_ex.c ****   */
 239:Drivers/STM32F4xx_HAL_Driver/Src/stm32f4xx_hal_tim_ex.c **** HAL_StatusTypeDef HAL_TIMEx_HallSensor_DeInit(TIM_HandleTypeDef *htim)
 240:Drivers/STM32F4xx_HAL_Driver/Src/stm32f4xx_hal_tim_ex.c **** {
 271              		.loc 1 240 1
 272              		.cfi_startproc
 273              		@ args = 0, pretend = 0, frame = 8
 274              		@ frame_needed = 1, uses_anonymous_args = 0
 275 0000 80B5     		push	{r7, lr}
 276              	.LCFI5:
ARM GAS  C:\Users\DAELT-~1\AppData\Local\Temp\cc2rhEX6.s 			page 10


 277              		.cfi_def_cfa_offset 8
 278              		.cfi_offset 7, -8
 279              		.cfi_offset 14, -4
 280 0002 82B0     		sub	sp, sp, #8
 281              	.LCFI6:
 282              		.cfi_def_cfa_offset 16
 283 0004 00AF     		add	r7, sp, #0
 284              	.LCFI7:
 285              		.cfi_def_cfa_register 7
 286 0006 7860     		str	r0, [r7, #4]
 241:Drivers/STM32F4xx_HAL_Driver/Src/stm32f4xx_hal_tim_ex.c ****   /* Check the parameters */
 242:Drivers/STM32F4xx_HAL_Driver/Src/stm32f4xx_hal_tim_ex.c ****   assert_param(IS_TIM_INSTANCE(htim->Instance));
 243:Drivers/STM32F4xx_HAL_Driver/Src/stm32f4xx_hal_tim_ex.c **** 
 244:Drivers/STM32F4xx_HAL_Driver/Src/stm32f4xx_hal_tim_ex.c ****   htim->State = HAL_TIM_STATE_BUSY;
 287              		.loc 1 244 15
 288 0008 7B68     		ldr	r3, [r7, #4]
 289 000a 0222     		movs	r2, #2
 290 000c 83F83D20 		strb	r2, [r3, #61]
 245:Drivers/STM32F4xx_HAL_Driver/Src/stm32f4xx_hal_tim_ex.c **** 
 246:Drivers/STM32F4xx_HAL_Driver/Src/stm32f4xx_hal_tim_ex.c ****   /* Disable the TIM Peripheral Clock */
 247:Drivers/STM32F4xx_HAL_Driver/Src/stm32f4xx_hal_tim_ex.c ****   __HAL_TIM_DISABLE(htim);
 291              		.loc 1 247 3
 292 0010 7B68     		ldr	r3, [r7, #4]
 293 0012 1B68     		ldr	r3, [r3]
 294 0014 1A6A     		ldr	r2, [r3, #32]
 295 0016 41F21113 		movw	r3, #4369
 296 001a 1340     		ands	r3, r3, r2
 297 001c 002B     		cmp	r3, #0
 298 001e 0FD1     		bne	.L7
 299              		.loc 1 247 3 is_stmt 0 discriminator 1
 300 0020 7B68     		ldr	r3, [r7, #4]
 301 0022 1B68     		ldr	r3, [r3]
 302 0024 1A6A     		ldr	r2, [r3, #32]
 303 0026 40F24443 		movw	r3, #1092
 304 002a 1340     		ands	r3, r3, r2
 305 002c 002B     		cmp	r3, #0
 306 002e 07D1     		bne	.L7
 307              		.loc 1 247 3 discriminator 2
 308 0030 7B68     		ldr	r3, [r7, #4]
 309 0032 1B68     		ldr	r3, [r3]
 310 0034 1A68     		ldr	r2, [r3]
 311 0036 7B68     		ldr	r3, [r7, #4]
 312 0038 1B68     		ldr	r3, [r3]
 313 003a 22F00102 		bic	r2, r2, #1
 314 003e 1A60     		str	r2, [r3]
 315              	.L7:
 248:Drivers/STM32F4xx_HAL_Driver/Src/stm32f4xx_hal_tim_ex.c **** 
 249:Drivers/STM32F4xx_HAL_Driver/Src/stm32f4xx_hal_tim_ex.c **** #if (USE_HAL_TIM_REGISTER_CALLBACKS == 1)
 250:Drivers/STM32F4xx_HAL_Driver/Src/stm32f4xx_hal_tim_ex.c ****   if (htim->HallSensor_MspDeInitCallback == NULL)
 251:Drivers/STM32F4xx_HAL_Driver/Src/stm32f4xx_hal_tim_ex.c ****   {
 252:Drivers/STM32F4xx_HAL_Driver/Src/stm32f4xx_hal_tim_ex.c ****     htim->HallSensor_MspDeInitCallback = HAL_TIMEx_HallSensor_MspDeInit;
 253:Drivers/STM32F4xx_HAL_Driver/Src/stm32f4xx_hal_tim_ex.c ****   }
 254:Drivers/STM32F4xx_HAL_Driver/Src/stm32f4xx_hal_tim_ex.c ****   /* DeInit the low level hardware */
 255:Drivers/STM32F4xx_HAL_Driver/Src/stm32f4xx_hal_tim_ex.c ****   htim->HallSensor_MspDeInitCallback(htim);
 256:Drivers/STM32F4xx_HAL_Driver/Src/stm32f4xx_hal_tim_ex.c **** #else
 257:Drivers/STM32F4xx_HAL_Driver/Src/stm32f4xx_hal_tim_ex.c ****   /* DeInit the low level hardware: GPIO, CLOCK, NVIC */
 258:Drivers/STM32F4xx_HAL_Driver/Src/stm32f4xx_hal_tim_ex.c ****   HAL_TIMEx_HallSensor_MspDeInit(htim);
ARM GAS  C:\Users\DAELT-~1\AppData\Local\Temp\cc2rhEX6.s 			page 11


 316              		.loc 1 258 3 is_stmt 1
 317 0040 7868     		ldr	r0, [r7, #4]
 318 0042 FFF7FEFF 		bl	HAL_TIMEx_HallSensor_MspDeInit
 259:Drivers/STM32F4xx_HAL_Driver/Src/stm32f4xx_hal_tim_ex.c **** #endif /* USE_HAL_TIM_REGISTER_CALLBACKS */
 260:Drivers/STM32F4xx_HAL_Driver/Src/stm32f4xx_hal_tim_ex.c **** 
 261:Drivers/STM32F4xx_HAL_Driver/Src/stm32f4xx_hal_tim_ex.c ****   /* Change the DMA burst operation state */
 262:Drivers/STM32F4xx_HAL_Driver/Src/stm32f4xx_hal_tim_ex.c ****   htim->DMABurstState = HAL_DMA_BURST_STATE_RESET;
 319              		.loc 1 262 23
 320 0046 7B68     		ldr	r3, [r7, #4]
 321 0048 0022     		movs	r2, #0
 322 004a 83F84620 		strb	r2, [r3, #70]
 263:Drivers/STM32F4xx_HAL_Driver/Src/stm32f4xx_hal_tim_ex.c **** 
 264:Drivers/STM32F4xx_HAL_Driver/Src/stm32f4xx_hal_tim_ex.c ****   /* Change the TIM channels state */
 265:Drivers/STM32F4xx_HAL_Driver/Src/stm32f4xx_hal_tim_ex.c ****   TIM_CHANNEL_STATE_SET(htim, TIM_CHANNEL_1, HAL_TIM_CHANNEL_STATE_RESET);
 323              		.loc 1 265 3
 324 004e 7B68     		ldr	r3, [r7, #4]
 325 0050 0022     		movs	r2, #0
 326 0052 83F83E20 		strb	r2, [r3, #62]
 266:Drivers/STM32F4xx_HAL_Driver/Src/stm32f4xx_hal_tim_ex.c ****   TIM_CHANNEL_STATE_SET(htim, TIM_CHANNEL_2, HAL_TIM_CHANNEL_STATE_RESET);
 327              		.loc 1 266 3
 328 0056 7B68     		ldr	r3, [r7, #4]
 329 0058 0022     		movs	r2, #0
 330 005a 83F83F20 		strb	r2, [r3, #63]
 267:Drivers/STM32F4xx_HAL_Driver/Src/stm32f4xx_hal_tim_ex.c ****   TIM_CHANNEL_N_STATE_SET(htim, TIM_CHANNEL_1, HAL_TIM_CHANNEL_STATE_RESET);
 331              		.loc 1 267 3
 332 005e 7B68     		ldr	r3, [r7, #4]
 333 0060 0022     		movs	r2, #0
 334 0062 83F84220 		strb	r2, [r3, #66]
 268:Drivers/STM32F4xx_HAL_Driver/Src/stm32f4xx_hal_tim_ex.c ****   TIM_CHANNEL_N_STATE_SET(htim, TIM_CHANNEL_2, HAL_TIM_CHANNEL_STATE_RESET);
 335              		.loc 1 268 3
 336 0066 7B68     		ldr	r3, [r7, #4]
 337 0068 0022     		movs	r2, #0
 338 006a 83F84320 		strb	r2, [r3, #67]
 269:Drivers/STM32F4xx_HAL_Driver/Src/stm32f4xx_hal_tim_ex.c **** 
 270:Drivers/STM32F4xx_HAL_Driver/Src/stm32f4xx_hal_tim_ex.c ****   /* Change TIM state */
 271:Drivers/STM32F4xx_HAL_Driver/Src/stm32f4xx_hal_tim_ex.c ****   htim->State = HAL_TIM_STATE_RESET;
 339              		.loc 1 271 15
 340 006e 7B68     		ldr	r3, [r7, #4]
 341 0070 0022     		movs	r2, #0
 342 0072 83F83D20 		strb	r2, [r3, #61]
 272:Drivers/STM32F4xx_HAL_Driver/Src/stm32f4xx_hal_tim_ex.c **** 
 273:Drivers/STM32F4xx_HAL_Driver/Src/stm32f4xx_hal_tim_ex.c ****   /* Release Lock */
 274:Drivers/STM32F4xx_HAL_Driver/Src/stm32f4xx_hal_tim_ex.c ****   __HAL_UNLOCK(htim);
 343              		.loc 1 274 3
 344 0076 7B68     		ldr	r3, [r7, #4]
 345 0078 0022     		movs	r2, #0
 346 007a 83F83C20 		strb	r2, [r3, #60]
 275:Drivers/STM32F4xx_HAL_Driver/Src/stm32f4xx_hal_tim_ex.c **** 
 276:Drivers/STM32F4xx_HAL_Driver/Src/stm32f4xx_hal_tim_ex.c ****   return HAL_OK;
 347              		.loc 1 276 10
 348 007e 0023     		movs	r3, #0
 277:Drivers/STM32F4xx_HAL_Driver/Src/stm32f4xx_hal_tim_ex.c **** }
 349              		.loc 1 277 1
 350 0080 1846     		mov	r0, r3
 351 0082 0837     		adds	r7, r7, #8
 352              	.LCFI8:
 353              		.cfi_def_cfa_offset 8
ARM GAS  C:\Users\DAELT-~1\AppData\Local\Temp\cc2rhEX6.s 			page 12


 354 0084 BD46     		mov	sp, r7
 355              	.LCFI9:
 356              		.cfi_def_cfa_register 13
 357              		@ sp needed
 358 0086 80BD     		pop	{r7, pc}
 359              		.cfi_endproc
 360              	.LFE131:
 362              		.section	.text.HAL_TIMEx_HallSensor_MspInit,"ax",%progbits
 363              		.align	1
 364              		.weak	HAL_TIMEx_HallSensor_MspInit
 365              		.syntax unified
 366              		.thumb
 367              		.thumb_func
 369              	HAL_TIMEx_HallSensor_MspInit:
 370              	.LFB132:
 278:Drivers/STM32F4xx_HAL_Driver/Src/stm32f4xx_hal_tim_ex.c **** 
 279:Drivers/STM32F4xx_HAL_Driver/Src/stm32f4xx_hal_tim_ex.c **** /**
 280:Drivers/STM32F4xx_HAL_Driver/Src/stm32f4xx_hal_tim_ex.c ****   * @brief  Initializes the TIM Hall Sensor MSP.
 281:Drivers/STM32F4xx_HAL_Driver/Src/stm32f4xx_hal_tim_ex.c ****   * @param  htim TIM Hall Sensor Interface handle
 282:Drivers/STM32F4xx_HAL_Driver/Src/stm32f4xx_hal_tim_ex.c ****   * @retval None
 283:Drivers/STM32F4xx_HAL_Driver/Src/stm32f4xx_hal_tim_ex.c ****   */
 284:Drivers/STM32F4xx_HAL_Driver/Src/stm32f4xx_hal_tim_ex.c **** __weak void HAL_TIMEx_HallSensor_MspInit(TIM_HandleTypeDef *htim)
 285:Drivers/STM32F4xx_HAL_Driver/Src/stm32f4xx_hal_tim_ex.c **** {
 371              		.loc 1 285 1
 372              		.cfi_startproc
 373              		@ args = 0, pretend = 0, frame = 8
 374              		@ frame_needed = 1, uses_anonymous_args = 0
 375              		@ link register save eliminated.
 376 0000 80B4     		push	{r7}
 377              	.LCFI10:
 378              		.cfi_def_cfa_offset 4
 379              		.cfi_offset 7, -4
 380 0002 83B0     		sub	sp, sp, #12
 381              	.LCFI11:
 382              		.cfi_def_cfa_offset 16
 383 0004 00AF     		add	r7, sp, #0
 384              	.LCFI12:
 385              		.cfi_def_cfa_register 7
 386 0006 7860     		str	r0, [r7, #4]
 286:Drivers/STM32F4xx_HAL_Driver/Src/stm32f4xx_hal_tim_ex.c ****   /* Prevent unused argument(s) compilation warning */
 287:Drivers/STM32F4xx_HAL_Driver/Src/stm32f4xx_hal_tim_ex.c ****   UNUSED(htim);
 288:Drivers/STM32F4xx_HAL_Driver/Src/stm32f4xx_hal_tim_ex.c **** 
 289:Drivers/STM32F4xx_HAL_Driver/Src/stm32f4xx_hal_tim_ex.c ****   /* NOTE : This function should not be modified, when the callback is needed,
 290:Drivers/STM32F4xx_HAL_Driver/Src/stm32f4xx_hal_tim_ex.c ****             the HAL_TIMEx_HallSensor_MspInit could be implemented in the user file
 291:Drivers/STM32F4xx_HAL_Driver/Src/stm32f4xx_hal_tim_ex.c ****    */
 292:Drivers/STM32F4xx_HAL_Driver/Src/stm32f4xx_hal_tim_ex.c **** }
 387              		.loc 1 292 1
 388 0008 00BF     		nop
 389 000a 0C37     		adds	r7, r7, #12
 390              	.LCFI13:
 391              		.cfi_def_cfa_offset 4
 392 000c BD46     		mov	sp, r7
 393              	.LCFI14:
 394              		.cfi_def_cfa_register 13
 395              		@ sp needed
 396 000e 5DF8047B 		ldr	r7, [sp], #4
 397              	.LCFI15:
ARM GAS  C:\Users\DAELT-~1\AppData\Local\Temp\cc2rhEX6.s 			page 13


 398              		.cfi_restore 7
 399              		.cfi_def_cfa_offset 0
 400 0012 7047     		bx	lr
 401              		.cfi_endproc
 402              	.LFE132:
 404              		.section	.text.HAL_TIMEx_HallSensor_MspDeInit,"ax",%progbits
 405              		.align	1
 406              		.weak	HAL_TIMEx_HallSensor_MspDeInit
 407              		.syntax unified
 408              		.thumb
 409              		.thumb_func
 411              	HAL_TIMEx_HallSensor_MspDeInit:
 412              	.LFB133:
 293:Drivers/STM32F4xx_HAL_Driver/Src/stm32f4xx_hal_tim_ex.c **** 
 294:Drivers/STM32F4xx_HAL_Driver/Src/stm32f4xx_hal_tim_ex.c **** /**
 295:Drivers/STM32F4xx_HAL_Driver/Src/stm32f4xx_hal_tim_ex.c ****   * @brief  DeInitializes TIM Hall Sensor MSP.
 296:Drivers/STM32F4xx_HAL_Driver/Src/stm32f4xx_hal_tim_ex.c ****   * @param  htim TIM Hall Sensor Interface handle
 297:Drivers/STM32F4xx_HAL_Driver/Src/stm32f4xx_hal_tim_ex.c ****   * @retval None
 298:Drivers/STM32F4xx_HAL_Driver/Src/stm32f4xx_hal_tim_ex.c ****   */
 299:Drivers/STM32F4xx_HAL_Driver/Src/stm32f4xx_hal_tim_ex.c **** __weak void HAL_TIMEx_HallSensor_MspDeInit(TIM_HandleTypeDef *htim)
 300:Drivers/STM32F4xx_HAL_Driver/Src/stm32f4xx_hal_tim_ex.c **** {
 413              		.loc 1 300 1
 414              		.cfi_startproc
 415              		@ args = 0, pretend = 0, frame = 8
 416              		@ frame_needed = 1, uses_anonymous_args = 0
 417              		@ link register save eliminated.
 418 0000 80B4     		push	{r7}
 419              	.LCFI16:
 420              		.cfi_def_cfa_offset 4
 421              		.cfi_offset 7, -4
 422 0002 83B0     		sub	sp, sp, #12
 423              	.LCFI17:
 424              		.cfi_def_cfa_offset 16
 425 0004 00AF     		add	r7, sp, #0
 426              	.LCFI18:
 427              		.cfi_def_cfa_register 7
 428 0006 7860     		str	r0, [r7, #4]
 301:Drivers/STM32F4xx_HAL_Driver/Src/stm32f4xx_hal_tim_ex.c ****   /* Prevent unused argument(s) compilation warning */
 302:Drivers/STM32F4xx_HAL_Driver/Src/stm32f4xx_hal_tim_ex.c ****   UNUSED(htim);
 303:Drivers/STM32F4xx_HAL_Driver/Src/stm32f4xx_hal_tim_ex.c **** 
 304:Drivers/STM32F4xx_HAL_Driver/Src/stm32f4xx_hal_tim_ex.c ****   /* NOTE : This function should not be modified, when the callback is needed,
 305:Drivers/STM32F4xx_HAL_Driver/Src/stm32f4xx_hal_tim_ex.c ****             the HAL_TIMEx_HallSensor_MspDeInit could be implemented in the user file
 306:Drivers/STM32F4xx_HAL_Driver/Src/stm32f4xx_hal_tim_ex.c ****    */
 307:Drivers/STM32F4xx_HAL_Driver/Src/stm32f4xx_hal_tim_ex.c **** }
 429              		.loc 1 307 1
 430 0008 00BF     		nop
 431 000a 0C37     		adds	r7, r7, #12
 432              	.LCFI19:
 433              		.cfi_def_cfa_offset 4
 434 000c BD46     		mov	sp, r7
 435              	.LCFI20:
 436              		.cfi_def_cfa_register 13
 437              		@ sp needed
 438 000e 5DF8047B 		ldr	r7, [sp], #4
 439              	.LCFI21:
 440              		.cfi_restore 7
 441              		.cfi_def_cfa_offset 0
ARM GAS  C:\Users\DAELT-~1\AppData\Local\Temp\cc2rhEX6.s 			page 14


 442 0012 7047     		bx	lr
 443              		.cfi_endproc
 444              	.LFE133:
 446              		.section	.text.HAL_TIMEx_HallSensor_Start,"ax",%progbits
 447              		.align	1
 448              		.global	HAL_TIMEx_HallSensor_Start
 449              		.syntax unified
 450              		.thumb
 451              		.thumb_func
 453              	HAL_TIMEx_HallSensor_Start:
 454              	.LFB134:
 308:Drivers/STM32F4xx_HAL_Driver/Src/stm32f4xx_hal_tim_ex.c **** 
 309:Drivers/STM32F4xx_HAL_Driver/Src/stm32f4xx_hal_tim_ex.c **** /**
 310:Drivers/STM32F4xx_HAL_Driver/Src/stm32f4xx_hal_tim_ex.c ****   * @brief  Starts the TIM Hall Sensor Interface.
 311:Drivers/STM32F4xx_HAL_Driver/Src/stm32f4xx_hal_tim_ex.c ****   * @param  htim TIM Hall Sensor Interface handle
 312:Drivers/STM32F4xx_HAL_Driver/Src/stm32f4xx_hal_tim_ex.c ****   * @retval HAL status
 313:Drivers/STM32F4xx_HAL_Driver/Src/stm32f4xx_hal_tim_ex.c ****   */
 314:Drivers/STM32F4xx_HAL_Driver/Src/stm32f4xx_hal_tim_ex.c **** HAL_StatusTypeDef HAL_TIMEx_HallSensor_Start(TIM_HandleTypeDef *htim)
 315:Drivers/STM32F4xx_HAL_Driver/Src/stm32f4xx_hal_tim_ex.c **** {
 455              		.loc 1 315 1
 456              		.cfi_startproc
 457              		@ args = 0, pretend = 0, frame = 16
 458              		@ frame_needed = 1, uses_anonymous_args = 0
 459 0000 80B5     		push	{r7, lr}
 460              	.LCFI22:
 461              		.cfi_def_cfa_offset 8
 462              		.cfi_offset 7, -8
 463              		.cfi_offset 14, -4
 464 0002 84B0     		sub	sp, sp, #16
 465              	.LCFI23:
 466              		.cfi_def_cfa_offset 24
 467 0004 00AF     		add	r7, sp, #0
 468              	.LCFI24:
 469              		.cfi_def_cfa_register 7
 470 0006 7860     		str	r0, [r7, #4]
 316:Drivers/STM32F4xx_HAL_Driver/Src/stm32f4xx_hal_tim_ex.c ****   uint32_t tmpsmcr;
 317:Drivers/STM32F4xx_HAL_Driver/Src/stm32f4xx_hal_tim_ex.c ****   HAL_TIM_ChannelStateTypeDef channel_1_state = TIM_CHANNEL_STATE_GET(htim, TIM_CHANNEL_1);
 471              		.loc 1 317 31
 472 0008 7B68     		ldr	r3, [r7, #4]
 473 000a 93F83E30 		ldrb	r3, [r3, #62]
 474 000e FB73     		strb	r3, [r7, #15]
 318:Drivers/STM32F4xx_HAL_Driver/Src/stm32f4xx_hal_tim_ex.c ****   HAL_TIM_ChannelStateTypeDef channel_2_state = TIM_CHANNEL_STATE_GET(htim, TIM_CHANNEL_2);
 475              		.loc 1 318 31
 476 0010 7B68     		ldr	r3, [r7, #4]
 477 0012 93F83F30 		ldrb	r3, [r3, #63]
 478 0016 BB73     		strb	r3, [r7, #14]
 319:Drivers/STM32F4xx_HAL_Driver/Src/stm32f4xx_hal_tim_ex.c ****   HAL_TIM_ChannelStateTypeDef complementary_channel_1_state = TIM_CHANNEL_N_STATE_GET(htim, TIM_CHA
 479              		.loc 1 319 31
 480 0018 7B68     		ldr	r3, [r7, #4]
 481 001a 93F84230 		ldrb	r3, [r3, #66]
 482 001e 7B73     		strb	r3, [r7, #13]
 320:Drivers/STM32F4xx_HAL_Driver/Src/stm32f4xx_hal_tim_ex.c ****   HAL_TIM_ChannelStateTypeDef complementary_channel_2_state = TIM_CHANNEL_N_STATE_GET(htim, TIM_CHA
 483              		.loc 1 320 31
 484 0020 7B68     		ldr	r3, [r7, #4]
 485 0022 93F84330 		ldrb	r3, [r3, #67]
 486 0026 3B73     		strb	r3, [r7, #12]
 321:Drivers/STM32F4xx_HAL_Driver/Src/stm32f4xx_hal_tim_ex.c **** 
ARM GAS  C:\Users\DAELT-~1\AppData\Local\Temp\cc2rhEX6.s 			page 15


 322:Drivers/STM32F4xx_HAL_Driver/Src/stm32f4xx_hal_tim_ex.c ****   /* Check the parameters */
 323:Drivers/STM32F4xx_HAL_Driver/Src/stm32f4xx_hal_tim_ex.c ****   assert_param(IS_TIM_HALL_SENSOR_INTERFACE_INSTANCE(htim->Instance));
 324:Drivers/STM32F4xx_HAL_Driver/Src/stm32f4xx_hal_tim_ex.c **** 
 325:Drivers/STM32F4xx_HAL_Driver/Src/stm32f4xx_hal_tim_ex.c ****   /* Check the TIM channels state */
 326:Drivers/STM32F4xx_HAL_Driver/Src/stm32f4xx_hal_tim_ex.c ****   if ((channel_1_state != HAL_TIM_CHANNEL_STATE_READY)
 487              		.loc 1 326 6
 488 0028 FB7B     		ldrb	r3, [r7, #15]	@ zero_extendqisi2
 489 002a 012B     		cmp	r3, #1
 490 002c 08D1     		bne	.L12
 327:Drivers/STM32F4xx_HAL_Driver/Src/stm32f4xx_hal_tim_ex.c ****       || (channel_2_state != HAL_TIM_CHANNEL_STATE_READY)
 491              		.loc 1 327 7
 492 002e BB7B     		ldrb	r3, [r7, #14]	@ zero_extendqisi2
 493 0030 012B     		cmp	r3, #1
 494 0032 05D1     		bne	.L12
 328:Drivers/STM32F4xx_HAL_Driver/Src/stm32f4xx_hal_tim_ex.c ****       || (complementary_channel_1_state != HAL_TIM_CHANNEL_STATE_READY)
 495              		.loc 1 328 7
 496 0034 7B7B     		ldrb	r3, [r7, #13]	@ zero_extendqisi2
 497 0036 012B     		cmp	r3, #1
 498 0038 02D1     		bne	.L12
 329:Drivers/STM32F4xx_HAL_Driver/Src/stm32f4xx_hal_tim_ex.c ****       || (complementary_channel_2_state != HAL_TIM_CHANNEL_STATE_READY))
 499              		.loc 1 329 7
 500 003a 3B7B     		ldrb	r3, [r7, #12]	@ zero_extendqisi2
 501 003c 012B     		cmp	r3, #1
 502 003e 01D0     		beq	.L13
 503              	.L12:
 330:Drivers/STM32F4xx_HAL_Driver/Src/stm32f4xx_hal_tim_ex.c ****   {
 331:Drivers/STM32F4xx_HAL_Driver/Src/stm32f4xx_hal_tim_ex.c ****     return HAL_ERROR;
 504              		.loc 1 331 12
 505 0040 0123     		movs	r3, #1
 506 0042 4FE0     		b	.L14
 507              	.L13:
 332:Drivers/STM32F4xx_HAL_Driver/Src/stm32f4xx_hal_tim_ex.c ****   }
 333:Drivers/STM32F4xx_HAL_Driver/Src/stm32f4xx_hal_tim_ex.c **** 
 334:Drivers/STM32F4xx_HAL_Driver/Src/stm32f4xx_hal_tim_ex.c ****   /* Set the TIM channels state */
 335:Drivers/STM32F4xx_HAL_Driver/Src/stm32f4xx_hal_tim_ex.c ****   TIM_CHANNEL_STATE_SET(htim, TIM_CHANNEL_1, HAL_TIM_CHANNEL_STATE_BUSY);
 508              		.loc 1 335 3
 509 0044 7B68     		ldr	r3, [r7, #4]
 510 0046 0222     		movs	r2, #2
 511 0048 83F83E20 		strb	r2, [r3, #62]
 336:Drivers/STM32F4xx_HAL_Driver/Src/stm32f4xx_hal_tim_ex.c ****   TIM_CHANNEL_STATE_SET(htim, TIM_CHANNEL_2, HAL_TIM_CHANNEL_STATE_BUSY);
 512              		.loc 1 336 3
 513 004c 7B68     		ldr	r3, [r7, #4]
 514 004e 0222     		movs	r2, #2
 515 0050 83F83F20 		strb	r2, [r3, #63]
 337:Drivers/STM32F4xx_HAL_Driver/Src/stm32f4xx_hal_tim_ex.c ****   TIM_CHANNEL_N_STATE_SET(htim, TIM_CHANNEL_1, HAL_TIM_CHANNEL_STATE_BUSY);
 516              		.loc 1 337 3
 517 0054 7B68     		ldr	r3, [r7, #4]
 518 0056 0222     		movs	r2, #2
 519 0058 83F84220 		strb	r2, [r3, #66]
 338:Drivers/STM32F4xx_HAL_Driver/Src/stm32f4xx_hal_tim_ex.c ****   TIM_CHANNEL_N_STATE_SET(htim, TIM_CHANNEL_2, HAL_TIM_CHANNEL_STATE_BUSY);
 520              		.loc 1 338 3
 521 005c 7B68     		ldr	r3, [r7, #4]
 522 005e 0222     		movs	r2, #2
 523 0060 83F84320 		strb	r2, [r3, #67]
 339:Drivers/STM32F4xx_HAL_Driver/Src/stm32f4xx_hal_tim_ex.c **** 
 340:Drivers/STM32F4xx_HAL_Driver/Src/stm32f4xx_hal_tim_ex.c ****   /* Enable the Input Capture channel 1
 341:Drivers/STM32F4xx_HAL_Driver/Src/stm32f4xx_hal_tim_ex.c ****   (in the Hall Sensor Interface the three possible channels that can be used are TIM_CHANNEL_1,
ARM GAS  C:\Users\DAELT-~1\AppData\Local\Temp\cc2rhEX6.s 			page 16


 342:Drivers/STM32F4xx_HAL_Driver/Src/stm32f4xx_hal_tim_ex.c ****   TIM_CHANNEL_2 and TIM_CHANNEL_3) */
 343:Drivers/STM32F4xx_HAL_Driver/Src/stm32f4xx_hal_tim_ex.c ****   TIM_CCxChannelCmd(htim->Instance, TIM_CHANNEL_1, TIM_CCx_ENABLE);
 524              		.loc 1 343 3
 525 0064 7B68     		ldr	r3, [r7, #4]
 526 0066 1B68     		ldr	r3, [r3]
 527 0068 0122     		movs	r2, #1
 528 006a 0021     		movs	r1, #0
 529 006c 1846     		mov	r0, r3
 530 006e FFF7FEFF 		bl	TIM_CCxChannelCmd
 344:Drivers/STM32F4xx_HAL_Driver/Src/stm32f4xx_hal_tim_ex.c **** 
 345:Drivers/STM32F4xx_HAL_Driver/Src/stm32f4xx_hal_tim_ex.c ****   /* Enable the Peripheral, except in trigger mode where enable is automatically done with trigger 
 346:Drivers/STM32F4xx_HAL_Driver/Src/stm32f4xx_hal_tim_ex.c ****   if (IS_TIM_SLAVE_INSTANCE(htim->Instance))
 531              		.loc 1 346 7
 532 0072 7B68     		ldr	r3, [r7, #4]
 533 0074 1B68     		ldr	r3, [r3]
 534              		.loc 1 346 6
 535 0076 1D4A     		ldr	r2, .L19
 536 0078 9342     		cmp	r3, r2
 537 007a 18D0     		beq	.L15
 538              		.loc 1 346 7 discriminator 1
 539 007c 7B68     		ldr	r3, [r7, #4]
 540 007e 1B68     		ldr	r3, [r3]
 541 0080 B3F1804F 		cmp	r3, #1073741824
 542 0084 13D0     		beq	.L15
 543              		.loc 1 346 7 is_stmt 0 discriminator 2
 544 0086 7B68     		ldr	r3, [r7, #4]
 545 0088 1B68     		ldr	r3, [r3]
 546 008a 194A     		ldr	r2, .L19+4
 547 008c 9342     		cmp	r3, r2
 548 008e 0ED0     		beq	.L15
 549              		.loc 1 346 7 discriminator 3
 550 0090 7B68     		ldr	r3, [r7, #4]
 551 0092 1B68     		ldr	r3, [r3]
 552 0094 174A     		ldr	r2, .L19+8
 553 0096 9342     		cmp	r3, r2
 554 0098 09D0     		beq	.L15
 555              		.loc 1 346 7 discriminator 4
 556 009a 7B68     		ldr	r3, [r7, #4]
 557 009c 1B68     		ldr	r3, [r3]
 558 009e 164A     		ldr	r2, .L19+12
 559 00a0 9342     		cmp	r3, r2
 560 00a2 04D0     		beq	.L15
 561              		.loc 1 346 7 discriminator 5
 562 00a4 7B68     		ldr	r3, [r7, #4]
 563 00a6 1B68     		ldr	r3, [r3]
 564 00a8 144A     		ldr	r2, .L19+16
 565 00aa 9342     		cmp	r3, r2
 566 00ac 11D1     		bne	.L16
 567              	.L15:
 347:Drivers/STM32F4xx_HAL_Driver/Src/stm32f4xx_hal_tim_ex.c ****   {
 348:Drivers/STM32F4xx_HAL_Driver/Src/stm32f4xx_hal_tim_ex.c ****     tmpsmcr = htim->Instance->SMCR & TIM_SMCR_SMS;
 568              		.loc 1 348 19 is_stmt 1
 569 00ae 7B68     		ldr	r3, [r7, #4]
 570 00b0 1B68     		ldr	r3, [r3]
 571              		.loc 1 348 29
 572 00b2 9B68     		ldr	r3, [r3, #8]
 573              		.loc 1 348 13
ARM GAS  C:\Users\DAELT-~1\AppData\Local\Temp\cc2rhEX6.s 			page 17


 574 00b4 03F00703 		and	r3, r3, #7
 575 00b8 BB60     		str	r3, [r7, #8]
 349:Drivers/STM32F4xx_HAL_Driver/Src/stm32f4xx_hal_tim_ex.c ****     if (!IS_TIM_SLAVEMODE_TRIGGER_ENABLED(tmpsmcr))
 576              		.loc 1 349 8
 577 00ba BB68     		ldr	r3, [r7, #8]
 578 00bc 062B     		cmp	r3, #6
 579 00be 10D0     		beq	.L18
 350:Drivers/STM32F4xx_HAL_Driver/Src/stm32f4xx_hal_tim_ex.c ****     {
 351:Drivers/STM32F4xx_HAL_Driver/Src/stm32f4xx_hal_tim_ex.c ****       __HAL_TIM_ENABLE(htim);
 580              		.loc 1 351 7
 581 00c0 7B68     		ldr	r3, [r7, #4]
 582 00c2 1B68     		ldr	r3, [r3]
 583 00c4 1A68     		ldr	r2, [r3]
 584 00c6 7B68     		ldr	r3, [r7, #4]
 585 00c8 1B68     		ldr	r3, [r3]
 586 00ca 42F00102 		orr	r2, r2, #1
 587 00ce 1A60     		str	r2, [r3]
 349:Drivers/STM32F4xx_HAL_Driver/Src/stm32f4xx_hal_tim_ex.c ****     if (!IS_TIM_SLAVEMODE_TRIGGER_ENABLED(tmpsmcr))
 588              		.loc 1 349 8
 589 00d0 07E0     		b	.L18
 590              	.L16:
 352:Drivers/STM32F4xx_HAL_Driver/Src/stm32f4xx_hal_tim_ex.c ****     }
 353:Drivers/STM32F4xx_HAL_Driver/Src/stm32f4xx_hal_tim_ex.c ****   }
 354:Drivers/STM32F4xx_HAL_Driver/Src/stm32f4xx_hal_tim_ex.c ****   else
 355:Drivers/STM32F4xx_HAL_Driver/Src/stm32f4xx_hal_tim_ex.c ****   {
 356:Drivers/STM32F4xx_HAL_Driver/Src/stm32f4xx_hal_tim_ex.c ****     __HAL_TIM_ENABLE(htim);
 591              		.loc 1 356 5
 592 00d2 7B68     		ldr	r3, [r7, #4]
 593 00d4 1B68     		ldr	r3, [r3]
 594 00d6 1A68     		ldr	r2, [r3]
 595 00d8 7B68     		ldr	r3, [r7, #4]
 596 00da 1B68     		ldr	r3, [r3]
 597 00dc 42F00102 		orr	r2, r2, #1
 598 00e0 1A60     		str	r2, [r3]
 599              	.L18:
 357:Drivers/STM32F4xx_HAL_Driver/Src/stm32f4xx_hal_tim_ex.c ****   }
 358:Drivers/STM32F4xx_HAL_Driver/Src/stm32f4xx_hal_tim_ex.c **** 
 359:Drivers/STM32F4xx_HAL_Driver/Src/stm32f4xx_hal_tim_ex.c ****   /* Return function status */
 360:Drivers/STM32F4xx_HAL_Driver/Src/stm32f4xx_hal_tim_ex.c ****   return HAL_OK;
 600              		.loc 1 360 10
 601 00e2 0023     		movs	r3, #0
 602              	.L14:
 361:Drivers/STM32F4xx_HAL_Driver/Src/stm32f4xx_hal_tim_ex.c **** }
 603              		.loc 1 361 1
 604 00e4 1846     		mov	r0, r3
 605 00e6 1037     		adds	r7, r7, #16
 606              	.LCFI25:
 607              		.cfi_def_cfa_offset 8
 608 00e8 BD46     		mov	sp, r7
 609              	.LCFI26:
 610              		.cfi_def_cfa_register 13
 611              		@ sp needed
 612 00ea 80BD     		pop	{r7, pc}
 613              	.L20:
 614              		.align	2
 615              	.L19:
 616 00ec 00000140 		.word	1073807360
ARM GAS  C:\Users\DAELT-~1\AppData\Local\Temp\cc2rhEX6.s 			page 18


 617 00f0 00040040 		.word	1073742848
 618 00f4 00080040 		.word	1073743872
 619 00f8 000C0040 		.word	1073744896
 620 00fc 00400140 		.word	1073823744
 621              		.cfi_endproc
 622              	.LFE134:
 624              		.section	.text.HAL_TIMEx_HallSensor_Stop,"ax",%progbits
 625              		.align	1
 626              		.global	HAL_TIMEx_HallSensor_Stop
 627              		.syntax unified
 628              		.thumb
 629              		.thumb_func
 631              	HAL_TIMEx_HallSensor_Stop:
 632              	.LFB135:
 362:Drivers/STM32F4xx_HAL_Driver/Src/stm32f4xx_hal_tim_ex.c **** 
 363:Drivers/STM32F4xx_HAL_Driver/Src/stm32f4xx_hal_tim_ex.c **** /**
 364:Drivers/STM32F4xx_HAL_Driver/Src/stm32f4xx_hal_tim_ex.c ****   * @brief  Stops the TIM Hall sensor Interface.
 365:Drivers/STM32F4xx_HAL_Driver/Src/stm32f4xx_hal_tim_ex.c ****   * @param  htim TIM Hall Sensor Interface handle
 366:Drivers/STM32F4xx_HAL_Driver/Src/stm32f4xx_hal_tim_ex.c ****   * @retval HAL status
 367:Drivers/STM32F4xx_HAL_Driver/Src/stm32f4xx_hal_tim_ex.c ****   */
 368:Drivers/STM32F4xx_HAL_Driver/Src/stm32f4xx_hal_tim_ex.c **** HAL_StatusTypeDef HAL_TIMEx_HallSensor_Stop(TIM_HandleTypeDef *htim)
 369:Drivers/STM32F4xx_HAL_Driver/Src/stm32f4xx_hal_tim_ex.c **** {
 633              		.loc 1 369 1
 634              		.cfi_startproc
 635              		@ args = 0, pretend = 0, frame = 8
 636              		@ frame_needed = 1, uses_anonymous_args = 0
 637 0000 80B5     		push	{r7, lr}
 638              	.LCFI27:
 639              		.cfi_def_cfa_offset 8
 640              		.cfi_offset 7, -8
 641              		.cfi_offset 14, -4
 642 0002 82B0     		sub	sp, sp, #8
 643              	.LCFI28:
 644              		.cfi_def_cfa_offset 16
 645 0004 00AF     		add	r7, sp, #0
 646              	.LCFI29:
 647              		.cfi_def_cfa_register 7
 648 0006 7860     		str	r0, [r7, #4]
 370:Drivers/STM32F4xx_HAL_Driver/Src/stm32f4xx_hal_tim_ex.c ****   /* Check the parameters */
 371:Drivers/STM32F4xx_HAL_Driver/Src/stm32f4xx_hal_tim_ex.c ****   assert_param(IS_TIM_HALL_SENSOR_INTERFACE_INSTANCE(htim->Instance));
 372:Drivers/STM32F4xx_HAL_Driver/Src/stm32f4xx_hal_tim_ex.c **** 
 373:Drivers/STM32F4xx_HAL_Driver/Src/stm32f4xx_hal_tim_ex.c ****   /* Disable the Input Capture channels 1, 2 and 3
 374:Drivers/STM32F4xx_HAL_Driver/Src/stm32f4xx_hal_tim_ex.c ****   (in the Hall Sensor Interface the three possible channels that can be used are TIM_CHANNEL_1,
 375:Drivers/STM32F4xx_HAL_Driver/Src/stm32f4xx_hal_tim_ex.c ****   TIM_CHANNEL_2 and TIM_CHANNEL_3) */
 376:Drivers/STM32F4xx_HAL_Driver/Src/stm32f4xx_hal_tim_ex.c ****   TIM_CCxChannelCmd(htim->Instance, TIM_CHANNEL_1, TIM_CCx_DISABLE);
 649              		.loc 1 376 3
 650 0008 7B68     		ldr	r3, [r7, #4]
 651 000a 1B68     		ldr	r3, [r3]
 652 000c 0022     		movs	r2, #0
 653 000e 0021     		movs	r1, #0
 654 0010 1846     		mov	r0, r3
 655 0012 FFF7FEFF 		bl	TIM_CCxChannelCmd
 377:Drivers/STM32F4xx_HAL_Driver/Src/stm32f4xx_hal_tim_ex.c **** 
 378:Drivers/STM32F4xx_HAL_Driver/Src/stm32f4xx_hal_tim_ex.c ****   /* Disable the Peripheral */
 379:Drivers/STM32F4xx_HAL_Driver/Src/stm32f4xx_hal_tim_ex.c ****   __HAL_TIM_DISABLE(htim);
 656              		.loc 1 379 3
 657 0016 7B68     		ldr	r3, [r7, #4]
ARM GAS  C:\Users\DAELT-~1\AppData\Local\Temp\cc2rhEX6.s 			page 19


 658 0018 1B68     		ldr	r3, [r3]
 659 001a 1A6A     		ldr	r2, [r3, #32]
 660 001c 41F21113 		movw	r3, #4369
 661 0020 1340     		ands	r3, r3, r2
 662 0022 002B     		cmp	r3, #0
 663 0024 0FD1     		bne	.L22
 664              		.loc 1 379 3 is_stmt 0 discriminator 1
 665 0026 7B68     		ldr	r3, [r7, #4]
 666 0028 1B68     		ldr	r3, [r3]
 667 002a 1A6A     		ldr	r2, [r3, #32]
 668 002c 40F24443 		movw	r3, #1092
 669 0030 1340     		ands	r3, r3, r2
 670 0032 002B     		cmp	r3, #0
 671 0034 07D1     		bne	.L22
 672              		.loc 1 379 3 discriminator 2
 673 0036 7B68     		ldr	r3, [r7, #4]
 674 0038 1B68     		ldr	r3, [r3]
 675 003a 1A68     		ldr	r2, [r3]
 676 003c 7B68     		ldr	r3, [r7, #4]
 677 003e 1B68     		ldr	r3, [r3]
 678 0040 22F00102 		bic	r2, r2, #1
 679 0044 1A60     		str	r2, [r3]
 680              	.L22:
 380:Drivers/STM32F4xx_HAL_Driver/Src/stm32f4xx_hal_tim_ex.c **** 
 381:Drivers/STM32F4xx_HAL_Driver/Src/stm32f4xx_hal_tim_ex.c ****   /* Set the TIM channels state */
 382:Drivers/STM32F4xx_HAL_Driver/Src/stm32f4xx_hal_tim_ex.c ****   TIM_CHANNEL_STATE_SET(htim, TIM_CHANNEL_1, HAL_TIM_CHANNEL_STATE_READY);
 681              		.loc 1 382 3 is_stmt 1
 682 0046 7B68     		ldr	r3, [r7, #4]
 683 0048 0122     		movs	r2, #1
 684 004a 83F83E20 		strb	r2, [r3, #62]
 383:Drivers/STM32F4xx_HAL_Driver/Src/stm32f4xx_hal_tim_ex.c ****   TIM_CHANNEL_STATE_SET(htim, TIM_CHANNEL_2, HAL_TIM_CHANNEL_STATE_READY);
 685              		.loc 1 383 3
 686 004e 7B68     		ldr	r3, [r7, #4]
 687 0050 0122     		movs	r2, #1
 688 0052 83F83F20 		strb	r2, [r3, #63]
 384:Drivers/STM32F4xx_HAL_Driver/Src/stm32f4xx_hal_tim_ex.c ****   TIM_CHANNEL_N_STATE_SET(htim, TIM_CHANNEL_1, HAL_TIM_CHANNEL_STATE_READY);
 689              		.loc 1 384 3
 690 0056 7B68     		ldr	r3, [r7, #4]
 691 0058 0122     		movs	r2, #1
 692 005a 83F84220 		strb	r2, [r3, #66]
 385:Drivers/STM32F4xx_HAL_Driver/Src/stm32f4xx_hal_tim_ex.c ****   TIM_CHANNEL_N_STATE_SET(htim, TIM_CHANNEL_2, HAL_TIM_CHANNEL_STATE_READY);
 693              		.loc 1 385 3
 694 005e 7B68     		ldr	r3, [r7, #4]
 695 0060 0122     		movs	r2, #1
 696 0062 83F84320 		strb	r2, [r3, #67]
 386:Drivers/STM32F4xx_HAL_Driver/Src/stm32f4xx_hal_tim_ex.c **** 
 387:Drivers/STM32F4xx_HAL_Driver/Src/stm32f4xx_hal_tim_ex.c ****   /* Return function status */
 388:Drivers/STM32F4xx_HAL_Driver/Src/stm32f4xx_hal_tim_ex.c ****   return HAL_OK;
 697              		.loc 1 388 10
 698 0066 0023     		movs	r3, #0
 389:Drivers/STM32F4xx_HAL_Driver/Src/stm32f4xx_hal_tim_ex.c **** }
 699              		.loc 1 389 1
 700 0068 1846     		mov	r0, r3
 701 006a 0837     		adds	r7, r7, #8
 702              	.LCFI30:
 703              		.cfi_def_cfa_offset 8
 704 006c BD46     		mov	sp, r7
ARM GAS  C:\Users\DAELT-~1\AppData\Local\Temp\cc2rhEX6.s 			page 20


 705              	.LCFI31:
 706              		.cfi_def_cfa_register 13
 707              		@ sp needed
 708 006e 80BD     		pop	{r7, pc}
 709              		.cfi_endproc
 710              	.LFE135:
 712              		.section	.text.HAL_TIMEx_HallSensor_Start_IT,"ax",%progbits
 713              		.align	1
 714              		.global	HAL_TIMEx_HallSensor_Start_IT
 715              		.syntax unified
 716              		.thumb
 717              		.thumb_func
 719              	HAL_TIMEx_HallSensor_Start_IT:
 720              	.LFB136:
 390:Drivers/STM32F4xx_HAL_Driver/Src/stm32f4xx_hal_tim_ex.c **** 
 391:Drivers/STM32F4xx_HAL_Driver/Src/stm32f4xx_hal_tim_ex.c **** /**
 392:Drivers/STM32F4xx_HAL_Driver/Src/stm32f4xx_hal_tim_ex.c ****   * @brief  Starts the TIM Hall Sensor Interface in interrupt mode.
 393:Drivers/STM32F4xx_HAL_Driver/Src/stm32f4xx_hal_tim_ex.c ****   * @param  htim TIM Hall Sensor Interface handle
 394:Drivers/STM32F4xx_HAL_Driver/Src/stm32f4xx_hal_tim_ex.c ****   * @retval HAL status
 395:Drivers/STM32F4xx_HAL_Driver/Src/stm32f4xx_hal_tim_ex.c ****   */
 396:Drivers/STM32F4xx_HAL_Driver/Src/stm32f4xx_hal_tim_ex.c **** HAL_StatusTypeDef HAL_TIMEx_HallSensor_Start_IT(TIM_HandleTypeDef *htim)
 397:Drivers/STM32F4xx_HAL_Driver/Src/stm32f4xx_hal_tim_ex.c **** {
 721              		.loc 1 397 1
 722              		.cfi_startproc
 723              		@ args = 0, pretend = 0, frame = 16
 724              		@ frame_needed = 1, uses_anonymous_args = 0
 725 0000 80B5     		push	{r7, lr}
 726              	.LCFI32:
 727              		.cfi_def_cfa_offset 8
 728              		.cfi_offset 7, -8
 729              		.cfi_offset 14, -4
 730 0002 84B0     		sub	sp, sp, #16
 731              	.LCFI33:
 732              		.cfi_def_cfa_offset 24
 733 0004 00AF     		add	r7, sp, #0
 734              	.LCFI34:
 735              		.cfi_def_cfa_register 7
 736 0006 7860     		str	r0, [r7, #4]
 398:Drivers/STM32F4xx_HAL_Driver/Src/stm32f4xx_hal_tim_ex.c ****   uint32_t tmpsmcr;
 399:Drivers/STM32F4xx_HAL_Driver/Src/stm32f4xx_hal_tim_ex.c ****   HAL_TIM_ChannelStateTypeDef channel_1_state = TIM_CHANNEL_STATE_GET(htim, TIM_CHANNEL_1);
 737              		.loc 1 399 31
 738 0008 7B68     		ldr	r3, [r7, #4]
 739 000a 93F83E30 		ldrb	r3, [r3, #62]
 740 000e FB73     		strb	r3, [r7, #15]
 400:Drivers/STM32F4xx_HAL_Driver/Src/stm32f4xx_hal_tim_ex.c ****   HAL_TIM_ChannelStateTypeDef channel_2_state = TIM_CHANNEL_STATE_GET(htim, TIM_CHANNEL_2);
 741              		.loc 1 400 31
 742 0010 7B68     		ldr	r3, [r7, #4]
 743 0012 93F83F30 		ldrb	r3, [r3, #63]
 744 0016 BB73     		strb	r3, [r7, #14]
 401:Drivers/STM32F4xx_HAL_Driver/Src/stm32f4xx_hal_tim_ex.c ****   HAL_TIM_ChannelStateTypeDef complementary_channel_1_state = TIM_CHANNEL_N_STATE_GET(htim, TIM_CHA
 745              		.loc 1 401 31
 746 0018 7B68     		ldr	r3, [r7, #4]
 747 001a 93F84230 		ldrb	r3, [r3, #66]
 748 001e 7B73     		strb	r3, [r7, #13]
 402:Drivers/STM32F4xx_HAL_Driver/Src/stm32f4xx_hal_tim_ex.c ****   HAL_TIM_ChannelStateTypeDef complementary_channel_2_state = TIM_CHANNEL_N_STATE_GET(htim, TIM_CHA
 749              		.loc 1 402 31
 750 0020 7B68     		ldr	r3, [r7, #4]
ARM GAS  C:\Users\DAELT-~1\AppData\Local\Temp\cc2rhEX6.s 			page 21


 751 0022 93F84330 		ldrb	r3, [r3, #67]
 752 0026 3B73     		strb	r3, [r7, #12]
 403:Drivers/STM32F4xx_HAL_Driver/Src/stm32f4xx_hal_tim_ex.c **** 
 404:Drivers/STM32F4xx_HAL_Driver/Src/stm32f4xx_hal_tim_ex.c ****   /* Check the parameters */
 405:Drivers/STM32F4xx_HAL_Driver/Src/stm32f4xx_hal_tim_ex.c ****   assert_param(IS_TIM_HALL_SENSOR_INTERFACE_INSTANCE(htim->Instance));
 406:Drivers/STM32F4xx_HAL_Driver/Src/stm32f4xx_hal_tim_ex.c **** 
 407:Drivers/STM32F4xx_HAL_Driver/Src/stm32f4xx_hal_tim_ex.c ****   /* Check the TIM channels state */
 408:Drivers/STM32F4xx_HAL_Driver/Src/stm32f4xx_hal_tim_ex.c ****   if ((channel_1_state != HAL_TIM_CHANNEL_STATE_READY)
 753              		.loc 1 408 6
 754 0028 FB7B     		ldrb	r3, [r7, #15]	@ zero_extendqisi2
 755 002a 012B     		cmp	r3, #1
 756 002c 08D1     		bne	.L25
 409:Drivers/STM32F4xx_HAL_Driver/Src/stm32f4xx_hal_tim_ex.c ****       || (channel_2_state != HAL_TIM_CHANNEL_STATE_READY)
 757              		.loc 1 409 7
 758 002e BB7B     		ldrb	r3, [r7, #14]	@ zero_extendqisi2
 759 0030 012B     		cmp	r3, #1
 760 0032 05D1     		bne	.L25
 410:Drivers/STM32F4xx_HAL_Driver/Src/stm32f4xx_hal_tim_ex.c ****       || (complementary_channel_1_state != HAL_TIM_CHANNEL_STATE_READY)
 761              		.loc 1 410 7
 762 0034 7B7B     		ldrb	r3, [r7, #13]	@ zero_extendqisi2
 763 0036 012B     		cmp	r3, #1
 764 0038 02D1     		bne	.L25
 411:Drivers/STM32F4xx_HAL_Driver/Src/stm32f4xx_hal_tim_ex.c ****       || (complementary_channel_2_state != HAL_TIM_CHANNEL_STATE_READY))
 765              		.loc 1 411 7
 766 003a 3B7B     		ldrb	r3, [r7, #12]	@ zero_extendqisi2
 767 003c 012B     		cmp	r3, #1
 768 003e 01D0     		beq	.L26
 769              	.L25:
 412:Drivers/STM32F4xx_HAL_Driver/Src/stm32f4xx_hal_tim_ex.c ****   {
 413:Drivers/STM32F4xx_HAL_Driver/Src/stm32f4xx_hal_tim_ex.c ****     return HAL_ERROR;
 770              		.loc 1 413 12
 771 0040 0123     		movs	r3, #1
 772 0042 57E0     		b	.L27
 773              	.L26:
 414:Drivers/STM32F4xx_HAL_Driver/Src/stm32f4xx_hal_tim_ex.c ****   }
 415:Drivers/STM32F4xx_HAL_Driver/Src/stm32f4xx_hal_tim_ex.c **** 
 416:Drivers/STM32F4xx_HAL_Driver/Src/stm32f4xx_hal_tim_ex.c ****   /* Set the TIM channels state */
 417:Drivers/STM32F4xx_HAL_Driver/Src/stm32f4xx_hal_tim_ex.c ****   TIM_CHANNEL_STATE_SET(htim, TIM_CHANNEL_1, HAL_TIM_CHANNEL_STATE_BUSY);
 774              		.loc 1 417 3
 775 0044 7B68     		ldr	r3, [r7, #4]
 776 0046 0222     		movs	r2, #2
 777 0048 83F83E20 		strb	r2, [r3, #62]
 418:Drivers/STM32F4xx_HAL_Driver/Src/stm32f4xx_hal_tim_ex.c ****   TIM_CHANNEL_STATE_SET(htim, TIM_CHANNEL_2, HAL_TIM_CHANNEL_STATE_BUSY);
 778              		.loc 1 418 3
 779 004c 7B68     		ldr	r3, [r7, #4]
 780 004e 0222     		movs	r2, #2
 781 0050 83F83F20 		strb	r2, [r3, #63]
 419:Drivers/STM32F4xx_HAL_Driver/Src/stm32f4xx_hal_tim_ex.c ****   TIM_CHANNEL_N_STATE_SET(htim, TIM_CHANNEL_1, HAL_TIM_CHANNEL_STATE_BUSY);
 782              		.loc 1 419 3
 783 0054 7B68     		ldr	r3, [r7, #4]
 784 0056 0222     		movs	r2, #2
 785 0058 83F84220 		strb	r2, [r3, #66]
 420:Drivers/STM32F4xx_HAL_Driver/Src/stm32f4xx_hal_tim_ex.c ****   TIM_CHANNEL_N_STATE_SET(htim, TIM_CHANNEL_2, HAL_TIM_CHANNEL_STATE_BUSY);
 786              		.loc 1 420 3
 787 005c 7B68     		ldr	r3, [r7, #4]
 788 005e 0222     		movs	r2, #2
 789 0060 83F84320 		strb	r2, [r3, #67]
ARM GAS  C:\Users\DAELT-~1\AppData\Local\Temp\cc2rhEX6.s 			page 22


 421:Drivers/STM32F4xx_HAL_Driver/Src/stm32f4xx_hal_tim_ex.c **** 
 422:Drivers/STM32F4xx_HAL_Driver/Src/stm32f4xx_hal_tim_ex.c ****   /* Enable the capture compare Interrupts 1 event */
 423:Drivers/STM32F4xx_HAL_Driver/Src/stm32f4xx_hal_tim_ex.c ****   __HAL_TIM_ENABLE_IT(htim, TIM_IT_CC1);
 790              		.loc 1 423 3
 791 0064 7B68     		ldr	r3, [r7, #4]
 792 0066 1B68     		ldr	r3, [r3]
 793 0068 DA68     		ldr	r2, [r3, #12]
 794 006a 7B68     		ldr	r3, [r7, #4]
 795 006c 1B68     		ldr	r3, [r3]
 796 006e 42F00202 		orr	r2, r2, #2
 797 0072 DA60     		str	r2, [r3, #12]
 424:Drivers/STM32F4xx_HAL_Driver/Src/stm32f4xx_hal_tim_ex.c **** 
 425:Drivers/STM32F4xx_HAL_Driver/Src/stm32f4xx_hal_tim_ex.c ****   /* Enable the Input Capture channel 1
 426:Drivers/STM32F4xx_HAL_Driver/Src/stm32f4xx_hal_tim_ex.c ****   (in the Hall Sensor Interface the three possible channels that can be used are TIM_CHANNEL_1,
 427:Drivers/STM32F4xx_HAL_Driver/Src/stm32f4xx_hal_tim_ex.c ****   TIM_CHANNEL_2 and TIM_CHANNEL_3) */
 428:Drivers/STM32F4xx_HAL_Driver/Src/stm32f4xx_hal_tim_ex.c ****   TIM_CCxChannelCmd(htim->Instance, TIM_CHANNEL_1, TIM_CCx_ENABLE);
 798              		.loc 1 428 3
 799 0074 7B68     		ldr	r3, [r7, #4]
 800 0076 1B68     		ldr	r3, [r3]
 801 0078 0122     		movs	r2, #1
 802 007a 0021     		movs	r1, #0
 803 007c 1846     		mov	r0, r3
 804 007e FFF7FEFF 		bl	TIM_CCxChannelCmd
 429:Drivers/STM32F4xx_HAL_Driver/Src/stm32f4xx_hal_tim_ex.c **** 
 430:Drivers/STM32F4xx_HAL_Driver/Src/stm32f4xx_hal_tim_ex.c ****   /* Enable the Peripheral, except in trigger mode where enable is automatically done with trigger 
 431:Drivers/STM32F4xx_HAL_Driver/Src/stm32f4xx_hal_tim_ex.c ****   if (IS_TIM_SLAVE_INSTANCE(htim->Instance))
 805              		.loc 1 431 7
 806 0082 7B68     		ldr	r3, [r7, #4]
 807 0084 1B68     		ldr	r3, [r3]
 808              		.loc 1 431 6
 809 0086 1D4A     		ldr	r2, .L32
 810 0088 9342     		cmp	r3, r2
 811 008a 18D0     		beq	.L28
 812              		.loc 1 431 7 discriminator 1
 813 008c 7B68     		ldr	r3, [r7, #4]
 814 008e 1B68     		ldr	r3, [r3]
 815 0090 B3F1804F 		cmp	r3, #1073741824
 816 0094 13D0     		beq	.L28
 817              		.loc 1 431 7 is_stmt 0 discriminator 2
 818 0096 7B68     		ldr	r3, [r7, #4]
 819 0098 1B68     		ldr	r3, [r3]
 820 009a 194A     		ldr	r2, .L32+4
 821 009c 9342     		cmp	r3, r2
 822 009e 0ED0     		beq	.L28
 823              		.loc 1 431 7 discriminator 3
 824 00a0 7B68     		ldr	r3, [r7, #4]
 825 00a2 1B68     		ldr	r3, [r3]
 826 00a4 174A     		ldr	r2, .L32+8
 827 00a6 9342     		cmp	r3, r2
 828 00a8 09D0     		beq	.L28
 829              		.loc 1 431 7 discriminator 4
 830 00aa 7B68     		ldr	r3, [r7, #4]
 831 00ac 1B68     		ldr	r3, [r3]
 832 00ae 164A     		ldr	r2, .L32+12
 833 00b0 9342     		cmp	r3, r2
 834 00b2 04D0     		beq	.L28
 835              		.loc 1 431 7 discriminator 5
ARM GAS  C:\Users\DAELT-~1\AppData\Local\Temp\cc2rhEX6.s 			page 23


 836 00b4 7B68     		ldr	r3, [r7, #4]
 837 00b6 1B68     		ldr	r3, [r3]
 838 00b8 144A     		ldr	r2, .L32+16
 839 00ba 9342     		cmp	r3, r2
 840 00bc 11D1     		bne	.L29
 841              	.L28:
 432:Drivers/STM32F4xx_HAL_Driver/Src/stm32f4xx_hal_tim_ex.c ****   {
 433:Drivers/STM32F4xx_HAL_Driver/Src/stm32f4xx_hal_tim_ex.c ****     tmpsmcr = htim->Instance->SMCR & TIM_SMCR_SMS;
 842              		.loc 1 433 19 is_stmt 1
 843 00be 7B68     		ldr	r3, [r7, #4]
 844 00c0 1B68     		ldr	r3, [r3]
 845              		.loc 1 433 29
 846 00c2 9B68     		ldr	r3, [r3, #8]
 847              		.loc 1 433 13
 848 00c4 03F00703 		and	r3, r3, #7
 849 00c8 BB60     		str	r3, [r7, #8]
 434:Drivers/STM32F4xx_HAL_Driver/Src/stm32f4xx_hal_tim_ex.c ****     if (!IS_TIM_SLAVEMODE_TRIGGER_ENABLED(tmpsmcr))
 850              		.loc 1 434 8
 851 00ca BB68     		ldr	r3, [r7, #8]
 852 00cc 062B     		cmp	r3, #6
 853 00ce 10D0     		beq	.L31
 435:Drivers/STM32F4xx_HAL_Driver/Src/stm32f4xx_hal_tim_ex.c ****     {
 436:Drivers/STM32F4xx_HAL_Driver/Src/stm32f4xx_hal_tim_ex.c ****       __HAL_TIM_ENABLE(htim);
 854              		.loc 1 436 7
 855 00d0 7B68     		ldr	r3, [r7, #4]
 856 00d2 1B68     		ldr	r3, [r3]
 857 00d4 1A68     		ldr	r2, [r3]
 858 00d6 7B68     		ldr	r3, [r7, #4]
 859 00d8 1B68     		ldr	r3, [r3]
 860 00da 42F00102 		orr	r2, r2, #1
 861 00de 1A60     		str	r2, [r3]
 434:Drivers/STM32F4xx_HAL_Driver/Src/stm32f4xx_hal_tim_ex.c ****     if (!IS_TIM_SLAVEMODE_TRIGGER_ENABLED(tmpsmcr))
 862              		.loc 1 434 8
 863 00e0 07E0     		b	.L31
 864              	.L29:
 437:Drivers/STM32F4xx_HAL_Driver/Src/stm32f4xx_hal_tim_ex.c ****     }
 438:Drivers/STM32F4xx_HAL_Driver/Src/stm32f4xx_hal_tim_ex.c ****   }
 439:Drivers/STM32F4xx_HAL_Driver/Src/stm32f4xx_hal_tim_ex.c ****   else
 440:Drivers/STM32F4xx_HAL_Driver/Src/stm32f4xx_hal_tim_ex.c ****   {
 441:Drivers/STM32F4xx_HAL_Driver/Src/stm32f4xx_hal_tim_ex.c ****     __HAL_TIM_ENABLE(htim);
 865              		.loc 1 441 5
 866 00e2 7B68     		ldr	r3, [r7, #4]
 867 00e4 1B68     		ldr	r3, [r3]
 868 00e6 1A68     		ldr	r2, [r3]
 869 00e8 7B68     		ldr	r3, [r7, #4]
 870 00ea 1B68     		ldr	r3, [r3]
 871 00ec 42F00102 		orr	r2, r2, #1
 872 00f0 1A60     		str	r2, [r3]
 873              	.L31:
 442:Drivers/STM32F4xx_HAL_Driver/Src/stm32f4xx_hal_tim_ex.c ****   }
 443:Drivers/STM32F4xx_HAL_Driver/Src/stm32f4xx_hal_tim_ex.c **** 
 444:Drivers/STM32F4xx_HAL_Driver/Src/stm32f4xx_hal_tim_ex.c ****   /* Return function status */
 445:Drivers/STM32F4xx_HAL_Driver/Src/stm32f4xx_hal_tim_ex.c ****   return HAL_OK;
 874              		.loc 1 445 10
 875 00f2 0023     		movs	r3, #0
 876              	.L27:
 446:Drivers/STM32F4xx_HAL_Driver/Src/stm32f4xx_hal_tim_ex.c **** }
ARM GAS  C:\Users\DAELT-~1\AppData\Local\Temp\cc2rhEX6.s 			page 24


 877              		.loc 1 446 1
 878 00f4 1846     		mov	r0, r3
 879 00f6 1037     		adds	r7, r7, #16
 880              	.LCFI35:
 881              		.cfi_def_cfa_offset 8
 882 00f8 BD46     		mov	sp, r7
 883              	.LCFI36:
 884              		.cfi_def_cfa_register 13
 885              		@ sp needed
 886 00fa 80BD     		pop	{r7, pc}
 887              	.L33:
 888              		.align	2
 889              	.L32:
 890 00fc 00000140 		.word	1073807360
 891 0100 00040040 		.word	1073742848
 892 0104 00080040 		.word	1073743872
 893 0108 000C0040 		.word	1073744896
 894 010c 00400140 		.word	1073823744
 895              		.cfi_endproc
 896              	.LFE136:
 898              		.section	.text.HAL_TIMEx_HallSensor_Stop_IT,"ax",%progbits
 899              		.align	1
 900              		.global	HAL_TIMEx_HallSensor_Stop_IT
 901              		.syntax unified
 902              		.thumb
 903              		.thumb_func
 905              	HAL_TIMEx_HallSensor_Stop_IT:
 906              	.LFB137:
 447:Drivers/STM32F4xx_HAL_Driver/Src/stm32f4xx_hal_tim_ex.c **** 
 448:Drivers/STM32F4xx_HAL_Driver/Src/stm32f4xx_hal_tim_ex.c **** /**
 449:Drivers/STM32F4xx_HAL_Driver/Src/stm32f4xx_hal_tim_ex.c ****   * @brief  Stops the TIM Hall Sensor Interface in interrupt mode.
 450:Drivers/STM32F4xx_HAL_Driver/Src/stm32f4xx_hal_tim_ex.c ****   * @param  htim TIM Hall Sensor Interface handle
 451:Drivers/STM32F4xx_HAL_Driver/Src/stm32f4xx_hal_tim_ex.c ****   * @retval HAL status
 452:Drivers/STM32F4xx_HAL_Driver/Src/stm32f4xx_hal_tim_ex.c ****   */
 453:Drivers/STM32F4xx_HAL_Driver/Src/stm32f4xx_hal_tim_ex.c **** HAL_StatusTypeDef HAL_TIMEx_HallSensor_Stop_IT(TIM_HandleTypeDef *htim)
 454:Drivers/STM32F4xx_HAL_Driver/Src/stm32f4xx_hal_tim_ex.c **** {
 907              		.loc 1 454 1
 908              		.cfi_startproc
 909              		@ args = 0, pretend = 0, frame = 8
 910              		@ frame_needed = 1, uses_anonymous_args = 0
 911 0000 80B5     		push	{r7, lr}
 912              	.LCFI37:
 913              		.cfi_def_cfa_offset 8
 914              		.cfi_offset 7, -8
 915              		.cfi_offset 14, -4
 916 0002 82B0     		sub	sp, sp, #8
 917              	.LCFI38:
 918              		.cfi_def_cfa_offset 16
 919 0004 00AF     		add	r7, sp, #0
 920              	.LCFI39:
 921              		.cfi_def_cfa_register 7
 922 0006 7860     		str	r0, [r7, #4]
 455:Drivers/STM32F4xx_HAL_Driver/Src/stm32f4xx_hal_tim_ex.c ****   /* Check the parameters */
 456:Drivers/STM32F4xx_HAL_Driver/Src/stm32f4xx_hal_tim_ex.c ****   assert_param(IS_TIM_HALL_SENSOR_INTERFACE_INSTANCE(htim->Instance));
 457:Drivers/STM32F4xx_HAL_Driver/Src/stm32f4xx_hal_tim_ex.c **** 
 458:Drivers/STM32F4xx_HAL_Driver/Src/stm32f4xx_hal_tim_ex.c ****   /* Disable the Input Capture channel 1
 459:Drivers/STM32F4xx_HAL_Driver/Src/stm32f4xx_hal_tim_ex.c ****   (in the Hall Sensor Interface the three possible channels that can be used are TIM_CHANNEL_1,
ARM GAS  C:\Users\DAELT-~1\AppData\Local\Temp\cc2rhEX6.s 			page 25


 460:Drivers/STM32F4xx_HAL_Driver/Src/stm32f4xx_hal_tim_ex.c ****   TIM_CHANNEL_2 and TIM_CHANNEL_3) */
 461:Drivers/STM32F4xx_HAL_Driver/Src/stm32f4xx_hal_tim_ex.c ****   TIM_CCxChannelCmd(htim->Instance, TIM_CHANNEL_1, TIM_CCx_DISABLE);
 923              		.loc 1 461 3
 924 0008 7B68     		ldr	r3, [r7, #4]
 925 000a 1B68     		ldr	r3, [r3]
 926 000c 0022     		movs	r2, #0
 927 000e 0021     		movs	r1, #0
 928 0010 1846     		mov	r0, r3
 929 0012 FFF7FEFF 		bl	TIM_CCxChannelCmd
 462:Drivers/STM32F4xx_HAL_Driver/Src/stm32f4xx_hal_tim_ex.c **** 
 463:Drivers/STM32F4xx_HAL_Driver/Src/stm32f4xx_hal_tim_ex.c ****   /* Disable the capture compare Interrupts event */
 464:Drivers/STM32F4xx_HAL_Driver/Src/stm32f4xx_hal_tim_ex.c ****   __HAL_TIM_DISABLE_IT(htim, TIM_IT_CC1);
 930              		.loc 1 464 3
 931 0016 7B68     		ldr	r3, [r7, #4]
 932 0018 1B68     		ldr	r3, [r3]
 933 001a DA68     		ldr	r2, [r3, #12]
 934 001c 7B68     		ldr	r3, [r7, #4]
 935 001e 1B68     		ldr	r3, [r3]
 936 0020 22F00202 		bic	r2, r2, #2
 937 0024 DA60     		str	r2, [r3, #12]
 465:Drivers/STM32F4xx_HAL_Driver/Src/stm32f4xx_hal_tim_ex.c **** 
 466:Drivers/STM32F4xx_HAL_Driver/Src/stm32f4xx_hal_tim_ex.c ****   /* Disable the Peripheral */
 467:Drivers/STM32F4xx_HAL_Driver/Src/stm32f4xx_hal_tim_ex.c ****   __HAL_TIM_DISABLE(htim);
 938              		.loc 1 467 3
 939 0026 7B68     		ldr	r3, [r7, #4]
 940 0028 1B68     		ldr	r3, [r3]
 941 002a 1A6A     		ldr	r2, [r3, #32]
 942 002c 41F21113 		movw	r3, #4369
 943 0030 1340     		ands	r3, r3, r2
 944 0032 002B     		cmp	r3, #0
 945 0034 0FD1     		bne	.L35
 946              		.loc 1 467 3 is_stmt 0 discriminator 1
 947 0036 7B68     		ldr	r3, [r7, #4]
 948 0038 1B68     		ldr	r3, [r3]
 949 003a 1A6A     		ldr	r2, [r3, #32]
 950 003c 40F24443 		movw	r3, #1092
 951 0040 1340     		ands	r3, r3, r2
 952 0042 002B     		cmp	r3, #0
 953 0044 07D1     		bne	.L35
 954              		.loc 1 467 3 discriminator 2
 955 0046 7B68     		ldr	r3, [r7, #4]
 956 0048 1B68     		ldr	r3, [r3]
 957 004a 1A68     		ldr	r2, [r3]
 958 004c 7B68     		ldr	r3, [r7, #4]
 959 004e 1B68     		ldr	r3, [r3]
 960 0050 22F00102 		bic	r2, r2, #1
 961 0054 1A60     		str	r2, [r3]
 962              	.L35:
 468:Drivers/STM32F4xx_HAL_Driver/Src/stm32f4xx_hal_tim_ex.c **** 
 469:Drivers/STM32F4xx_HAL_Driver/Src/stm32f4xx_hal_tim_ex.c ****   /* Set the TIM channels state */
 470:Drivers/STM32F4xx_HAL_Driver/Src/stm32f4xx_hal_tim_ex.c ****   TIM_CHANNEL_STATE_SET(htim, TIM_CHANNEL_1, HAL_TIM_CHANNEL_STATE_READY);
 963              		.loc 1 470 3 is_stmt 1
 964 0056 7B68     		ldr	r3, [r7, #4]
 965 0058 0122     		movs	r2, #1
 966 005a 83F83E20 		strb	r2, [r3, #62]
 471:Drivers/STM32F4xx_HAL_Driver/Src/stm32f4xx_hal_tim_ex.c ****   TIM_CHANNEL_STATE_SET(htim, TIM_CHANNEL_2, HAL_TIM_CHANNEL_STATE_READY);
 967              		.loc 1 471 3
ARM GAS  C:\Users\DAELT-~1\AppData\Local\Temp\cc2rhEX6.s 			page 26


 968 005e 7B68     		ldr	r3, [r7, #4]
 969 0060 0122     		movs	r2, #1
 970 0062 83F83F20 		strb	r2, [r3, #63]
 472:Drivers/STM32F4xx_HAL_Driver/Src/stm32f4xx_hal_tim_ex.c ****   TIM_CHANNEL_N_STATE_SET(htim, TIM_CHANNEL_1, HAL_TIM_CHANNEL_STATE_READY);
 971              		.loc 1 472 3
 972 0066 7B68     		ldr	r3, [r7, #4]
 973 0068 0122     		movs	r2, #1
 974 006a 83F84220 		strb	r2, [r3, #66]
 473:Drivers/STM32F4xx_HAL_Driver/Src/stm32f4xx_hal_tim_ex.c ****   TIM_CHANNEL_N_STATE_SET(htim, TIM_CHANNEL_2, HAL_TIM_CHANNEL_STATE_READY);
 975              		.loc 1 473 3
 976 006e 7B68     		ldr	r3, [r7, #4]
 977 0070 0122     		movs	r2, #1
 978 0072 83F84320 		strb	r2, [r3, #67]
 474:Drivers/STM32F4xx_HAL_Driver/Src/stm32f4xx_hal_tim_ex.c **** 
 475:Drivers/STM32F4xx_HAL_Driver/Src/stm32f4xx_hal_tim_ex.c ****   /* Return function status */
 476:Drivers/STM32F4xx_HAL_Driver/Src/stm32f4xx_hal_tim_ex.c ****   return HAL_OK;
 979              		.loc 1 476 10
 980 0076 0023     		movs	r3, #0
 477:Drivers/STM32F4xx_HAL_Driver/Src/stm32f4xx_hal_tim_ex.c **** }
 981              		.loc 1 477 1
 982 0078 1846     		mov	r0, r3
 983 007a 0837     		adds	r7, r7, #8
 984              	.LCFI40:
 985              		.cfi_def_cfa_offset 8
 986 007c BD46     		mov	sp, r7
 987              	.LCFI41:
 988              		.cfi_def_cfa_register 13
 989              		@ sp needed
 990 007e 80BD     		pop	{r7, pc}
 991              		.cfi_endproc
 992              	.LFE137:
 994              		.section	.text.HAL_TIMEx_HallSensor_Start_DMA,"ax",%progbits
 995              		.align	1
 996              		.global	HAL_TIMEx_HallSensor_Start_DMA
 997              		.syntax unified
 998              		.thumb
 999              		.thumb_func
 1001              	HAL_TIMEx_HallSensor_Start_DMA:
 1002              	.LFB138:
 478:Drivers/STM32F4xx_HAL_Driver/Src/stm32f4xx_hal_tim_ex.c **** 
 479:Drivers/STM32F4xx_HAL_Driver/Src/stm32f4xx_hal_tim_ex.c **** /**
 480:Drivers/STM32F4xx_HAL_Driver/Src/stm32f4xx_hal_tim_ex.c ****   * @brief  Starts the TIM Hall Sensor Interface in DMA mode.
 481:Drivers/STM32F4xx_HAL_Driver/Src/stm32f4xx_hal_tim_ex.c ****   * @param  htim TIM Hall Sensor Interface handle
 482:Drivers/STM32F4xx_HAL_Driver/Src/stm32f4xx_hal_tim_ex.c ****   * @param  pData The destination Buffer address.
 483:Drivers/STM32F4xx_HAL_Driver/Src/stm32f4xx_hal_tim_ex.c ****   * @param  Length The length of data to be transferred from TIM peripheral to memory.
 484:Drivers/STM32F4xx_HAL_Driver/Src/stm32f4xx_hal_tim_ex.c ****   * @retval HAL status
 485:Drivers/STM32F4xx_HAL_Driver/Src/stm32f4xx_hal_tim_ex.c ****   */
 486:Drivers/STM32F4xx_HAL_Driver/Src/stm32f4xx_hal_tim_ex.c **** HAL_StatusTypeDef HAL_TIMEx_HallSensor_Start_DMA(TIM_HandleTypeDef *htim, uint32_t *pData, uint16_t
 487:Drivers/STM32F4xx_HAL_Driver/Src/stm32f4xx_hal_tim_ex.c **** {
 1003              		.loc 1 487 1
 1004              		.cfi_startproc
 1005              		@ args = 0, pretend = 0, frame = 24
 1006              		@ frame_needed = 1, uses_anonymous_args = 0
 1007 0000 80B5     		push	{r7, lr}
 1008              	.LCFI42:
 1009              		.cfi_def_cfa_offset 8
 1010              		.cfi_offset 7, -8
ARM GAS  C:\Users\DAELT-~1\AppData\Local\Temp\cc2rhEX6.s 			page 27


 1011              		.cfi_offset 14, -4
 1012 0002 86B0     		sub	sp, sp, #24
 1013              	.LCFI43:
 1014              		.cfi_def_cfa_offset 32
 1015 0004 00AF     		add	r7, sp, #0
 1016              	.LCFI44:
 1017              		.cfi_def_cfa_register 7
 1018 0006 F860     		str	r0, [r7, #12]
 1019 0008 B960     		str	r1, [r7, #8]
 1020 000a 1346     		mov	r3, r2
 1021 000c FB80     		strh	r3, [r7, #6]	@ movhi
 488:Drivers/STM32F4xx_HAL_Driver/Src/stm32f4xx_hal_tim_ex.c ****   uint32_t tmpsmcr;
 489:Drivers/STM32F4xx_HAL_Driver/Src/stm32f4xx_hal_tim_ex.c ****   HAL_TIM_ChannelStateTypeDef channel_1_state = TIM_CHANNEL_STATE_GET(htim, TIM_CHANNEL_1);
 1022              		.loc 1 489 31
 1023 000e FB68     		ldr	r3, [r7, #12]
 1024 0010 93F83E30 		ldrb	r3, [r3, #62]
 1025 0014 FB75     		strb	r3, [r7, #23]
 490:Drivers/STM32F4xx_HAL_Driver/Src/stm32f4xx_hal_tim_ex.c ****   HAL_TIM_ChannelStateTypeDef complementary_channel_1_state = TIM_CHANNEL_N_STATE_GET(htim, TIM_CHA
 1026              		.loc 1 490 31
 1027 0016 FB68     		ldr	r3, [r7, #12]
 1028 0018 93F84230 		ldrb	r3, [r3, #66]
 1029 001c BB75     		strb	r3, [r7, #22]
 491:Drivers/STM32F4xx_HAL_Driver/Src/stm32f4xx_hal_tim_ex.c **** 
 492:Drivers/STM32F4xx_HAL_Driver/Src/stm32f4xx_hal_tim_ex.c ****   /* Check the parameters */
 493:Drivers/STM32F4xx_HAL_Driver/Src/stm32f4xx_hal_tim_ex.c ****   assert_param(IS_TIM_HALL_SENSOR_INTERFACE_INSTANCE(htim->Instance));
 494:Drivers/STM32F4xx_HAL_Driver/Src/stm32f4xx_hal_tim_ex.c **** 
 495:Drivers/STM32F4xx_HAL_Driver/Src/stm32f4xx_hal_tim_ex.c ****   /* Set the TIM channel state */
 496:Drivers/STM32F4xx_HAL_Driver/Src/stm32f4xx_hal_tim_ex.c ****   if ((channel_1_state == HAL_TIM_CHANNEL_STATE_BUSY)
 1030              		.loc 1 496 6
 1031 001e FB7D     		ldrb	r3, [r7, #23]	@ zero_extendqisi2
 1032 0020 022B     		cmp	r3, #2
 1033 0022 02D0     		beq	.L38
 497:Drivers/STM32F4xx_HAL_Driver/Src/stm32f4xx_hal_tim_ex.c ****       || (complementary_channel_1_state == HAL_TIM_CHANNEL_STATE_BUSY))
 1034              		.loc 1 497 7
 1035 0024 BB7D     		ldrb	r3, [r7, #22]	@ zero_extendqisi2
 1036 0026 022B     		cmp	r3, #2
 1037 0028 01D1     		bne	.L39
 1038              	.L38:
 498:Drivers/STM32F4xx_HAL_Driver/Src/stm32f4xx_hal_tim_ex.c ****   {
 499:Drivers/STM32F4xx_HAL_Driver/Src/stm32f4xx_hal_tim_ex.c ****     return HAL_BUSY;
 1039              		.loc 1 499 12
 1040 002a 0223     		movs	r3, #2
 1041 002c 7CE0     		b	.L40
 1042              	.L39:
 500:Drivers/STM32F4xx_HAL_Driver/Src/stm32f4xx_hal_tim_ex.c ****   }
 501:Drivers/STM32F4xx_HAL_Driver/Src/stm32f4xx_hal_tim_ex.c ****   else if ((channel_1_state == HAL_TIM_CHANNEL_STATE_READY)
 1043              		.loc 1 501 11
 1044 002e FB7D     		ldrb	r3, [r7, #23]	@ zero_extendqisi2
 1045 0030 012B     		cmp	r3, #1
 1046 0032 34D1     		bne	.L41
 502:Drivers/STM32F4xx_HAL_Driver/Src/stm32f4xx_hal_tim_ex.c ****            && (complementary_channel_1_state == HAL_TIM_CHANNEL_STATE_READY))
 1047              		.loc 1 502 12
 1048 0034 BB7D     		ldrb	r3, [r7, #22]	@ zero_extendqisi2
 1049 0036 012B     		cmp	r3, #1
 1050 0038 31D1     		bne	.L41
 503:Drivers/STM32F4xx_HAL_Driver/Src/stm32f4xx_hal_tim_ex.c ****   {
 504:Drivers/STM32F4xx_HAL_Driver/Src/stm32f4xx_hal_tim_ex.c ****     if ((pData == NULL) && (Length > 0U))
ARM GAS  C:\Users\DAELT-~1\AppData\Local\Temp\cc2rhEX6.s 			page 28


 1051              		.loc 1 504 8
 1052 003a BB68     		ldr	r3, [r7, #8]
 1053 003c 002B     		cmp	r3, #0
 1054 003e 04D1     		bne	.L42
 1055              		.loc 1 504 25 discriminator 1
 1056 0040 FB88     		ldrh	r3, [r7, #6]
 1057 0042 002B     		cmp	r3, #0
 1058 0044 01D0     		beq	.L42
 505:Drivers/STM32F4xx_HAL_Driver/Src/stm32f4xx_hal_tim_ex.c ****     {
 506:Drivers/STM32F4xx_HAL_Driver/Src/stm32f4xx_hal_tim_ex.c ****       return HAL_ERROR;
 1059              		.loc 1 506 14
 1060 0046 0123     		movs	r3, #1
 1061 0048 6EE0     		b	.L40
 1062              	.L42:
 507:Drivers/STM32F4xx_HAL_Driver/Src/stm32f4xx_hal_tim_ex.c ****     }
 508:Drivers/STM32F4xx_HAL_Driver/Src/stm32f4xx_hal_tim_ex.c ****     else
 509:Drivers/STM32F4xx_HAL_Driver/Src/stm32f4xx_hal_tim_ex.c ****     {
 510:Drivers/STM32F4xx_HAL_Driver/Src/stm32f4xx_hal_tim_ex.c ****       TIM_CHANNEL_STATE_SET(htim, TIM_CHANNEL_1, HAL_TIM_CHANNEL_STATE_BUSY);
 1063              		.loc 1 510 7
 1064 004a FB68     		ldr	r3, [r7, #12]
 1065 004c 0222     		movs	r2, #2
 1066 004e 83F83E20 		strb	r2, [r3, #62]
 511:Drivers/STM32F4xx_HAL_Driver/Src/stm32f4xx_hal_tim_ex.c ****       TIM_CHANNEL_N_STATE_SET(htim, TIM_CHANNEL_1, HAL_TIM_CHANNEL_STATE_BUSY);
 1067              		.loc 1 511 7
 1068 0052 FB68     		ldr	r3, [r7, #12]
 1069 0054 0222     		movs	r2, #2
 1070 0056 83F84220 		strb	r2, [r3, #66]
 504:Drivers/STM32F4xx_HAL_Driver/Src/stm32f4xx_hal_tim_ex.c ****     {
 1071              		.loc 1 504 8
 1072 005a 00BF     		nop
 512:Drivers/STM32F4xx_HAL_Driver/Src/stm32f4xx_hal_tim_ex.c ****     }
 513:Drivers/STM32F4xx_HAL_Driver/Src/stm32f4xx_hal_tim_ex.c ****   }
 514:Drivers/STM32F4xx_HAL_Driver/Src/stm32f4xx_hal_tim_ex.c ****   else
 515:Drivers/STM32F4xx_HAL_Driver/Src/stm32f4xx_hal_tim_ex.c ****   {
 516:Drivers/STM32F4xx_HAL_Driver/Src/stm32f4xx_hal_tim_ex.c ****     return HAL_ERROR;
 517:Drivers/STM32F4xx_HAL_Driver/Src/stm32f4xx_hal_tim_ex.c ****   }
 518:Drivers/STM32F4xx_HAL_Driver/Src/stm32f4xx_hal_tim_ex.c **** 
 519:Drivers/STM32F4xx_HAL_Driver/Src/stm32f4xx_hal_tim_ex.c ****   /* Enable the Input Capture channel 1
 520:Drivers/STM32F4xx_HAL_Driver/Src/stm32f4xx_hal_tim_ex.c ****   (in the Hall Sensor Interface the three possible channels that can be used are TIM_CHANNEL_1,
 521:Drivers/STM32F4xx_HAL_Driver/Src/stm32f4xx_hal_tim_ex.c ****   TIM_CHANNEL_2 and TIM_CHANNEL_3) */
 522:Drivers/STM32F4xx_HAL_Driver/Src/stm32f4xx_hal_tim_ex.c ****   TIM_CCxChannelCmd(htim->Instance, TIM_CHANNEL_1, TIM_CCx_ENABLE);
 1073              		.loc 1 522 3
 1074 005c FB68     		ldr	r3, [r7, #12]
 1075 005e 1B68     		ldr	r3, [r3]
 1076 0060 0122     		movs	r2, #1
 1077 0062 0021     		movs	r1, #0
 1078 0064 1846     		mov	r0, r3
 1079 0066 FFF7FEFF 		bl	TIM_CCxChannelCmd
 523:Drivers/STM32F4xx_HAL_Driver/Src/stm32f4xx_hal_tim_ex.c **** 
 524:Drivers/STM32F4xx_HAL_Driver/Src/stm32f4xx_hal_tim_ex.c ****   /* Set the DMA Input Capture 1 Callbacks */
 525:Drivers/STM32F4xx_HAL_Driver/Src/stm32f4xx_hal_tim_ex.c ****   htim->hdma[TIM_DMA_ID_CC1]->XferCpltCallback = TIM_DMACaptureCplt;
 1080              		.loc 1 525 13
 1081 006a FB68     		ldr	r3, [r7, #12]
 1082 006c 5B6A     		ldr	r3, [r3, #36]
 1083              		.loc 1 525 48
 1084 006e 304A     		ldr	r2, .L50
 1085 0070 DA63     		str	r2, [r3, #60]
ARM GAS  C:\Users\DAELT-~1\AppData\Local\Temp\cc2rhEX6.s 			page 29


 526:Drivers/STM32F4xx_HAL_Driver/Src/stm32f4xx_hal_tim_ex.c ****   htim->hdma[TIM_DMA_ID_CC1]->XferHalfCpltCallback = TIM_DMACaptureHalfCplt;
 1086              		.loc 1 526 13
 1087 0072 FB68     		ldr	r3, [r7, #12]
 1088 0074 5B6A     		ldr	r3, [r3, #36]
 1089              		.loc 1 526 52
 1090 0076 2F4A     		ldr	r2, .L50+4
 1091 0078 1A64     		str	r2, [r3, #64]
 527:Drivers/STM32F4xx_HAL_Driver/Src/stm32f4xx_hal_tim_ex.c ****   /* Set the DMA error callback */
 528:Drivers/STM32F4xx_HAL_Driver/Src/stm32f4xx_hal_tim_ex.c ****   htim->hdma[TIM_DMA_ID_CC1]->XferErrorCallback = TIM_DMAError ;
 1092              		.loc 1 528 13
 1093 007a FB68     		ldr	r3, [r7, #12]
 1094 007c 5B6A     		ldr	r3, [r3, #36]
 1095              		.loc 1 528 49
 1096 007e 2E4A     		ldr	r2, .L50+8
 1097 0080 DA64     		str	r2, [r3, #76]
 529:Drivers/STM32F4xx_HAL_Driver/Src/stm32f4xx_hal_tim_ex.c **** 
 530:Drivers/STM32F4xx_HAL_Driver/Src/stm32f4xx_hal_tim_ex.c ****   /* Enable the DMA stream for Capture 1*/
 531:Drivers/STM32F4xx_HAL_Driver/Src/stm32f4xx_hal_tim_ex.c ****   if (HAL_DMA_Start_IT(htim->hdma[TIM_DMA_ID_CC1], (uint32_t)&htim->Instance->CCR1, (uint32_t)pData
 1098              		.loc 1 531 7
 1099 0082 FB68     		ldr	r3, [r7, #12]
 1100 0084 586A     		ldr	r0, [r3, #36]
 1101              		.loc 1 531 67
 1102 0086 FB68     		ldr	r3, [r7, #12]
 1103 0088 1B68     		ldr	r3, [r3]
 1104              		.loc 1 531 62
 1105 008a 3433     		adds	r3, r3, #52
 1106              		.loc 1 531 7
 1107 008c 1946     		mov	r1, r3
 1108 008e BA68     		ldr	r2, [r7, #8]
 1109 0090 FB88     		ldrh	r3, [r7, #6]
 1110 0092 FFF7FEFF 		bl	HAL_DMA_Start_IT
 1111 0096 0346     		mov	r3, r0
 1112              		.loc 1 531 6 discriminator 1
 1113 0098 002B     		cmp	r3, #0
 1114 009a 04D0     		beq	.L44
 1115 009c 01E0     		b	.L49
 1116              	.L41:
 516:Drivers/STM32F4xx_HAL_Driver/Src/stm32f4xx_hal_tim_ex.c ****   }
 1117              		.loc 1 516 12
 1118 009e 0123     		movs	r3, #1
 1119 00a0 42E0     		b	.L40
 1120              	.L49:
 532:Drivers/STM32F4xx_HAL_Driver/Src/stm32f4xx_hal_tim_ex.c ****   {
 533:Drivers/STM32F4xx_HAL_Driver/Src/stm32f4xx_hal_tim_ex.c ****     /* Return error status */
 534:Drivers/STM32F4xx_HAL_Driver/Src/stm32f4xx_hal_tim_ex.c ****     return HAL_ERROR;
 1121              		.loc 1 534 12
 1122 00a2 0123     		movs	r3, #1
 1123 00a4 40E0     		b	.L40
 1124              	.L44:
 535:Drivers/STM32F4xx_HAL_Driver/Src/stm32f4xx_hal_tim_ex.c ****   }
 536:Drivers/STM32F4xx_HAL_Driver/Src/stm32f4xx_hal_tim_ex.c ****   /* Enable the capture compare 1 Interrupt */
 537:Drivers/STM32F4xx_HAL_Driver/Src/stm32f4xx_hal_tim_ex.c ****   __HAL_TIM_ENABLE_DMA(htim, TIM_DMA_CC1);
 1125              		.loc 1 537 3
 1126 00a6 FB68     		ldr	r3, [r7, #12]
 1127 00a8 1B68     		ldr	r3, [r3]
 1128 00aa DA68     		ldr	r2, [r3, #12]
 1129 00ac FB68     		ldr	r3, [r7, #12]
ARM GAS  C:\Users\DAELT-~1\AppData\Local\Temp\cc2rhEX6.s 			page 30


 1130 00ae 1B68     		ldr	r3, [r3]
 1131 00b0 42F40072 		orr	r2, r2, #512
 1132 00b4 DA60     		str	r2, [r3, #12]
 538:Drivers/STM32F4xx_HAL_Driver/Src/stm32f4xx_hal_tim_ex.c **** 
 539:Drivers/STM32F4xx_HAL_Driver/Src/stm32f4xx_hal_tim_ex.c ****   /* Enable the Peripheral, except in trigger mode where enable is automatically done with trigger 
 540:Drivers/STM32F4xx_HAL_Driver/Src/stm32f4xx_hal_tim_ex.c ****   if (IS_TIM_SLAVE_INSTANCE(htim->Instance))
 1133              		.loc 1 540 7
 1134 00b6 FB68     		ldr	r3, [r7, #12]
 1135 00b8 1B68     		ldr	r3, [r3]
 1136              		.loc 1 540 6
 1137 00ba 204A     		ldr	r2, .L50+12
 1138 00bc 9342     		cmp	r3, r2
 1139 00be 18D0     		beq	.L45
 1140              		.loc 1 540 7 discriminator 1
 1141 00c0 FB68     		ldr	r3, [r7, #12]
 1142 00c2 1B68     		ldr	r3, [r3]
 1143 00c4 B3F1804F 		cmp	r3, #1073741824
 1144 00c8 13D0     		beq	.L45
 1145              		.loc 1 540 7 is_stmt 0 discriminator 2
 1146 00ca FB68     		ldr	r3, [r7, #12]
 1147 00cc 1B68     		ldr	r3, [r3]
 1148 00ce 1C4A     		ldr	r2, .L50+16
 1149 00d0 9342     		cmp	r3, r2
 1150 00d2 0ED0     		beq	.L45
 1151              		.loc 1 540 7 discriminator 3
 1152 00d4 FB68     		ldr	r3, [r7, #12]
 1153 00d6 1B68     		ldr	r3, [r3]
 1154 00d8 1A4A     		ldr	r2, .L50+20
 1155 00da 9342     		cmp	r3, r2
 1156 00dc 09D0     		beq	.L45
 1157              		.loc 1 540 7 discriminator 4
 1158 00de FB68     		ldr	r3, [r7, #12]
 1159 00e0 1B68     		ldr	r3, [r3]
 1160 00e2 194A     		ldr	r2, .L50+24
 1161 00e4 9342     		cmp	r3, r2
 1162 00e6 04D0     		beq	.L45
 1163              		.loc 1 540 7 discriminator 5
 1164 00e8 FB68     		ldr	r3, [r7, #12]
 1165 00ea 1B68     		ldr	r3, [r3]
 1166 00ec 174A     		ldr	r2, .L50+28
 1167 00ee 9342     		cmp	r3, r2
 1168 00f0 11D1     		bne	.L46
 1169              	.L45:
 541:Drivers/STM32F4xx_HAL_Driver/Src/stm32f4xx_hal_tim_ex.c ****   {
 542:Drivers/STM32F4xx_HAL_Driver/Src/stm32f4xx_hal_tim_ex.c ****     tmpsmcr = htim->Instance->SMCR & TIM_SMCR_SMS;
 1170              		.loc 1 542 19 is_stmt 1
 1171 00f2 FB68     		ldr	r3, [r7, #12]
 1172 00f4 1B68     		ldr	r3, [r3]
 1173              		.loc 1 542 29
 1174 00f6 9B68     		ldr	r3, [r3, #8]
 1175              		.loc 1 542 13
 1176 00f8 03F00703 		and	r3, r3, #7
 1177 00fc 3B61     		str	r3, [r7, #16]
 543:Drivers/STM32F4xx_HAL_Driver/Src/stm32f4xx_hal_tim_ex.c ****     if (!IS_TIM_SLAVEMODE_TRIGGER_ENABLED(tmpsmcr))
 1178              		.loc 1 543 8
 1179 00fe 3B69     		ldr	r3, [r7, #16]
 1180 0100 062B     		cmp	r3, #6
ARM GAS  C:\Users\DAELT-~1\AppData\Local\Temp\cc2rhEX6.s 			page 31


 1181 0102 10D0     		beq	.L48
 544:Drivers/STM32F4xx_HAL_Driver/Src/stm32f4xx_hal_tim_ex.c ****     {
 545:Drivers/STM32F4xx_HAL_Driver/Src/stm32f4xx_hal_tim_ex.c ****       __HAL_TIM_ENABLE(htim);
 1182              		.loc 1 545 7
 1183 0104 FB68     		ldr	r3, [r7, #12]
 1184 0106 1B68     		ldr	r3, [r3]
 1185 0108 1A68     		ldr	r2, [r3]
 1186 010a FB68     		ldr	r3, [r7, #12]
 1187 010c 1B68     		ldr	r3, [r3]
 1188 010e 42F00102 		orr	r2, r2, #1
 1189 0112 1A60     		str	r2, [r3]
 543:Drivers/STM32F4xx_HAL_Driver/Src/stm32f4xx_hal_tim_ex.c ****     if (!IS_TIM_SLAVEMODE_TRIGGER_ENABLED(tmpsmcr))
 1190              		.loc 1 543 8
 1191 0114 07E0     		b	.L48
 1192              	.L46:
 546:Drivers/STM32F4xx_HAL_Driver/Src/stm32f4xx_hal_tim_ex.c ****     }
 547:Drivers/STM32F4xx_HAL_Driver/Src/stm32f4xx_hal_tim_ex.c ****   }
 548:Drivers/STM32F4xx_HAL_Driver/Src/stm32f4xx_hal_tim_ex.c ****   else
 549:Drivers/STM32F4xx_HAL_Driver/Src/stm32f4xx_hal_tim_ex.c ****   {
 550:Drivers/STM32F4xx_HAL_Driver/Src/stm32f4xx_hal_tim_ex.c ****     __HAL_TIM_ENABLE(htim);
 1193              		.loc 1 550 5
 1194 0116 FB68     		ldr	r3, [r7, #12]
 1195 0118 1B68     		ldr	r3, [r3]
 1196 011a 1A68     		ldr	r2, [r3]
 1197 011c FB68     		ldr	r3, [r7, #12]
 1198 011e 1B68     		ldr	r3, [r3]
 1199 0120 42F00102 		orr	r2, r2, #1
 1200 0124 1A60     		str	r2, [r3]
 1201              	.L48:
 551:Drivers/STM32F4xx_HAL_Driver/Src/stm32f4xx_hal_tim_ex.c ****   }
 552:Drivers/STM32F4xx_HAL_Driver/Src/stm32f4xx_hal_tim_ex.c **** 
 553:Drivers/STM32F4xx_HAL_Driver/Src/stm32f4xx_hal_tim_ex.c ****   /* Return function status */
 554:Drivers/STM32F4xx_HAL_Driver/Src/stm32f4xx_hal_tim_ex.c ****   return HAL_OK;
 1202              		.loc 1 554 10
 1203 0126 0023     		movs	r3, #0
 1204              	.L40:
 555:Drivers/STM32F4xx_HAL_Driver/Src/stm32f4xx_hal_tim_ex.c **** }
 1205              		.loc 1 555 1
 1206 0128 1846     		mov	r0, r3
 1207 012a 1837     		adds	r7, r7, #24
 1208              	.LCFI45:
 1209              		.cfi_def_cfa_offset 8
 1210 012c BD46     		mov	sp, r7
 1211              	.LCFI46:
 1212              		.cfi_def_cfa_register 13
 1213              		@ sp needed
 1214 012e 80BD     		pop	{r7, pc}
 1215              	.L51:
 1216              		.align	2
 1217              	.L50:
 1218 0130 00000000 		.word	TIM_DMACaptureCplt
 1219 0134 00000000 		.word	TIM_DMACaptureHalfCplt
 1220 0138 00000000 		.word	TIM_DMAError
 1221 013c 00000140 		.word	1073807360
 1222 0140 00040040 		.word	1073742848
 1223 0144 00080040 		.word	1073743872
 1224 0148 000C0040 		.word	1073744896
ARM GAS  C:\Users\DAELT-~1\AppData\Local\Temp\cc2rhEX6.s 			page 32


 1225 014c 00400140 		.word	1073823744
 1226              		.cfi_endproc
 1227              	.LFE138:
 1229              		.section	.text.HAL_TIMEx_HallSensor_Stop_DMA,"ax",%progbits
 1230              		.align	1
 1231              		.global	HAL_TIMEx_HallSensor_Stop_DMA
 1232              		.syntax unified
 1233              		.thumb
 1234              		.thumb_func
 1236              	HAL_TIMEx_HallSensor_Stop_DMA:
 1237              	.LFB139:
 556:Drivers/STM32F4xx_HAL_Driver/Src/stm32f4xx_hal_tim_ex.c **** 
 557:Drivers/STM32F4xx_HAL_Driver/Src/stm32f4xx_hal_tim_ex.c **** /**
 558:Drivers/STM32F4xx_HAL_Driver/Src/stm32f4xx_hal_tim_ex.c ****   * @brief  Stops the TIM Hall Sensor Interface in DMA mode.
 559:Drivers/STM32F4xx_HAL_Driver/Src/stm32f4xx_hal_tim_ex.c ****   * @param  htim TIM Hall Sensor Interface handle
 560:Drivers/STM32F4xx_HAL_Driver/Src/stm32f4xx_hal_tim_ex.c ****   * @retval HAL status
 561:Drivers/STM32F4xx_HAL_Driver/Src/stm32f4xx_hal_tim_ex.c ****   */
 562:Drivers/STM32F4xx_HAL_Driver/Src/stm32f4xx_hal_tim_ex.c **** HAL_StatusTypeDef HAL_TIMEx_HallSensor_Stop_DMA(TIM_HandleTypeDef *htim)
 563:Drivers/STM32F4xx_HAL_Driver/Src/stm32f4xx_hal_tim_ex.c **** {
 1238              		.loc 1 563 1
 1239              		.cfi_startproc
 1240              		@ args = 0, pretend = 0, frame = 8
 1241              		@ frame_needed = 1, uses_anonymous_args = 0
 1242 0000 80B5     		push	{r7, lr}
 1243              	.LCFI47:
 1244              		.cfi_def_cfa_offset 8
 1245              		.cfi_offset 7, -8
 1246              		.cfi_offset 14, -4
 1247 0002 82B0     		sub	sp, sp, #8
 1248              	.LCFI48:
 1249              		.cfi_def_cfa_offset 16
 1250 0004 00AF     		add	r7, sp, #0
 1251              	.LCFI49:
 1252              		.cfi_def_cfa_register 7
 1253 0006 7860     		str	r0, [r7, #4]
 564:Drivers/STM32F4xx_HAL_Driver/Src/stm32f4xx_hal_tim_ex.c ****   /* Check the parameters */
 565:Drivers/STM32F4xx_HAL_Driver/Src/stm32f4xx_hal_tim_ex.c ****   assert_param(IS_TIM_HALL_SENSOR_INTERFACE_INSTANCE(htim->Instance));
 566:Drivers/STM32F4xx_HAL_Driver/Src/stm32f4xx_hal_tim_ex.c **** 
 567:Drivers/STM32F4xx_HAL_Driver/Src/stm32f4xx_hal_tim_ex.c ****   /* Disable the Input Capture channel 1
 568:Drivers/STM32F4xx_HAL_Driver/Src/stm32f4xx_hal_tim_ex.c ****   (in the Hall Sensor Interface the three possible channels that can be used are TIM_CHANNEL_1,
 569:Drivers/STM32F4xx_HAL_Driver/Src/stm32f4xx_hal_tim_ex.c ****   TIM_CHANNEL_2 and TIM_CHANNEL_3) */
 570:Drivers/STM32F4xx_HAL_Driver/Src/stm32f4xx_hal_tim_ex.c ****   TIM_CCxChannelCmd(htim->Instance, TIM_CHANNEL_1, TIM_CCx_DISABLE);
 1254              		.loc 1 570 3
 1255 0008 7B68     		ldr	r3, [r7, #4]
 1256 000a 1B68     		ldr	r3, [r3]
 1257 000c 0022     		movs	r2, #0
 1258 000e 0021     		movs	r1, #0
 1259 0010 1846     		mov	r0, r3
 1260 0012 FFF7FEFF 		bl	TIM_CCxChannelCmd
 571:Drivers/STM32F4xx_HAL_Driver/Src/stm32f4xx_hal_tim_ex.c **** 
 572:Drivers/STM32F4xx_HAL_Driver/Src/stm32f4xx_hal_tim_ex.c **** 
 573:Drivers/STM32F4xx_HAL_Driver/Src/stm32f4xx_hal_tim_ex.c ****   /* Disable the capture compare Interrupts 1 event */
 574:Drivers/STM32F4xx_HAL_Driver/Src/stm32f4xx_hal_tim_ex.c ****   __HAL_TIM_DISABLE_DMA(htim, TIM_DMA_CC1);
 1261              		.loc 1 574 3
 1262 0016 7B68     		ldr	r3, [r7, #4]
 1263 0018 1B68     		ldr	r3, [r3]
 1264 001a DA68     		ldr	r2, [r3, #12]
ARM GAS  C:\Users\DAELT-~1\AppData\Local\Temp\cc2rhEX6.s 			page 33


 1265 001c 7B68     		ldr	r3, [r7, #4]
 1266 001e 1B68     		ldr	r3, [r3]
 1267 0020 22F40072 		bic	r2, r2, #512
 1268 0024 DA60     		str	r2, [r3, #12]
 575:Drivers/STM32F4xx_HAL_Driver/Src/stm32f4xx_hal_tim_ex.c **** 
 576:Drivers/STM32F4xx_HAL_Driver/Src/stm32f4xx_hal_tim_ex.c ****   (void)HAL_DMA_Abort_IT(htim->hdma[TIM_DMA_ID_CC1]);
 1269              		.loc 1 576 9
 1270 0026 7B68     		ldr	r3, [r7, #4]
 1271 0028 5B6A     		ldr	r3, [r3, #36]
 1272 002a 1846     		mov	r0, r3
 1273 002c FFF7FEFF 		bl	HAL_DMA_Abort_IT
 577:Drivers/STM32F4xx_HAL_Driver/Src/stm32f4xx_hal_tim_ex.c **** 
 578:Drivers/STM32F4xx_HAL_Driver/Src/stm32f4xx_hal_tim_ex.c ****   /* Disable the Peripheral */
 579:Drivers/STM32F4xx_HAL_Driver/Src/stm32f4xx_hal_tim_ex.c ****   __HAL_TIM_DISABLE(htim);
 1274              		.loc 1 579 3
 1275 0030 7B68     		ldr	r3, [r7, #4]
 1276 0032 1B68     		ldr	r3, [r3]
 1277 0034 1A6A     		ldr	r2, [r3, #32]
 1278 0036 41F21113 		movw	r3, #4369
 1279 003a 1340     		ands	r3, r3, r2
 1280 003c 002B     		cmp	r3, #0
 1281 003e 0FD1     		bne	.L53
 1282              		.loc 1 579 3 is_stmt 0 discriminator 1
 1283 0040 7B68     		ldr	r3, [r7, #4]
 1284 0042 1B68     		ldr	r3, [r3]
 1285 0044 1A6A     		ldr	r2, [r3, #32]
 1286 0046 40F24443 		movw	r3, #1092
 1287 004a 1340     		ands	r3, r3, r2
 1288 004c 002B     		cmp	r3, #0
 1289 004e 07D1     		bne	.L53
 1290              		.loc 1 579 3 discriminator 2
 1291 0050 7B68     		ldr	r3, [r7, #4]
 1292 0052 1B68     		ldr	r3, [r3]
 1293 0054 1A68     		ldr	r2, [r3]
 1294 0056 7B68     		ldr	r3, [r7, #4]
 1295 0058 1B68     		ldr	r3, [r3]
 1296 005a 22F00102 		bic	r2, r2, #1
 1297 005e 1A60     		str	r2, [r3]
 1298              	.L53:
 580:Drivers/STM32F4xx_HAL_Driver/Src/stm32f4xx_hal_tim_ex.c **** 
 581:Drivers/STM32F4xx_HAL_Driver/Src/stm32f4xx_hal_tim_ex.c ****   /* Set the TIM channel state */
 582:Drivers/STM32F4xx_HAL_Driver/Src/stm32f4xx_hal_tim_ex.c ****   TIM_CHANNEL_STATE_SET(htim, TIM_CHANNEL_1, HAL_TIM_CHANNEL_STATE_READY);
 1299              		.loc 1 582 3 is_stmt 1
 1300 0060 7B68     		ldr	r3, [r7, #4]
 1301 0062 0122     		movs	r2, #1
 1302 0064 83F83E20 		strb	r2, [r3, #62]
 583:Drivers/STM32F4xx_HAL_Driver/Src/stm32f4xx_hal_tim_ex.c ****   TIM_CHANNEL_N_STATE_SET(htim, TIM_CHANNEL_1, HAL_TIM_CHANNEL_STATE_READY);
 1303              		.loc 1 583 3
 1304 0068 7B68     		ldr	r3, [r7, #4]
 1305 006a 0122     		movs	r2, #1
 1306 006c 83F84220 		strb	r2, [r3, #66]
 584:Drivers/STM32F4xx_HAL_Driver/Src/stm32f4xx_hal_tim_ex.c **** 
 585:Drivers/STM32F4xx_HAL_Driver/Src/stm32f4xx_hal_tim_ex.c ****   /* Return function status */
 586:Drivers/STM32F4xx_HAL_Driver/Src/stm32f4xx_hal_tim_ex.c ****   return HAL_OK;
 1307              		.loc 1 586 10
 1308 0070 0023     		movs	r3, #0
 587:Drivers/STM32F4xx_HAL_Driver/Src/stm32f4xx_hal_tim_ex.c **** }
ARM GAS  C:\Users\DAELT-~1\AppData\Local\Temp\cc2rhEX6.s 			page 34


 1309              		.loc 1 587 1
 1310 0072 1846     		mov	r0, r3
 1311 0074 0837     		adds	r7, r7, #8
 1312              	.LCFI50:
 1313              		.cfi_def_cfa_offset 8
 1314 0076 BD46     		mov	sp, r7
 1315              	.LCFI51:
 1316              		.cfi_def_cfa_register 13
 1317              		@ sp needed
 1318 0078 80BD     		pop	{r7, pc}
 1319              		.cfi_endproc
 1320              	.LFE139:
 1322              		.section	.text.HAL_TIMEx_OCN_Start,"ax",%progbits
 1323              		.align	1
 1324              		.global	HAL_TIMEx_OCN_Start
 1325              		.syntax unified
 1326              		.thumb
 1327              		.thumb_func
 1329              	HAL_TIMEx_OCN_Start:
 1330              	.LFB140:
 588:Drivers/STM32F4xx_HAL_Driver/Src/stm32f4xx_hal_tim_ex.c **** 
 589:Drivers/STM32F4xx_HAL_Driver/Src/stm32f4xx_hal_tim_ex.c **** /**
 590:Drivers/STM32F4xx_HAL_Driver/Src/stm32f4xx_hal_tim_ex.c ****   * @}
 591:Drivers/STM32F4xx_HAL_Driver/Src/stm32f4xx_hal_tim_ex.c ****   */
 592:Drivers/STM32F4xx_HAL_Driver/Src/stm32f4xx_hal_tim_ex.c **** 
 593:Drivers/STM32F4xx_HAL_Driver/Src/stm32f4xx_hal_tim_ex.c **** /** @defgroup TIMEx_Exported_Functions_Group2 Extended Timer Complementary Output Compare functions
 594:Drivers/STM32F4xx_HAL_Driver/Src/stm32f4xx_hal_tim_ex.c ****   *  @brief   Timer Complementary Output Compare functions
 595:Drivers/STM32F4xx_HAL_Driver/Src/stm32f4xx_hal_tim_ex.c ****   *
 596:Drivers/STM32F4xx_HAL_Driver/Src/stm32f4xx_hal_tim_ex.c **** @verbatim
 597:Drivers/STM32F4xx_HAL_Driver/Src/stm32f4xx_hal_tim_ex.c ****   ==============================================================================
 598:Drivers/STM32F4xx_HAL_Driver/Src/stm32f4xx_hal_tim_ex.c ****               ##### Timer Complementary Output Compare functions #####
 599:Drivers/STM32F4xx_HAL_Driver/Src/stm32f4xx_hal_tim_ex.c ****   ==============================================================================
 600:Drivers/STM32F4xx_HAL_Driver/Src/stm32f4xx_hal_tim_ex.c ****   [..]
 601:Drivers/STM32F4xx_HAL_Driver/Src/stm32f4xx_hal_tim_ex.c ****     This section provides functions allowing to:
 602:Drivers/STM32F4xx_HAL_Driver/Src/stm32f4xx_hal_tim_ex.c ****     (+) Start the Complementary Output Compare/PWM.
 603:Drivers/STM32F4xx_HAL_Driver/Src/stm32f4xx_hal_tim_ex.c ****     (+) Stop the Complementary Output Compare/PWM.
 604:Drivers/STM32F4xx_HAL_Driver/Src/stm32f4xx_hal_tim_ex.c ****     (+) Start the Complementary Output Compare/PWM and enable interrupts.
 605:Drivers/STM32F4xx_HAL_Driver/Src/stm32f4xx_hal_tim_ex.c ****     (+) Stop the Complementary Output Compare/PWM and disable interrupts.
 606:Drivers/STM32F4xx_HAL_Driver/Src/stm32f4xx_hal_tim_ex.c ****     (+) Start the Complementary Output Compare/PWM and enable DMA transfers.
 607:Drivers/STM32F4xx_HAL_Driver/Src/stm32f4xx_hal_tim_ex.c ****     (+) Stop the Complementary Output Compare/PWM and disable DMA transfers.
 608:Drivers/STM32F4xx_HAL_Driver/Src/stm32f4xx_hal_tim_ex.c **** 
 609:Drivers/STM32F4xx_HAL_Driver/Src/stm32f4xx_hal_tim_ex.c **** @endverbatim
 610:Drivers/STM32F4xx_HAL_Driver/Src/stm32f4xx_hal_tim_ex.c ****   * @{
 611:Drivers/STM32F4xx_HAL_Driver/Src/stm32f4xx_hal_tim_ex.c ****   */
 612:Drivers/STM32F4xx_HAL_Driver/Src/stm32f4xx_hal_tim_ex.c **** 
 613:Drivers/STM32F4xx_HAL_Driver/Src/stm32f4xx_hal_tim_ex.c **** /**
 614:Drivers/STM32F4xx_HAL_Driver/Src/stm32f4xx_hal_tim_ex.c ****   * @brief  Starts the TIM Output Compare signal generation on the complementary
 615:Drivers/STM32F4xx_HAL_Driver/Src/stm32f4xx_hal_tim_ex.c ****   *         output.
 616:Drivers/STM32F4xx_HAL_Driver/Src/stm32f4xx_hal_tim_ex.c ****   * @param  htim TIM Output Compare handle
 617:Drivers/STM32F4xx_HAL_Driver/Src/stm32f4xx_hal_tim_ex.c ****   * @param  Channel TIM Channel to be enabled
 618:Drivers/STM32F4xx_HAL_Driver/Src/stm32f4xx_hal_tim_ex.c ****   *          This parameter can be one of the following values:
 619:Drivers/STM32F4xx_HAL_Driver/Src/stm32f4xx_hal_tim_ex.c ****   *            @arg TIM_CHANNEL_1: TIM Channel 1 selected
 620:Drivers/STM32F4xx_HAL_Driver/Src/stm32f4xx_hal_tim_ex.c ****   *            @arg TIM_CHANNEL_2: TIM Channel 2 selected
 621:Drivers/STM32F4xx_HAL_Driver/Src/stm32f4xx_hal_tim_ex.c ****   *            @arg TIM_CHANNEL_3: TIM Channel 3 selected
 622:Drivers/STM32F4xx_HAL_Driver/Src/stm32f4xx_hal_tim_ex.c ****   * @retval HAL status
 623:Drivers/STM32F4xx_HAL_Driver/Src/stm32f4xx_hal_tim_ex.c ****   */
 624:Drivers/STM32F4xx_HAL_Driver/Src/stm32f4xx_hal_tim_ex.c **** HAL_StatusTypeDef HAL_TIMEx_OCN_Start(TIM_HandleTypeDef *htim, uint32_t Channel)
ARM GAS  C:\Users\DAELT-~1\AppData\Local\Temp\cc2rhEX6.s 			page 35


 625:Drivers/STM32F4xx_HAL_Driver/Src/stm32f4xx_hal_tim_ex.c **** {
 1331              		.loc 1 625 1
 1332              		.cfi_startproc
 1333              		@ args = 0, pretend = 0, frame = 16
 1334              		@ frame_needed = 1, uses_anonymous_args = 0
 1335 0000 80B5     		push	{r7, lr}
 1336              	.LCFI52:
 1337              		.cfi_def_cfa_offset 8
 1338              		.cfi_offset 7, -8
 1339              		.cfi_offset 14, -4
 1340 0002 84B0     		sub	sp, sp, #16
 1341              	.LCFI53:
 1342              		.cfi_def_cfa_offset 24
 1343 0004 00AF     		add	r7, sp, #0
 1344              	.LCFI54:
 1345              		.cfi_def_cfa_register 7
 1346 0006 7860     		str	r0, [r7, #4]
 1347 0008 3960     		str	r1, [r7]
 626:Drivers/STM32F4xx_HAL_Driver/Src/stm32f4xx_hal_tim_ex.c ****   uint32_t tmpsmcr;
 627:Drivers/STM32F4xx_HAL_Driver/Src/stm32f4xx_hal_tim_ex.c **** 
 628:Drivers/STM32F4xx_HAL_Driver/Src/stm32f4xx_hal_tim_ex.c ****   /* Check the parameters */
 629:Drivers/STM32F4xx_HAL_Driver/Src/stm32f4xx_hal_tim_ex.c ****   assert_param(IS_TIM_CCXN_INSTANCE(htim->Instance, Channel));
 630:Drivers/STM32F4xx_HAL_Driver/Src/stm32f4xx_hal_tim_ex.c **** 
 631:Drivers/STM32F4xx_HAL_Driver/Src/stm32f4xx_hal_tim_ex.c ****   /* Check the TIM complementary channel state */
 632:Drivers/STM32F4xx_HAL_Driver/Src/stm32f4xx_hal_tim_ex.c ****   if (TIM_CHANNEL_N_STATE_GET(htim, Channel) != HAL_TIM_CHANNEL_STATE_READY)
 1348              		.loc 1 632 46
 1349 000a 3B68     		ldr	r3, [r7]
 1350 000c 002B     		cmp	r3, #0
 1351 000e 09D1     		bne	.L56
 1352              		.loc 1 632 7 discriminator 1
 1353 0010 7B68     		ldr	r3, [r7, #4]
 1354 0012 93F84230 		ldrb	r3, [r3, #66]
 1355 0016 DBB2     		uxtb	r3, r3
 1356              		.loc 1 632 46 discriminator 1
 1357 0018 012B     		cmp	r3, #1
 1358 001a 14BF     		ite	ne
 1359 001c 0123     		movne	r3, #1
 1360 001e 0023     		moveq	r3, #0
 1361 0020 DBB2     		uxtb	r3, r3
 1362 0022 22E0     		b	.L57
 1363              	.L56:
 1364              		.loc 1 632 46 is_stmt 0 discriminator 2
 1365 0024 3B68     		ldr	r3, [r7]
 1366 0026 042B     		cmp	r3, #4
 1367 0028 09D1     		bne	.L58
 1368              		.loc 1 632 7 is_stmt 1 discriminator 4
 1369 002a 7B68     		ldr	r3, [r7, #4]
 1370 002c 93F84330 		ldrb	r3, [r3, #67]
 1371 0030 DBB2     		uxtb	r3, r3
 1372              		.loc 1 632 46 discriminator 4
 1373 0032 012B     		cmp	r3, #1
 1374 0034 14BF     		ite	ne
 1375 0036 0123     		movne	r3, #1
 1376 0038 0023     		moveq	r3, #0
 1377 003a DBB2     		uxtb	r3, r3
 1378 003c 15E0     		b	.L57
 1379              	.L58:
ARM GAS  C:\Users\DAELT-~1\AppData\Local\Temp\cc2rhEX6.s 			page 36


 1380              		.loc 1 632 46 is_stmt 0 discriminator 5
 1381 003e 3B68     		ldr	r3, [r7]
 1382 0040 082B     		cmp	r3, #8
 1383 0042 09D1     		bne	.L60
 1384              		.loc 1 632 7 is_stmt 1 discriminator 7
 1385 0044 7B68     		ldr	r3, [r7, #4]
 1386 0046 93F84430 		ldrb	r3, [r3, #68]
 1387 004a DBB2     		uxtb	r3, r3
 1388              		.loc 1 632 46 discriminator 7
 1389 004c 012B     		cmp	r3, #1
 1390 004e 14BF     		ite	ne
 1391 0050 0123     		movne	r3, #1
 1392 0052 0023     		moveq	r3, #0
 1393 0054 DBB2     		uxtb	r3, r3
 1394 0056 08E0     		b	.L57
 1395              	.L60:
 1396              		.loc 1 632 7 discriminator 8
 1397 0058 7B68     		ldr	r3, [r7, #4]
 1398 005a 93F84530 		ldrb	r3, [r3, #69]
 1399 005e DBB2     		uxtb	r3, r3
 1400              		.loc 1 632 46 discriminator 8
 1401 0060 012B     		cmp	r3, #1
 1402 0062 14BF     		ite	ne
 1403 0064 0123     		movne	r3, #1
 1404 0066 0023     		moveq	r3, #0
 1405 0068 DBB2     		uxtb	r3, r3
 1406              	.L57:
 1407              		.loc 1 632 6 discriminator 12
 1408 006a 002B     		cmp	r3, #0
 1409 006c 01D0     		beq	.L62
 633:Drivers/STM32F4xx_HAL_Driver/Src/stm32f4xx_hal_tim_ex.c ****   {
 634:Drivers/STM32F4xx_HAL_Driver/Src/stm32f4xx_hal_tim_ex.c ****     return HAL_ERROR;
 1410              		.loc 1 634 12
 1411 006e 0123     		movs	r3, #1
 1412 0070 63E0     		b	.L63
 1413              	.L62:
 635:Drivers/STM32F4xx_HAL_Driver/Src/stm32f4xx_hal_tim_ex.c ****   }
 636:Drivers/STM32F4xx_HAL_Driver/Src/stm32f4xx_hal_tim_ex.c **** 
 637:Drivers/STM32F4xx_HAL_Driver/Src/stm32f4xx_hal_tim_ex.c ****   /* Set the TIM complementary channel state */
 638:Drivers/STM32F4xx_HAL_Driver/Src/stm32f4xx_hal_tim_ex.c ****   TIM_CHANNEL_N_STATE_SET(htim, Channel, HAL_TIM_CHANNEL_STATE_BUSY);
 1414              		.loc 1 638 3
 1415 0072 3B68     		ldr	r3, [r7]
 1416 0074 002B     		cmp	r3, #0
 1417 0076 04D1     		bne	.L64
 1418              		.loc 1 638 3 is_stmt 0 discriminator 1
 1419 0078 7B68     		ldr	r3, [r7, #4]
 1420 007a 0222     		movs	r2, #2
 1421 007c 83F84220 		strb	r2, [r3, #66]
 1422 0080 13E0     		b	.L65
 1423              	.L64:
 1424              		.loc 1 638 3 discriminator 2
 1425 0082 3B68     		ldr	r3, [r7]
 1426 0084 042B     		cmp	r3, #4
 1427 0086 04D1     		bne	.L66
 1428              		.loc 1 638 3 discriminator 3
 1429 0088 7B68     		ldr	r3, [r7, #4]
 1430 008a 0222     		movs	r2, #2
ARM GAS  C:\Users\DAELT-~1\AppData\Local\Temp\cc2rhEX6.s 			page 37


 1431 008c 83F84320 		strb	r2, [r3, #67]
 1432 0090 0BE0     		b	.L65
 1433              	.L66:
 1434              		.loc 1 638 3 discriminator 4
 1435 0092 3B68     		ldr	r3, [r7]
 1436 0094 082B     		cmp	r3, #8
 1437 0096 04D1     		bne	.L68
 1438              		.loc 1 638 3 discriminator 6
 1439 0098 7B68     		ldr	r3, [r7, #4]
 1440 009a 0222     		movs	r2, #2
 1441 009c 83F84420 		strb	r2, [r3, #68]
 1442 00a0 03E0     		b	.L65
 1443              	.L68:
 1444              		.loc 1 638 3 discriminator 7
 1445 00a2 7B68     		ldr	r3, [r7, #4]
 1446 00a4 0222     		movs	r2, #2
 1447 00a6 83F84520 		strb	r2, [r3, #69]
 1448              	.L65:
 639:Drivers/STM32F4xx_HAL_Driver/Src/stm32f4xx_hal_tim_ex.c **** 
 640:Drivers/STM32F4xx_HAL_Driver/Src/stm32f4xx_hal_tim_ex.c ****   /* Enable the Capture compare channel N */
 641:Drivers/STM32F4xx_HAL_Driver/Src/stm32f4xx_hal_tim_ex.c ****   TIM_CCxNChannelCmd(htim->Instance, Channel, TIM_CCxN_ENABLE);
 1449              		.loc 1 641 3 is_stmt 1
 1450 00aa 7B68     		ldr	r3, [r7, #4]
 1451 00ac 1B68     		ldr	r3, [r3]
 1452 00ae 0422     		movs	r2, #4
 1453 00b0 3968     		ldr	r1, [r7]
 1454 00b2 1846     		mov	r0, r3
 1455 00b4 FFF7FEFF 		bl	TIM_CCxNChannelCmd
 642:Drivers/STM32F4xx_HAL_Driver/Src/stm32f4xx_hal_tim_ex.c **** 
 643:Drivers/STM32F4xx_HAL_Driver/Src/stm32f4xx_hal_tim_ex.c ****   /* Enable the Main Output */
 644:Drivers/STM32F4xx_HAL_Driver/Src/stm32f4xx_hal_tim_ex.c ****   __HAL_TIM_MOE_ENABLE(htim);
 1456              		.loc 1 644 3
 1457 00b8 7B68     		ldr	r3, [r7, #4]
 1458 00ba 1B68     		ldr	r3, [r3]
 1459 00bc 5A6C     		ldr	r2, [r3, #68]
 1460 00be 7B68     		ldr	r3, [r7, #4]
 1461 00c0 1B68     		ldr	r3, [r3]
 1462 00c2 42F40042 		orr	r2, r2, #32768
 1463 00c6 5A64     		str	r2, [r3, #68]
 645:Drivers/STM32F4xx_HAL_Driver/Src/stm32f4xx_hal_tim_ex.c **** 
 646:Drivers/STM32F4xx_HAL_Driver/Src/stm32f4xx_hal_tim_ex.c ****   /* Enable the Peripheral, except in trigger mode where enable is automatically done with trigger 
 647:Drivers/STM32F4xx_HAL_Driver/Src/stm32f4xx_hal_tim_ex.c ****   if (IS_TIM_SLAVE_INSTANCE(htim->Instance))
 1464              		.loc 1 647 7
 1465 00c8 7B68     		ldr	r3, [r7, #4]
 1466 00ca 1B68     		ldr	r3, [r3]
 1467              		.loc 1 647 6
 1468 00cc 1D4A     		ldr	r2, .L74
 1469 00ce 9342     		cmp	r3, r2
 1470 00d0 18D0     		beq	.L70
 1471              		.loc 1 647 7 discriminator 1
 1472 00d2 7B68     		ldr	r3, [r7, #4]
 1473 00d4 1B68     		ldr	r3, [r3]
 1474 00d6 B3F1804F 		cmp	r3, #1073741824
 1475 00da 13D0     		beq	.L70
 1476              		.loc 1 647 7 is_stmt 0 discriminator 2
 1477 00dc 7B68     		ldr	r3, [r7, #4]
 1478 00de 1B68     		ldr	r3, [r3]
ARM GAS  C:\Users\DAELT-~1\AppData\Local\Temp\cc2rhEX6.s 			page 38


 1479 00e0 194A     		ldr	r2, .L74+4
 1480 00e2 9342     		cmp	r3, r2
 1481 00e4 0ED0     		beq	.L70
 1482              		.loc 1 647 7 discriminator 3
 1483 00e6 7B68     		ldr	r3, [r7, #4]
 1484 00e8 1B68     		ldr	r3, [r3]
 1485 00ea 184A     		ldr	r2, .L74+8
 1486 00ec 9342     		cmp	r3, r2
 1487 00ee 09D0     		beq	.L70
 1488              		.loc 1 647 7 discriminator 4
 1489 00f0 7B68     		ldr	r3, [r7, #4]
 1490 00f2 1B68     		ldr	r3, [r3]
 1491 00f4 164A     		ldr	r2, .L74+12
 1492 00f6 9342     		cmp	r3, r2
 1493 00f8 04D0     		beq	.L70
 1494              		.loc 1 647 7 discriminator 5
 1495 00fa 7B68     		ldr	r3, [r7, #4]
 1496 00fc 1B68     		ldr	r3, [r3]
 1497 00fe 154A     		ldr	r2, .L74+16
 1498 0100 9342     		cmp	r3, r2
 1499 0102 11D1     		bne	.L71
 1500              	.L70:
 648:Drivers/STM32F4xx_HAL_Driver/Src/stm32f4xx_hal_tim_ex.c ****   {
 649:Drivers/STM32F4xx_HAL_Driver/Src/stm32f4xx_hal_tim_ex.c ****     tmpsmcr = htim->Instance->SMCR & TIM_SMCR_SMS;
 1501              		.loc 1 649 19 is_stmt 1
 1502 0104 7B68     		ldr	r3, [r7, #4]
 1503 0106 1B68     		ldr	r3, [r3]
 1504              		.loc 1 649 29
 1505 0108 9B68     		ldr	r3, [r3, #8]
 1506              		.loc 1 649 13
 1507 010a 03F00703 		and	r3, r3, #7
 1508 010e FB60     		str	r3, [r7, #12]
 650:Drivers/STM32F4xx_HAL_Driver/Src/stm32f4xx_hal_tim_ex.c ****     if (!IS_TIM_SLAVEMODE_TRIGGER_ENABLED(tmpsmcr))
 1509              		.loc 1 650 8
 1510 0110 FB68     		ldr	r3, [r7, #12]
 1511 0112 062B     		cmp	r3, #6
 1512 0114 10D0     		beq	.L73
 651:Drivers/STM32F4xx_HAL_Driver/Src/stm32f4xx_hal_tim_ex.c ****     {
 652:Drivers/STM32F4xx_HAL_Driver/Src/stm32f4xx_hal_tim_ex.c ****       __HAL_TIM_ENABLE(htim);
 1513              		.loc 1 652 7
 1514 0116 7B68     		ldr	r3, [r7, #4]
 1515 0118 1B68     		ldr	r3, [r3]
 1516 011a 1A68     		ldr	r2, [r3]
 1517 011c 7B68     		ldr	r3, [r7, #4]
 1518 011e 1B68     		ldr	r3, [r3]
 1519 0120 42F00102 		orr	r2, r2, #1
 1520 0124 1A60     		str	r2, [r3]
 650:Drivers/STM32F4xx_HAL_Driver/Src/stm32f4xx_hal_tim_ex.c ****     if (!IS_TIM_SLAVEMODE_TRIGGER_ENABLED(tmpsmcr))
 1521              		.loc 1 650 8
 1522 0126 07E0     		b	.L73
 1523              	.L71:
 653:Drivers/STM32F4xx_HAL_Driver/Src/stm32f4xx_hal_tim_ex.c ****     }
 654:Drivers/STM32F4xx_HAL_Driver/Src/stm32f4xx_hal_tim_ex.c ****   }
 655:Drivers/STM32F4xx_HAL_Driver/Src/stm32f4xx_hal_tim_ex.c ****   else
 656:Drivers/STM32F4xx_HAL_Driver/Src/stm32f4xx_hal_tim_ex.c ****   {
 657:Drivers/STM32F4xx_HAL_Driver/Src/stm32f4xx_hal_tim_ex.c ****     __HAL_TIM_ENABLE(htim);
 1524              		.loc 1 657 5
ARM GAS  C:\Users\DAELT-~1\AppData\Local\Temp\cc2rhEX6.s 			page 39


 1525 0128 7B68     		ldr	r3, [r7, #4]
 1526 012a 1B68     		ldr	r3, [r3]
 1527 012c 1A68     		ldr	r2, [r3]
 1528 012e 7B68     		ldr	r3, [r7, #4]
 1529 0130 1B68     		ldr	r3, [r3]
 1530 0132 42F00102 		orr	r2, r2, #1
 1531 0136 1A60     		str	r2, [r3]
 1532              	.L73:
 658:Drivers/STM32F4xx_HAL_Driver/Src/stm32f4xx_hal_tim_ex.c ****   }
 659:Drivers/STM32F4xx_HAL_Driver/Src/stm32f4xx_hal_tim_ex.c **** 
 660:Drivers/STM32F4xx_HAL_Driver/Src/stm32f4xx_hal_tim_ex.c ****   /* Return function status */
 661:Drivers/STM32F4xx_HAL_Driver/Src/stm32f4xx_hal_tim_ex.c ****   return HAL_OK;
 1533              		.loc 1 661 10
 1534 0138 0023     		movs	r3, #0
 1535              	.L63:
 662:Drivers/STM32F4xx_HAL_Driver/Src/stm32f4xx_hal_tim_ex.c **** }
 1536              		.loc 1 662 1
 1537 013a 1846     		mov	r0, r3
 1538 013c 1037     		adds	r7, r7, #16
 1539              	.LCFI55:
 1540              		.cfi_def_cfa_offset 8
 1541 013e BD46     		mov	sp, r7
 1542              	.LCFI56:
 1543              		.cfi_def_cfa_register 13
 1544              		@ sp needed
 1545 0140 80BD     		pop	{r7, pc}
 1546              	.L75:
 1547 0142 00BF     		.align	2
 1548              	.L74:
 1549 0144 00000140 		.word	1073807360
 1550 0148 00040040 		.word	1073742848
 1551 014c 00080040 		.word	1073743872
 1552 0150 000C0040 		.word	1073744896
 1553 0154 00400140 		.word	1073823744
 1554              		.cfi_endproc
 1555              	.LFE140:
 1557              		.section	.text.HAL_TIMEx_OCN_Stop,"ax",%progbits
 1558              		.align	1
 1559              		.global	HAL_TIMEx_OCN_Stop
 1560              		.syntax unified
 1561              		.thumb
 1562              		.thumb_func
 1564              	HAL_TIMEx_OCN_Stop:
 1565              	.LFB141:
 663:Drivers/STM32F4xx_HAL_Driver/Src/stm32f4xx_hal_tim_ex.c **** 
 664:Drivers/STM32F4xx_HAL_Driver/Src/stm32f4xx_hal_tim_ex.c **** /**
 665:Drivers/STM32F4xx_HAL_Driver/Src/stm32f4xx_hal_tim_ex.c ****   * @brief  Stops the TIM Output Compare signal generation on the complementary
 666:Drivers/STM32F4xx_HAL_Driver/Src/stm32f4xx_hal_tim_ex.c ****   *         output.
 667:Drivers/STM32F4xx_HAL_Driver/Src/stm32f4xx_hal_tim_ex.c ****   * @param  htim TIM handle
 668:Drivers/STM32F4xx_HAL_Driver/Src/stm32f4xx_hal_tim_ex.c ****   * @param  Channel TIM Channel to be disabled
 669:Drivers/STM32F4xx_HAL_Driver/Src/stm32f4xx_hal_tim_ex.c ****   *          This parameter can be one of the following values:
 670:Drivers/STM32F4xx_HAL_Driver/Src/stm32f4xx_hal_tim_ex.c ****   *            @arg TIM_CHANNEL_1: TIM Channel 1 selected
 671:Drivers/STM32F4xx_HAL_Driver/Src/stm32f4xx_hal_tim_ex.c ****   *            @arg TIM_CHANNEL_2: TIM Channel 2 selected
 672:Drivers/STM32F4xx_HAL_Driver/Src/stm32f4xx_hal_tim_ex.c ****   *            @arg TIM_CHANNEL_3: TIM Channel 3 selected
 673:Drivers/STM32F4xx_HAL_Driver/Src/stm32f4xx_hal_tim_ex.c ****   * @retval HAL status
 674:Drivers/STM32F4xx_HAL_Driver/Src/stm32f4xx_hal_tim_ex.c ****   */
 675:Drivers/STM32F4xx_HAL_Driver/Src/stm32f4xx_hal_tim_ex.c **** HAL_StatusTypeDef HAL_TIMEx_OCN_Stop(TIM_HandleTypeDef *htim, uint32_t Channel)
ARM GAS  C:\Users\DAELT-~1\AppData\Local\Temp\cc2rhEX6.s 			page 40


 676:Drivers/STM32F4xx_HAL_Driver/Src/stm32f4xx_hal_tim_ex.c **** {
 1566              		.loc 1 676 1
 1567              		.cfi_startproc
 1568              		@ args = 0, pretend = 0, frame = 8
 1569              		@ frame_needed = 1, uses_anonymous_args = 0
 1570 0000 80B5     		push	{r7, lr}
 1571              	.LCFI57:
 1572              		.cfi_def_cfa_offset 8
 1573              		.cfi_offset 7, -8
 1574              		.cfi_offset 14, -4
 1575 0002 82B0     		sub	sp, sp, #8
 1576              	.LCFI58:
 1577              		.cfi_def_cfa_offset 16
 1578 0004 00AF     		add	r7, sp, #0
 1579              	.LCFI59:
 1580              		.cfi_def_cfa_register 7
 1581 0006 7860     		str	r0, [r7, #4]
 1582 0008 3960     		str	r1, [r7]
 677:Drivers/STM32F4xx_HAL_Driver/Src/stm32f4xx_hal_tim_ex.c ****   /* Check the parameters */
 678:Drivers/STM32F4xx_HAL_Driver/Src/stm32f4xx_hal_tim_ex.c ****   assert_param(IS_TIM_CCXN_INSTANCE(htim->Instance, Channel));
 679:Drivers/STM32F4xx_HAL_Driver/Src/stm32f4xx_hal_tim_ex.c **** 
 680:Drivers/STM32F4xx_HAL_Driver/Src/stm32f4xx_hal_tim_ex.c ****   /* Disable the Capture compare channel N */
 681:Drivers/STM32F4xx_HAL_Driver/Src/stm32f4xx_hal_tim_ex.c ****   TIM_CCxNChannelCmd(htim->Instance, Channel, TIM_CCxN_DISABLE);
 1583              		.loc 1 681 3
 1584 000a 7B68     		ldr	r3, [r7, #4]
 1585 000c 1B68     		ldr	r3, [r3]
 1586 000e 0022     		movs	r2, #0
 1587 0010 3968     		ldr	r1, [r7]
 1588 0012 1846     		mov	r0, r3
 1589 0014 FFF7FEFF 		bl	TIM_CCxNChannelCmd
 682:Drivers/STM32F4xx_HAL_Driver/Src/stm32f4xx_hal_tim_ex.c **** 
 683:Drivers/STM32F4xx_HAL_Driver/Src/stm32f4xx_hal_tim_ex.c ****   /* Disable the Main Output */
 684:Drivers/STM32F4xx_HAL_Driver/Src/stm32f4xx_hal_tim_ex.c ****   __HAL_TIM_MOE_DISABLE(htim);
 1590              		.loc 1 684 3
 1591 0018 7B68     		ldr	r3, [r7, #4]
 1592 001a 1B68     		ldr	r3, [r3]
 1593 001c 1A6A     		ldr	r2, [r3, #32]
 1594 001e 41F21113 		movw	r3, #4369
 1595 0022 1340     		ands	r3, r3, r2
 1596 0024 002B     		cmp	r3, #0
 1597 0026 0FD1     		bne	.L77
 1598              		.loc 1 684 3 is_stmt 0 discriminator 1
 1599 0028 7B68     		ldr	r3, [r7, #4]
 1600 002a 1B68     		ldr	r3, [r3]
 1601 002c 1A6A     		ldr	r2, [r3, #32]
 1602 002e 40F24443 		movw	r3, #1092
 1603 0032 1340     		ands	r3, r3, r2
 1604 0034 002B     		cmp	r3, #0
 1605 0036 07D1     		bne	.L77
 1606              		.loc 1 684 3 discriminator 2
 1607 0038 7B68     		ldr	r3, [r7, #4]
 1608 003a 1B68     		ldr	r3, [r3]
 1609 003c 5A6C     		ldr	r2, [r3, #68]
 1610 003e 7B68     		ldr	r3, [r7, #4]
 1611 0040 1B68     		ldr	r3, [r3]
 1612 0042 22F40042 		bic	r2, r2, #32768
 1613 0046 5A64     		str	r2, [r3, #68]
ARM GAS  C:\Users\DAELT-~1\AppData\Local\Temp\cc2rhEX6.s 			page 41


 1614              	.L77:
 685:Drivers/STM32F4xx_HAL_Driver/Src/stm32f4xx_hal_tim_ex.c **** 
 686:Drivers/STM32F4xx_HAL_Driver/Src/stm32f4xx_hal_tim_ex.c ****   /* Disable the Peripheral */
 687:Drivers/STM32F4xx_HAL_Driver/Src/stm32f4xx_hal_tim_ex.c ****   __HAL_TIM_DISABLE(htim);
 1615              		.loc 1 687 3 is_stmt 1
 1616 0048 7B68     		ldr	r3, [r7, #4]
 1617 004a 1B68     		ldr	r3, [r3]
 1618 004c 1A6A     		ldr	r2, [r3, #32]
 1619 004e 41F21113 		movw	r3, #4369
 1620 0052 1340     		ands	r3, r3, r2
 1621 0054 002B     		cmp	r3, #0
 1622 0056 0FD1     		bne	.L78
 1623              		.loc 1 687 3 is_stmt 0 discriminator 1
 1624 0058 7B68     		ldr	r3, [r7, #4]
 1625 005a 1B68     		ldr	r3, [r3]
 1626 005c 1A6A     		ldr	r2, [r3, #32]
 1627 005e 40F24443 		movw	r3, #1092
 1628 0062 1340     		ands	r3, r3, r2
 1629 0064 002B     		cmp	r3, #0
 1630 0066 07D1     		bne	.L78
 1631              		.loc 1 687 3 discriminator 2
 1632 0068 7B68     		ldr	r3, [r7, #4]
 1633 006a 1B68     		ldr	r3, [r3]
 1634 006c 1A68     		ldr	r2, [r3]
 1635 006e 7B68     		ldr	r3, [r7, #4]
 1636 0070 1B68     		ldr	r3, [r3]
 1637 0072 22F00102 		bic	r2, r2, #1
 1638 0076 1A60     		str	r2, [r3]
 1639              	.L78:
 688:Drivers/STM32F4xx_HAL_Driver/Src/stm32f4xx_hal_tim_ex.c **** 
 689:Drivers/STM32F4xx_HAL_Driver/Src/stm32f4xx_hal_tim_ex.c ****   /* Set the TIM complementary channel state */
 690:Drivers/STM32F4xx_HAL_Driver/Src/stm32f4xx_hal_tim_ex.c ****   TIM_CHANNEL_N_STATE_SET(htim, Channel, HAL_TIM_CHANNEL_STATE_READY);
 1640              		.loc 1 690 3 is_stmt 1
 1641 0078 3B68     		ldr	r3, [r7]
 1642 007a 002B     		cmp	r3, #0
 1643 007c 04D1     		bne	.L79
 1644              		.loc 1 690 3 is_stmt 0 discriminator 1
 1645 007e 7B68     		ldr	r3, [r7, #4]
 1646 0080 0122     		movs	r2, #1
 1647 0082 83F84220 		strb	r2, [r3, #66]
 1648 0086 13E0     		b	.L80
 1649              	.L79:
 1650              		.loc 1 690 3 discriminator 2
 1651 0088 3B68     		ldr	r3, [r7]
 1652 008a 042B     		cmp	r3, #4
 1653 008c 04D1     		bne	.L81
 1654              		.loc 1 690 3 discriminator 3
 1655 008e 7B68     		ldr	r3, [r7, #4]
 1656 0090 0122     		movs	r2, #1
 1657 0092 83F84320 		strb	r2, [r3, #67]
 1658 0096 0BE0     		b	.L80
 1659              	.L81:
 1660              		.loc 1 690 3 discriminator 4
 1661 0098 3B68     		ldr	r3, [r7]
 1662 009a 082B     		cmp	r3, #8
 1663 009c 04D1     		bne	.L83
 1664              		.loc 1 690 3 discriminator 6
ARM GAS  C:\Users\DAELT-~1\AppData\Local\Temp\cc2rhEX6.s 			page 42


 1665 009e 7B68     		ldr	r3, [r7, #4]
 1666 00a0 0122     		movs	r2, #1
 1667 00a2 83F84420 		strb	r2, [r3, #68]
 1668 00a6 03E0     		b	.L80
 1669              	.L83:
 1670              		.loc 1 690 3 discriminator 7
 1671 00a8 7B68     		ldr	r3, [r7, #4]
 1672 00aa 0122     		movs	r2, #1
 1673 00ac 83F84520 		strb	r2, [r3, #69]
 1674              	.L80:
 691:Drivers/STM32F4xx_HAL_Driver/Src/stm32f4xx_hal_tim_ex.c **** 
 692:Drivers/STM32F4xx_HAL_Driver/Src/stm32f4xx_hal_tim_ex.c ****   /* Return function status */
 693:Drivers/STM32F4xx_HAL_Driver/Src/stm32f4xx_hal_tim_ex.c ****   return HAL_OK;
 1675              		.loc 1 693 10 is_stmt 1
 1676 00b0 0023     		movs	r3, #0
 694:Drivers/STM32F4xx_HAL_Driver/Src/stm32f4xx_hal_tim_ex.c **** }
 1677              		.loc 1 694 1
 1678 00b2 1846     		mov	r0, r3
 1679 00b4 0837     		adds	r7, r7, #8
 1680              	.LCFI60:
 1681              		.cfi_def_cfa_offset 8
 1682 00b6 BD46     		mov	sp, r7
 1683              	.LCFI61:
 1684              		.cfi_def_cfa_register 13
 1685              		@ sp needed
 1686 00b8 80BD     		pop	{r7, pc}
 1687              		.cfi_endproc
 1688              	.LFE141:
 1690              		.section	.text.HAL_TIMEx_OCN_Start_IT,"ax",%progbits
 1691              		.align	1
 1692              		.global	HAL_TIMEx_OCN_Start_IT
 1693              		.syntax unified
 1694              		.thumb
 1695              		.thumb_func
 1697              	HAL_TIMEx_OCN_Start_IT:
 1698              	.LFB142:
 695:Drivers/STM32F4xx_HAL_Driver/Src/stm32f4xx_hal_tim_ex.c **** 
 696:Drivers/STM32F4xx_HAL_Driver/Src/stm32f4xx_hal_tim_ex.c **** /**
 697:Drivers/STM32F4xx_HAL_Driver/Src/stm32f4xx_hal_tim_ex.c ****   * @brief  Starts the TIM Output Compare signal generation in interrupt mode
 698:Drivers/STM32F4xx_HAL_Driver/Src/stm32f4xx_hal_tim_ex.c ****   *         on the complementary output.
 699:Drivers/STM32F4xx_HAL_Driver/Src/stm32f4xx_hal_tim_ex.c ****   * @param  htim TIM OC handle
 700:Drivers/STM32F4xx_HAL_Driver/Src/stm32f4xx_hal_tim_ex.c ****   * @param  Channel TIM Channel to be enabled
 701:Drivers/STM32F4xx_HAL_Driver/Src/stm32f4xx_hal_tim_ex.c ****   *          This parameter can be one of the following values:
 702:Drivers/STM32F4xx_HAL_Driver/Src/stm32f4xx_hal_tim_ex.c ****   *            @arg TIM_CHANNEL_1: TIM Channel 1 selected
 703:Drivers/STM32F4xx_HAL_Driver/Src/stm32f4xx_hal_tim_ex.c ****   *            @arg TIM_CHANNEL_2: TIM Channel 2 selected
 704:Drivers/STM32F4xx_HAL_Driver/Src/stm32f4xx_hal_tim_ex.c ****   *            @arg TIM_CHANNEL_3: TIM Channel 3 selected
 705:Drivers/STM32F4xx_HAL_Driver/Src/stm32f4xx_hal_tim_ex.c ****   * @retval HAL status
 706:Drivers/STM32F4xx_HAL_Driver/Src/stm32f4xx_hal_tim_ex.c ****   */
 707:Drivers/STM32F4xx_HAL_Driver/Src/stm32f4xx_hal_tim_ex.c **** HAL_StatusTypeDef HAL_TIMEx_OCN_Start_IT(TIM_HandleTypeDef *htim, uint32_t Channel)
 708:Drivers/STM32F4xx_HAL_Driver/Src/stm32f4xx_hal_tim_ex.c **** {
 1699              		.loc 1 708 1
 1700              		.cfi_startproc
 1701              		@ args = 0, pretend = 0, frame = 16
 1702              		@ frame_needed = 1, uses_anonymous_args = 0
 1703 0000 80B5     		push	{r7, lr}
 1704              	.LCFI62:
 1705              		.cfi_def_cfa_offset 8
ARM GAS  C:\Users\DAELT-~1\AppData\Local\Temp\cc2rhEX6.s 			page 43


 1706              		.cfi_offset 7, -8
 1707              		.cfi_offset 14, -4
 1708 0002 84B0     		sub	sp, sp, #16
 1709              	.LCFI63:
 1710              		.cfi_def_cfa_offset 24
 1711 0004 00AF     		add	r7, sp, #0
 1712              	.LCFI64:
 1713              		.cfi_def_cfa_register 7
 1714 0006 7860     		str	r0, [r7, #4]
 1715 0008 3960     		str	r1, [r7]
 709:Drivers/STM32F4xx_HAL_Driver/Src/stm32f4xx_hal_tim_ex.c ****   HAL_StatusTypeDef status = HAL_OK;
 1716              		.loc 1 709 21
 1717 000a 0023     		movs	r3, #0
 1718 000c FB73     		strb	r3, [r7, #15]
 710:Drivers/STM32F4xx_HAL_Driver/Src/stm32f4xx_hal_tim_ex.c ****   uint32_t tmpsmcr;
 711:Drivers/STM32F4xx_HAL_Driver/Src/stm32f4xx_hal_tim_ex.c **** 
 712:Drivers/STM32F4xx_HAL_Driver/Src/stm32f4xx_hal_tim_ex.c ****   /* Check the parameters */
 713:Drivers/STM32F4xx_HAL_Driver/Src/stm32f4xx_hal_tim_ex.c ****   assert_param(IS_TIM_CCXN_INSTANCE(htim->Instance, Channel));
 714:Drivers/STM32F4xx_HAL_Driver/Src/stm32f4xx_hal_tim_ex.c **** 
 715:Drivers/STM32F4xx_HAL_Driver/Src/stm32f4xx_hal_tim_ex.c ****   /* Check the TIM complementary channel state */
 716:Drivers/STM32F4xx_HAL_Driver/Src/stm32f4xx_hal_tim_ex.c ****   if (TIM_CHANNEL_N_STATE_GET(htim, Channel) != HAL_TIM_CHANNEL_STATE_READY)
 1719              		.loc 1 716 46
 1720 000e 3B68     		ldr	r3, [r7]
 1721 0010 002B     		cmp	r3, #0
 1722 0012 09D1     		bne	.L87
 1723              		.loc 1 716 7 discriminator 1
 1724 0014 7B68     		ldr	r3, [r7, #4]
 1725 0016 93F84230 		ldrb	r3, [r3, #66]
 1726 001a DBB2     		uxtb	r3, r3
 1727              		.loc 1 716 46 discriminator 1
 1728 001c 012B     		cmp	r3, #1
 1729 001e 14BF     		ite	ne
 1730 0020 0123     		movne	r3, #1
 1731 0022 0023     		moveq	r3, #0
 1732 0024 DBB2     		uxtb	r3, r3
 1733 0026 22E0     		b	.L88
 1734              	.L87:
 1735              		.loc 1 716 46 is_stmt 0 discriminator 2
 1736 0028 3B68     		ldr	r3, [r7]
 1737 002a 042B     		cmp	r3, #4
 1738 002c 09D1     		bne	.L89
 1739              		.loc 1 716 7 is_stmt 1 discriminator 4
 1740 002e 7B68     		ldr	r3, [r7, #4]
 1741 0030 93F84330 		ldrb	r3, [r3, #67]
 1742 0034 DBB2     		uxtb	r3, r3
 1743              		.loc 1 716 46 discriminator 4
 1744 0036 012B     		cmp	r3, #1
 1745 0038 14BF     		ite	ne
 1746 003a 0123     		movne	r3, #1
 1747 003c 0023     		moveq	r3, #0
 1748 003e DBB2     		uxtb	r3, r3
 1749 0040 15E0     		b	.L88
 1750              	.L89:
 1751              		.loc 1 716 46 is_stmt 0 discriminator 5
 1752 0042 3B68     		ldr	r3, [r7]
 1753 0044 082B     		cmp	r3, #8
 1754 0046 09D1     		bne	.L91
ARM GAS  C:\Users\DAELT-~1\AppData\Local\Temp\cc2rhEX6.s 			page 44


 1755              		.loc 1 716 7 is_stmt 1 discriminator 7
 1756 0048 7B68     		ldr	r3, [r7, #4]
 1757 004a 93F84430 		ldrb	r3, [r3, #68]
 1758 004e DBB2     		uxtb	r3, r3
 1759              		.loc 1 716 46 discriminator 7
 1760 0050 012B     		cmp	r3, #1
 1761 0052 14BF     		ite	ne
 1762 0054 0123     		movne	r3, #1
 1763 0056 0023     		moveq	r3, #0
 1764 0058 DBB2     		uxtb	r3, r3
 1765 005a 08E0     		b	.L88
 1766              	.L91:
 1767              		.loc 1 716 7 discriminator 8
 1768 005c 7B68     		ldr	r3, [r7, #4]
 1769 005e 93F84530 		ldrb	r3, [r3, #69]
 1770 0062 DBB2     		uxtb	r3, r3
 1771              		.loc 1 716 46 discriminator 8
 1772 0064 012B     		cmp	r3, #1
 1773 0066 14BF     		ite	ne
 1774 0068 0123     		movne	r3, #1
 1775 006a 0023     		moveq	r3, #0
 1776 006c DBB2     		uxtb	r3, r3
 1777              	.L88:
 1778              		.loc 1 716 6 discriminator 12
 1779 006e 002B     		cmp	r3, #0
 1780 0070 01D0     		beq	.L93
 717:Drivers/STM32F4xx_HAL_Driver/Src/stm32f4xx_hal_tim_ex.c ****   {
 718:Drivers/STM32F4xx_HAL_Driver/Src/stm32f4xx_hal_tim_ex.c ****     return HAL_ERROR;
 1781              		.loc 1 718 12
 1782 0072 0123     		movs	r3, #1
 1783 0074 99E0     		b	.L94
 1784              	.L93:
 719:Drivers/STM32F4xx_HAL_Driver/Src/stm32f4xx_hal_tim_ex.c ****   }
 720:Drivers/STM32F4xx_HAL_Driver/Src/stm32f4xx_hal_tim_ex.c **** 
 721:Drivers/STM32F4xx_HAL_Driver/Src/stm32f4xx_hal_tim_ex.c ****   /* Set the TIM complementary channel state */
 722:Drivers/STM32F4xx_HAL_Driver/Src/stm32f4xx_hal_tim_ex.c ****   TIM_CHANNEL_N_STATE_SET(htim, Channel, HAL_TIM_CHANNEL_STATE_BUSY);
 1785              		.loc 1 722 3
 1786 0076 3B68     		ldr	r3, [r7]
 1787 0078 002B     		cmp	r3, #0
 1788 007a 04D1     		bne	.L95
 1789              		.loc 1 722 3 is_stmt 0 discriminator 1
 1790 007c 7B68     		ldr	r3, [r7, #4]
 1791 007e 0222     		movs	r2, #2
 1792 0080 83F84220 		strb	r2, [r3, #66]
 1793 0084 13E0     		b	.L96
 1794              	.L95:
 1795              		.loc 1 722 3 discriminator 2
 1796 0086 3B68     		ldr	r3, [r7]
 1797 0088 042B     		cmp	r3, #4
 1798 008a 04D1     		bne	.L97
 1799              		.loc 1 722 3 discriminator 3
 1800 008c 7B68     		ldr	r3, [r7, #4]
 1801 008e 0222     		movs	r2, #2
 1802 0090 83F84320 		strb	r2, [r3, #67]
 1803 0094 0BE0     		b	.L96
 1804              	.L97:
 1805              		.loc 1 722 3 discriminator 4
ARM GAS  C:\Users\DAELT-~1\AppData\Local\Temp\cc2rhEX6.s 			page 45


 1806 0096 3B68     		ldr	r3, [r7]
 1807 0098 082B     		cmp	r3, #8
 1808 009a 04D1     		bne	.L99
 1809              		.loc 1 722 3 discriminator 6
 1810 009c 7B68     		ldr	r3, [r7, #4]
 1811 009e 0222     		movs	r2, #2
 1812 00a0 83F84420 		strb	r2, [r3, #68]
 1813 00a4 03E0     		b	.L96
 1814              	.L99:
 1815              		.loc 1 722 3 discriminator 7
 1816 00a6 7B68     		ldr	r3, [r7, #4]
 1817 00a8 0222     		movs	r2, #2
 1818 00aa 83F84520 		strb	r2, [r3, #69]
 1819              	.L96:
 723:Drivers/STM32F4xx_HAL_Driver/Src/stm32f4xx_hal_tim_ex.c **** 
 724:Drivers/STM32F4xx_HAL_Driver/Src/stm32f4xx_hal_tim_ex.c ****   switch (Channel)
 1820              		.loc 1 724 3 is_stmt 1
 1821 00ae 3B68     		ldr	r3, [r7]
 1822 00b0 082B     		cmp	r3, #8
 1823 00b2 1BD0     		beq	.L101
 1824 00b4 3B68     		ldr	r3, [r7]
 1825 00b6 082B     		cmp	r3, #8
 1826 00b8 21D8     		bhi	.L102
 1827 00ba 3B68     		ldr	r3, [r7]
 1828 00bc 002B     		cmp	r3, #0
 1829 00be 03D0     		beq	.L103
 1830 00c0 3B68     		ldr	r3, [r7]
 1831 00c2 042B     		cmp	r3, #4
 1832 00c4 09D0     		beq	.L104
 1833 00c6 1AE0     		b	.L102
 1834              	.L103:
 725:Drivers/STM32F4xx_HAL_Driver/Src/stm32f4xx_hal_tim_ex.c ****   {
 726:Drivers/STM32F4xx_HAL_Driver/Src/stm32f4xx_hal_tim_ex.c ****     case TIM_CHANNEL_1:
 727:Drivers/STM32F4xx_HAL_Driver/Src/stm32f4xx_hal_tim_ex.c ****     {
 728:Drivers/STM32F4xx_HAL_Driver/Src/stm32f4xx_hal_tim_ex.c ****       /* Enable the TIM Output Compare interrupt */
 729:Drivers/STM32F4xx_HAL_Driver/Src/stm32f4xx_hal_tim_ex.c ****       __HAL_TIM_ENABLE_IT(htim, TIM_IT_CC1);
 1835              		.loc 1 729 7
 1836 00c8 7B68     		ldr	r3, [r7, #4]
 1837 00ca 1B68     		ldr	r3, [r3]
 1838 00cc DA68     		ldr	r2, [r3, #12]
 1839 00ce 7B68     		ldr	r3, [r7, #4]
 1840 00d0 1B68     		ldr	r3, [r3]
 1841 00d2 42F00202 		orr	r2, r2, #2
 1842 00d6 DA60     		str	r2, [r3, #12]
 730:Drivers/STM32F4xx_HAL_Driver/Src/stm32f4xx_hal_tim_ex.c ****       break;
 1843              		.loc 1 730 7
 1844 00d8 14E0     		b	.L105
 1845              	.L104:
 731:Drivers/STM32F4xx_HAL_Driver/Src/stm32f4xx_hal_tim_ex.c ****     }
 732:Drivers/STM32F4xx_HAL_Driver/Src/stm32f4xx_hal_tim_ex.c **** 
 733:Drivers/STM32F4xx_HAL_Driver/Src/stm32f4xx_hal_tim_ex.c ****     case TIM_CHANNEL_2:
 734:Drivers/STM32F4xx_HAL_Driver/Src/stm32f4xx_hal_tim_ex.c ****     {
 735:Drivers/STM32F4xx_HAL_Driver/Src/stm32f4xx_hal_tim_ex.c ****       /* Enable the TIM Output Compare interrupt */
 736:Drivers/STM32F4xx_HAL_Driver/Src/stm32f4xx_hal_tim_ex.c ****       __HAL_TIM_ENABLE_IT(htim, TIM_IT_CC2);
 1846              		.loc 1 736 7
 1847 00da 7B68     		ldr	r3, [r7, #4]
 1848 00dc 1B68     		ldr	r3, [r3]
ARM GAS  C:\Users\DAELT-~1\AppData\Local\Temp\cc2rhEX6.s 			page 46


 1849 00de DA68     		ldr	r2, [r3, #12]
 1850 00e0 7B68     		ldr	r3, [r7, #4]
 1851 00e2 1B68     		ldr	r3, [r3]
 1852 00e4 42F00402 		orr	r2, r2, #4
 1853 00e8 DA60     		str	r2, [r3, #12]
 737:Drivers/STM32F4xx_HAL_Driver/Src/stm32f4xx_hal_tim_ex.c ****       break;
 1854              		.loc 1 737 7
 1855 00ea 0BE0     		b	.L105
 1856              	.L101:
 738:Drivers/STM32F4xx_HAL_Driver/Src/stm32f4xx_hal_tim_ex.c ****     }
 739:Drivers/STM32F4xx_HAL_Driver/Src/stm32f4xx_hal_tim_ex.c **** 
 740:Drivers/STM32F4xx_HAL_Driver/Src/stm32f4xx_hal_tim_ex.c ****     case TIM_CHANNEL_3:
 741:Drivers/STM32F4xx_HAL_Driver/Src/stm32f4xx_hal_tim_ex.c ****     {
 742:Drivers/STM32F4xx_HAL_Driver/Src/stm32f4xx_hal_tim_ex.c ****       /* Enable the TIM Output Compare interrupt */
 743:Drivers/STM32F4xx_HAL_Driver/Src/stm32f4xx_hal_tim_ex.c ****       __HAL_TIM_ENABLE_IT(htim, TIM_IT_CC3);
 1857              		.loc 1 743 7
 1858 00ec 7B68     		ldr	r3, [r7, #4]
 1859 00ee 1B68     		ldr	r3, [r3]
 1860 00f0 DA68     		ldr	r2, [r3, #12]
 1861 00f2 7B68     		ldr	r3, [r7, #4]
 1862 00f4 1B68     		ldr	r3, [r3]
 1863 00f6 42F00802 		orr	r2, r2, #8
 1864 00fa DA60     		str	r2, [r3, #12]
 744:Drivers/STM32F4xx_HAL_Driver/Src/stm32f4xx_hal_tim_ex.c ****       break;
 1865              		.loc 1 744 7
 1866 00fc 02E0     		b	.L105
 1867              	.L102:
 745:Drivers/STM32F4xx_HAL_Driver/Src/stm32f4xx_hal_tim_ex.c ****     }
 746:Drivers/STM32F4xx_HAL_Driver/Src/stm32f4xx_hal_tim_ex.c **** 
 747:Drivers/STM32F4xx_HAL_Driver/Src/stm32f4xx_hal_tim_ex.c **** 
 748:Drivers/STM32F4xx_HAL_Driver/Src/stm32f4xx_hal_tim_ex.c ****     default:
 749:Drivers/STM32F4xx_HAL_Driver/Src/stm32f4xx_hal_tim_ex.c ****       status = HAL_ERROR;
 1868              		.loc 1 749 14
 1869 00fe 0123     		movs	r3, #1
 1870 0100 FB73     		strb	r3, [r7, #15]
 750:Drivers/STM32F4xx_HAL_Driver/Src/stm32f4xx_hal_tim_ex.c ****       break;
 1871              		.loc 1 750 7
 1872 0102 00BF     		nop
 1873              	.L105:
 751:Drivers/STM32F4xx_HAL_Driver/Src/stm32f4xx_hal_tim_ex.c ****   }
 752:Drivers/STM32F4xx_HAL_Driver/Src/stm32f4xx_hal_tim_ex.c **** 
 753:Drivers/STM32F4xx_HAL_Driver/Src/stm32f4xx_hal_tim_ex.c ****   if (status == HAL_OK)
 1874              		.loc 1 753 6
 1875 0104 FB7B     		ldrb	r3, [r7, #15]	@ zero_extendqisi2
 1876 0106 002B     		cmp	r3, #0
 1877 0108 4ED1     		bne	.L106
 754:Drivers/STM32F4xx_HAL_Driver/Src/stm32f4xx_hal_tim_ex.c ****   {
 755:Drivers/STM32F4xx_HAL_Driver/Src/stm32f4xx_hal_tim_ex.c ****     /* Enable the TIM Break interrupt */
 756:Drivers/STM32F4xx_HAL_Driver/Src/stm32f4xx_hal_tim_ex.c ****     __HAL_TIM_ENABLE_IT(htim, TIM_IT_BREAK);
 1878              		.loc 1 756 5
 1879 010a 7B68     		ldr	r3, [r7, #4]
 1880 010c 1B68     		ldr	r3, [r3]
 1881 010e DA68     		ldr	r2, [r3, #12]
 1882 0110 7B68     		ldr	r3, [r7, #4]
 1883 0112 1B68     		ldr	r3, [r3]
 1884 0114 42F08002 		orr	r2, r2, #128
 1885 0118 DA60     		str	r2, [r3, #12]
ARM GAS  C:\Users\DAELT-~1\AppData\Local\Temp\cc2rhEX6.s 			page 47


 757:Drivers/STM32F4xx_HAL_Driver/Src/stm32f4xx_hal_tim_ex.c **** 
 758:Drivers/STM32F4xx_HAL_Driver/Src/stm32f4xx_hal_tim_ex.c ****     /* Enable the Capture compare channel N */
 759:Drivers/STM32F4xx_HAL_Driver/Src/stm32f4xx_hal_tim_ex.c ****     TIM_CCxNChannelCmd(htim->Instance, Channel, TIM_CCxN_ENABLE);
 1886              		.loc 1 759 5
 1887 011a 7B68     		ldr	r3, [r7, #4]
 1888 011c 1B68     		ldr	r3, [r3]
 1889 011e 0422     		movs	r2, #4
 1890 0120 3968     		ldr	r1, [r7]
 1891 0122 1846     		mov	r0, r3
 1892 0124 FFF7FEFF 		bl	TIM_CCxNChannelCmd
 760:Drivers/STM32F4xx_HAL_Driver/Src/stm32f4xx_hal_tim_ex.c **** 
 761:Drivers/STM32F4xx_HAL_Driver/Src/stm32f4xx_hal_tim_ex.c ****     /* Enable the Main Output */
 762:Drivers/STM32F4xx_HAL_Driver/Src/stm32f4xx_hal_tim_ex.c ****     __HAL_TIM_MOE_ENABLE(htim);
 1893              		.loc 1 762 5
 1894 0128 7B68     		ldr	r3, [r7, #4]
 1895 012a 1B68     		ldr	r3, [r3]
 1896 012c 5A6C     		ldr	r2, [r3, #68]
 1897 012e 7B68     		ldr	r3, [r7, #4]
 1898 0130 1B68     		ldr	r3, [r3]
 1899 0132 42F40042 		orr	r2, r2, #32768
 1900 0136 5A64     		str	r2, [r3, #68]
 763:Drivers/STM32F4xx_HAL_Driver/Src/stm32f4xx_hal_tim_ex.c **** 
 764:Drivers/STM32F4xx_HAL_Driver/Src/stm32f4xx_hal_tim_ex.c ****     /* Enable the Peripheral, except in trigger mode where enable is automatically done with trigge
 765:Drivers/STM32F4xx_HAL_Driver/Src/stm32f4xx_hal_tim_ex.c ****     if (IS_TIM_SLAVE_INSTANCE(htim->Instance))
 1901              		.loc 1 765 9
 1902 0138 7B68     		ldr	r3, [r7, #4]
 1903 013a 1B68     		ldr	r3, [r3]
 1904              		.loc 1 765 8
 1905 013c 1D4A     		ldr	r2, .L110
 1906 013e 9342     		cmp	r3, r2
 1907 0140 18D0     		beq	.L107
 1908              		.loc 1 765 9 discriminator 1
 1909 0142 7B68     		ldr	r3, [r7, #4]
 1910 0144 1B68     		ldr	r3, [r3]
 1911 0146 B3F1804F 		cmp	r3, #1073741824
 1912 014a 13D0     		beq	.L107
 1913              		.loc 1 765 9 is_stmt 0 discriminator 2
 1914 014c 7B68     		ldr	r3, [r7, #4]
 1915 014e 1B68     		ldr	r3, [r3]
 1916 0150 194A     		ldr	r2, .L110+4
 1917 0152 9342     		cmp	r3, r2
 1918 0154 0ED0     		beq	.L107
 1919              		.loc 1 765 9 discriminator 3
 1920 0156 7B68     		ldr	r3, [r7, #4]
 1921 0158 1B68     		ldr	r3, [r3]
 1922 015a 184A     		ldr	r2, .L110+8
 1923 015c 9342     		cmp	r3, r2
 1924 015e 09D0     		beq	.L107
 1925              		.loc 1 765 9 discriminator 4
 1926 0160 7B68     		ldr	r3, [r7, #4]
 1927 0162 1B68     		ldr	r3, [r3]
 1928 0164 164A     		ldr	r2, .L110+12
 1929 0166 9342     		cmp	r3, r2
 1930 0168 04D0     		beq	.L107
 1931              		.loc 1 765 9 discriminator 5
 1932 016a 7B68     		ldr	r3, [r7, #4]
 1933 016c 1B68     		ldr	r3, [r3]
ARM GAS  C:\Users\DAELT-~1\AppData\Local\Temp\cc2rhEX6.s 			page 48


 1934 016e 154A     		ldr	r2, .L110+16
 1935 0170 9342     		cmp	r3, r2
 1936 0172 11D1     		bne	.L108
 1937              	.L107:
 766:Drivers/STM32F4xx_HAL_Driver/Src/stm32f4xx_hal_tim_ex.c ****     {
 767:Drivers/STM32F4xx_HAL_Driver/Src/stm32f4xx_hal_tim_ex.c ****       tmpsmcr = htim->Instance->SMCR & TIM_SMCR_SMS;
 1938              		.loc 1 767 21 is_stmt 1
 1939 0174 7B68     		ldr	r3, [r7, #4]
 1940 0176 1B68     		ldr	r3, [r3]
 1941              		.loc 1 767 31
 1942 0178 9B68     		ldr	r3, [r3, #8]
 1943              		.loc 1 767 15
 1944 017a 03F00703 		and	r3, r3, #7
 1945 017e BB60     		str	r3, [r7, #8]
 768:Drivers/STM32F4xx_HAL_Driver/Src/stm32f4xx_hal_tim_ex.c ****       if (!IS_TIM_SLAVEMODE_TRIGGER_ENABLED(tmpsmcr))
 1946              		.loc 1 768 10
 1947 0180 BB68     		ldr	r3, [r7, #8]
 1948 0182 062B     		cmp	r3, #6
 1949 0184 10D0     		beq	.L106
 769:Drivers/STM32F4xx_HAL_Driver/Src/stm32f4xx_hal_tim_ex.c ****       {
 770:Drivers/STM32F4xx_HAL_Driver/Src/stm32f4xx_hal_tim_ex.c ****         __HAL_TIM_ENABLE(htim);
 1950              		.loc 1 770 9
 1951 0186 7B68     		ldr	r3, [r7, #4]
 1952 0188 1B68     		ldr	r3, [r3]
 1953 018a 1A68     		ldr	r2, [r3]
 1954 018c 7B68     		ldr	r3, [r7, #4]
 1955 018e 1B68     		ldr	r3, [r3]
 1956 0190 42F00102 		orr	r2, r2, #1
 1957 0194 1A60     		str	r2, [r3]
 768:Drivers/STM32F4xx_HAL_Driver/Src/stm32f4xx_hal_tim_ex.c ****       if (!IS_TIM_SLAVEMODE_TRIGGER_ENABLED(tmpsmcr))
 1958              		.loc 1 768 10
 1959 0196 07E0     		b	.L106
 1960              	.L108:
 771:Drivers/STM32F4xx_HAL_Driver/Src/stm32f4xx_hal_tim_ex.c ****       }
 772:Drivers/STM32F4xx_HAL_Driver/Src/stm32f4xx_hal_tim_ex.c ****     }
 773:Drivers/STM32F4xx_HAL_Driver/Src/stm32f4xx_hal_tim_ex.c ****     else
 774:Drivers/STM32F4xx_HAL_Driver/Src/stm32f4xx_hal_tim_ex.c ****     {
 775:Drivers/STM32F4xx_HAL_Driver/Src/stm32f4xx_hal_tim_ex.c ****       __HAL_TIM_ENABLE(htim);
 1961              		.loc 1 775 7
 1962 0198 7B68     		ldr	r3, [r7, #4]
 1963 019a 1B68     		ldr	r3, [r3]
 1964 019c 1A68     		ldr	r2, [r3]
 1965 019e 7B68     		ldr	r3, [r7, #4]
 1966 01a0 1B68     		ldr	r3, [r3]
 1967 01a2 42F00102 		orr	r2, r2, #1
 1968 01a6 1A60     		str	r2, [r3]
 1969              	.L106:
 776:Drivers/STM32F4xx_HAL_Driver/Src/stm32f4xx_hal_tim_ex.c ****     }
 777:Drivers/STM32F4xx_HAL_Driver/Src/stm32f4xx_hal_tim_ex.c ****   }
 778:Drivers/STM32F4xx_HAL_Driver/Src/stm32f4xx_hal_tim_ex.c **** 
 779:Drivers/STM32F4xx_HAL_Driver/Src/stm32f4xx_hal_tim_ex.c ****   /* Return function status */
 780:Drivers/STM32F4xx_HAL_Driver/Src/stm32f4xx_hal_tim_ex.c ****   return status;
 1970              		.loc 1 780 10
 1971 01a8 FB7B     		ldrb	r3, [r7, #15]	@ zero_extendqisi2
 1972              	.L94:
 781:Drivers/STM32F4xx_HAL_Driver/Src/stm32f4xx_hal_tim_ex.c **** }
 1973              		.loc 1 781 1
ARM GAS  C:\Users\DAELT-~1\AppData\Local\Temp\cc2rhEX6.s 			page 49


 1974 01aa 1846     		mov	r0, r3
 1975 01ac 1037     		adds	r7, r7, #16
 1976              	.LCFI65:
 1977              		.cfi_def_cfa_offset 8
 1978 01ae BD46     		mov	sp, r7
 1979              	.LCFI66:
 1980              		.cfi_def_cfa_register 13
 1981              		@ sp needed
 1982 01b0 80BD     		pop	{r7, pc}
 1983              	.L111:
 1984 01b2 00BF     		.align	2
 1985              	.L110:
 1986 01b4 00000140 		.word	1073807360
 1987 01b8 00040040 		.word	1073742848
 1988 01bc 00080040 		.word	1073743872
 1989 01c0 000C0040 		.word	1073744896
 1990 01c4 00400140 		.word	1073823744
 1991              		.cfi_endproc
 1992              	.LFE142:
 1994              		.section	.text.HAL_TIMEx_OCN_Stop_IT,"ax",%progbits
 1995              		.align	1
 1996              		.global	HAL_TIMEx_OCN_Stop_IT
 1997              		.syntax unified
 1998              		.thumb
 1999              		.thumb_func
 2001              	HAL_TIMEx_OCN_Stop_IT:
 2002              	.LFB143:
 782:Drivers/STM32F4xx_HAL_Driver/Src/stm32f4xx_hal_tim_ex.c **** 
 783:Drivers/STM32F4xx_HAL_Driver/Src/stm32f4xx_hal_tim_ex.c **** /**
 784:Drivers/STM32F4xx_HAL_Driver/Src/stm32f4xx_hal_tim_ex.c ****   * @brief  Stops the TIM Output Compare signal generation in interrupt mode
 785:Drivers/STM32F4xx_HAL_Driver/Src/stm32f4xx_hal_tim_ex.c ****   *         on the complementary output.
 786:Drivers/STM32F4xx_HAL_Driver/Src/stm32f4xx_hal_tim_ex.c ****   * @param  htim TIM Output Compare handle
 787:Drivers/STM32F4xx_HAL_Driver/Src/stm32f4xx_hal_tim_ex.c ****   * @param  Channel TIM Channel to be disabled
 788:Drivers/STM32F4xx_HAL_Driver/Src/stm32f4xx_hal_tim_ex.c ****   *          This parameter can be one of the following values:
 789:Drivers/STM32F4xx_HAL_Driver/Src/stm32f4xx_hal_tim_ex.c ****   *            @arg TIM_CHANNEL_1: TIM Channel 1 selected
 790:Drivers/STM32F4xx_HAL_Driver/Src/stm32f4xx_hal_tim_ex.c ****   *            @arg TIM_CHANNEL_2: TIM Channel 2 selected
 791:Drivers/STM32F4xx_HAL_Driver/Src/stm32f4xx_hal_tim_ex.c ****   *            @arg TIM_CHANNEL_3: TIM Channel 3 selected
 792:Drivers/STM32F4xx_HAL_Driver/Src/stm32f4xx_hal_tim_ex.c ****   * @retval HAL status
 793:Drivers/STM32F4xx_HAL_Driver/Src/stm32f4xx_hal_tim_ex.c ****   */
 794:Drivers/STM32F4xx_HAL_Driver/Src/stm32f4xx_hal_tim_ex.c **** HAL_StatusTypeDef HAL_TIMEx_OCN_Stop_IT(TIM_HandleTypeDef *htim, uint32_t Channel)
 795:Drivers/STM32F4xx_HAL_Driver/Src/stm32f4xx_hal_tim_ex.c **** {
 2003              		.loc 1 795 1
 2004              		.cfi_startproc
 2005              		@ args = 0, pretend = 0, frame = 16
 2006              		@ frame_needed = 1, uses_anonymous_args = 0
 2007 0000 80B5     		push	{r7, lr}
 2008              	.LCFI67:
 2009              		.cfi_def_cfa_offset 8
 2010              		.cfi_offset 7, -8
 2011              		.cfi_offset 14, -4
 2012 0002 84B0     		sub	sp, sp, #16
 2013              	.LCFI68:
 2014              		.cfi_def_cfa_offset 24
 2015 0004 00AF     		add	r7, sp, #0
 2016              	.LCFI69:
 2017              		.cfi_def_cfa_register 7
 2018 0006 7860     		str	r0, [r7, #4]
ARM GAS  C:\Users\DAELT-~1\AppData\Local\Temp\cc2rhEX6.s 			page 50


 2019 0008 3960     		str	r1, [r7]
 796:Drivers/STM32F4xx_HAL_Driver/Src/stm32f4xx_hal_tim_ex.c ****   HAL_StatusTypeDef status = HAL_OK;
 2020              		.loc 1 796 21
 2021 000a 0023     		movs	r3, #0
 2022 000c FB73     		strb	r3, [r7, #15]
 797:Drivers/STM32F4xx_HAL_Driver/Src/stm32f4xx_hal_tim_ex.c ****   uint32_t tmpccer;
 798:Drivers/STM32F4xx_HAL_Driver/Src/stm32f4xx_hal_tim_ex.c **** 
 799:Drivers/STM32F4xx_HAL_Driver/Src/stm32f4xx_hal_tim_ex.c ****   /* Check the parameters */
 800:Drivers/STM32F4xx_HAL_Driver/Src/stm32f4xx_hal_tim_ex.c ****   assert_param(IS_TIM_CCXN_INSTANCE(htim->Instance, Channel));
 801:Drivers/STM32F4xx_HAL_Driver/Src/stm32f4xx_hal_tim_ex.c **** 
 802:Drivers/STM32F4xx_HAL_Driver/Src/stm32f4xx_hal_tim_ex.c ****   switch (Channel)
 2023              		.loc 1 802 3
 2024 000e 3B68     		ldr	r3, [r7]
 2025 0010 082B     		cmp	r3, #8
 2026 0012 1BD0     		beq	.L113
 2027 0014 3B68     		ldr	r3, [r7]
 2028 0016 082B     		cmp	r3, #8
 2029 0018 21D8     		bhi	.L114
 2030 001a 3B68     		ldr	r3, [r7]
 2031 001c 002B     		cmp	r3, #0
 2032 001e 03D0     		beq	.L115
 2033 0020 3B68     		ldr	r3, [r7]
 2034 0022 042B     		cmp	r3, #4
 2035 0024 09D0     		beq	.L116
 2036 0026 1AE0     		b	.L114
 2037              	.L115:
 803:Drivers/STM32F4xx_HAL_Driver/Src/stm32f4xx_hal_tim_ex.c ****   {
 804:Drivers/STM32F4xx_HAL_Driver/Src/stm32f4xx_hal_tim_ex.c ****     case TIM_CHANNEL_1:
 805:Drivers/STM32F4xx_HAL_Driver/Src/stm32f4xx_hal_tim_ex.c ****     {
 806:Drivers/STM32F4xx_HAL_Driver/Src/stm32f4xx_hal_tim_ex.c ****       /* Disable the TIM Output Compare interrupt */
 807:Drivers/STM32F4xx_HAL_Driver/Src/stm32f4xx_hal_tim_ex.c ****       __HAL_TIM_DISABLE_IT(htim, TIM_IT_CC1);
 2038              		.loc 1 807 7
 2039 0028 7B68     		ldr	r3, [r7, #4]
 2040 002a 1B68     		ldr	r3, [r3]
 2041 002c DA68     		ldr	r2, [r3, #12]
 2042 002e 7B68     		ldr	r3, [r7, #4]
 2043 0030 1B68     		ldr	r3, [r3]
 2044 0032 22F00202 		bic	r2, r2, #2
 2045 0036 DA60     		str	r2, [r3, #12]
 808:Drivers/STM32F4xx_HAL_Driver/Src/stm32f4xx_hal_tim_ex.c ****       break;
 2046              		.loc 1 808 7
 2047 0038 14E0     		b	.L117
 2048              	.L116:
 809:Drivers/STM32F4xx_HAL_Driver/Src/stm32f4xx_hal_tim_ex.c ****     }
 810:Drivers/STM32F4xx_HAL_Driver/Src/stm32f4xx_hal_tim_ex.c **** 
 811:Drivers/STM32F4xx_HAL_Driver/Src/stm32f4xx_hal_tim_ex.c ****     case TIM_CHANNEL_2:
 812:Drivers/STM32F4xx_HAL_Driver/Src/stm32f4xx_hal_tim_ex.c ****     {
 813:Drivers/STM32F4xx_HAL_Driver/Src/stm32f4xx_hal_tim_ex.c ****       /* Disable the TIM Output Compare interrupt */
 814:Drivers/STM32F4xx_HAL_Driver/Src/stm32f4xx_hal_tim_ex.c ****       __HAL_TIM_DISABLE_IT(htim, TIM_IT_CC2);
 2049              		.loc 1 814 7
 2050 003a 7B68     		ldr	r3, [r7, #4]
 2051 003c 1B68     		ldr	r3, [r3]
 2052 003e DA68     		ldr	r2, [r3, #12]
 2053 0040 7B68     		ldr	r3, [r7, #4]
 2054 0042 1B68     		ldr	r3, [r3]
 2055 0044 22F00402 		bic	r2, r2, #4
 2056 0048 DA60     		str	r2, [r3, #12]
ARM GAS  C:\Users\DAELT-~1\AppData\Local\Temp\cc2rhEX6.s 			page 51


 815:Drivers/STM32F4xx_HAL_Driver/Src/stm32f4xx_hal_tim_ex.c ****       break;
 2057              		.loc 1 815 7
 2058 004a 0BE0     		b	.L117
 2059              	.L113:
 816:Drivers/STM32F4xx_HAL_Driver/Src/stm32f4xx_hal_tim_ex.c ****     }
 817:Drivers/STM32F4xx_HAL_Driver/Src/stm32f4xx_hal_tim_ex.c **** 
 818:Drivers/STM32F4xx_HAL_Driver/Src/stm32f4xx_hal_tim_ex.c ****     case TIM_CHANNEL_3:
 819:Drivers/STM32F4xx_HAL_Driver/Src/stm32f4xx_hal_tim_ex.c ****     {
 820:Drivers/STM32F4xx_HAL_Driver/Src/stm32f4xx_hal_tim_ex.c ****       /* Disable the TIM Output Compare interrupt */
 821:Drivers/STM32F4xx_HAL_Driver/Src/stm32f4xx_hal_tim_ex.c ****       __HAL_TIM_DISABLE_IT(htim, TIM_IT_CC3);
 2060              		.loc 1 821 7
 2061 004c 7B68     		ldr	r3, [r7, #4]
 2062 004e 1B68     		ldr	r3, [r3]
 2063 0050 DA68     		ldr	r2, [r3, #12]
 2064 0052 7B68     		ldr	r3, [r7, #4]
 2065 0054 1B68     		ldr	r3, [r3]
 2066 0056 22F00802 		bic	r2, r2, #8
 2067 005a DA60     		str	r2, [r3, #12]
 822:Drivers/STM32F4xx_HAL_Driver/Src/stm32f4xx_hal_tim_ex.c ****       break;
 2068              		.loc 1 822 7
 2069 005c 02E0     		b	.L117
 2070              	.L114:
 823:Drivers/STM32F4xx_HAL_Driver/Src/stm32f4xx_hal_tim_ex.c ****     }
 824:Drivers/STM32F4xx_HAL_Driver/Src/stm32f4xx_hal_tim_ex.c **** 
 825:Drivers/STM32F4xx_HAL_Driver/Src/stm32f4xx_hal_tim_ex.c ****     default:
 826:Drivers/STM32F4xx_HAL_Driver/Src/stm32f4xx_hal_tim_ex.c ****       status = HAL_ERROR;
 2071              		.loc 1 826 14
 2072 005e 0123     		movs	r3, #1
 2073 0060 FB73     		strb	r3, [r7, #15]
 827:Drivers/STM32F4xx_HAL_Driver/Src/stm32f4xx_hal_tim_ex.c ****       break;
 2074              		.loc 1 827 7
 2075 0062 00BF     		nop
 2076              	.L117:
 828:Drivers/STM32F4xx_HAL_Driver/Src/stm32f4xx_hal_tim_ex.c ****   }
 829:Drivers/STM32F4xx_HAL_Driver/Src/stm32f4xx_hal_tim_ex.c **** 
 830:Drivers/STM32F4xx_HAL_Driver/Src/stm32f4xx_hal_tim_ex.c ****   if (status == HAL_OK)
 2077              		.loc 1 830 6
 2078 0064 FB7B     		ldrb	r3, [r7, #15]	@ zero_extendqisi2
 2079 0066 002B     		cmp	r3, #0
 2080 0068 64D1     		bne	.L118
 831:Drivers/STM32F4xx_HAL_Driver/Src/stm32f4xx_hal_tim_ex.c ****   {
 832:Drivers/STM32F4xx_HAL_Driver/Src/stm32f4xx_hal_tim_ex.c ****     /* Disable the Capture compare channel N */
 833:Drivers/STM32F4xx_HAL_Driver/Src/stm32f4xx_hal_tim_ex.c ****     TIM_CCxNChannelCmd(htim->Instance, Channel, TIM_CCxN_DISABLE);
 2081              		.loc 1 833 5
 2082 006a 7B68     		ldr	r3, [r7, #4]
 2083 006c 1B68     		ldr	r3, [r3]
 2084 006e 0022     		movs	r2, #0
 2085 0070 3968     		ldr	r1, [r7]
 2086 0072 1846     		mov	r0, r3
 2087 0074 FFF7FEFF 		bl	TIM_CCxNChannelCmd
 834:Drivers/STM32F4xx_HAL_Driver/Src/stm32f4xx_hal_tim_ex.c **** 
 835:Drivers/STM32F4xx_HAL_Driver/Src/stm32f4xx_hal_tim_ex.c ****     /* Disable the TIM Break interrupt (only if no more channel is active) */
 836:Drivers/STM32F4xx_HAL_Driver/Src/stm32f4xx_hal_tim_ex.c ****     tmpccer = htim->Instance->CCER;
 2088              		.loc 1 836 19
 2089 0078 7B68     		ldr	r3, [r7, #4]
 2090 007a 1B68     		ldr	r3, [r3]
 2091              		.loc 1 836 13
ARM GAS  C:\Users\DAELT-~1\AppData\Local\Temp\cc2rhEX6.s 			page 52


 2092 007c 1B6A     		ldr	r3, [r3, #32]
 2093 007e BB60     		str	r3, [r7, #8]
 837:Drivers/STM32F4xx_HAL_Driver/Src/stm32f4xx_hal_tim_ex.c ****     if ((tmpccer & (TIM_CCER_CC1NE | TIM_CCER_CC2NE | TIM_CCER_CC3NE)) == (uint32_t)RESET)
 2094              		.loc 1 837 18
 2095 0080 BA68     		ldr	r2, [r7, #8]
 2096 0082 40F24443 		movw	r3, #1092
 2097 0086 1340     		ands	r3, r3, r2
 2098              		.loc 1 837 8
 2099 0088 002B     		cmp	r3, #0
 2100 008a 07D1     		bne	.L119
 838:Drivers/STM32F4xx_HAL_Driver/Src/stm32f4xx_hal_tim_ex.c ****     {
 839:Drivers/STM32F4xx_HAL_Driver/Src/stm32f4xx_hal_tim_ex.c ****       __HAL_TIM_DISABLE_IT(htim, TIM_IT_BREAK);
 2101              		.loc 1 839 7
 2102 008c 7B68     		ldr	r3, [r7, #4]
 2103 008e 1B68     		ldr	r3, [r3]
 2104 0090 DA68     		ldr	r2, [r3, #12]
 2105 0092 7B68     		ldr	r3, [r7, #4]
 2106 0094 1B68     		ldr	r3, [r3]
 2107 0096 22F08002 		bic	r2, r2, #128
 2108 009a DA60     		str	r2, [r3, #12]
 2109              	.L119:
 840:Drivers/STM32F4xx_HAL_Driver/Src/stm32f4xx_hal_tim_ex.c ****     }
 841:Drivers/STM32F4xx_HAL_Driver/Src/stm32f4xx_hal_tim_ex.c **** 
 842:Drivers/STM32F4xx_HAL_Driver/Src/stm32f4xx_hal_tim_ex.c ****     /* Disable the Main Output */
 843:Drivers/STM32F4xx_HAL_Driver/Src/stm32f4xx_hal_tim_ex.c ****     __HAL_TIM_MOE_DISABLE(htim);
 2110              		.loc 1 843 5
 2111 009c 7B68     		ldr	r3, [r7, #4]
 2112 009e 1B68     		ldr	r3, [r3]
 2113 00a0 1A6A     		ldr	r2, [r3, #32]
 2114 00a2 41F21113 		movw	r3, #4369
 2115 00a6 1340     		ands	r3, r3, r2
 2116 00a8 002B     		cmp	r3, #0
 2117 00aa 0FD1     		bne	.L120
 2118              		.loc 1 843 5 is_stmt 0 discriminator 1
 2119 00ac 7B68     		ldr	r3, [r7, #4]
 2120 00ae 1B68     		ldr	r3, [r3]
 2121 00b0 1A6A     		ldr	r2, [r3, #32]
 2122 00b2 40F24443 		movw	r3, #1092
 2123 00b6 1340     		ands	r3, r3, r2
 2124 00b8 002B     		cmp	r3, #0
 2125 00ba 07D1     		bne	.L120
 2126              		.loc 1 843 5 discriminator 2
 2127 00bc 7B68     		ldr	r3, [r7, #4]
 2128 00be 1B68     		ldr	r3, [r3]
 2129 00c0 5A6C     		ldr	r2, [r3, #68]
 2130 00c2 7B68     		ldr	r3, [r7, #4]
 2131 00c4 1B68     		ldr	r3, [r3]
 2132 00c6 22F40042 		bic	r2, r2, #32768
 2133 00ca 5A64     		str	r2, [r3, #68]
 2134              	.L120:
 844:Drivers/STM32F4xx_HAL_Driver/Src/stm32f4xx_hal_tim_ex.c **** 
 845:Drivers/STM32F4xx_HAL_Driver/Src/stm32f4xx_hal_tim_ex.c ****     /* Disable the Peripheral */
 846:Drivers/STM32F4xx_HAL_Driver/Src/stm32f4xx_hal_tim_ex.c ****     __HAL_TIM_DISABLE(htim);
 2135              		.loc 1 846 5 is_stmt 1
 2136 00cc 7B68     		ldr	r3, [r7, #4]
 2137 00ce 1B68     		ldr	r3, [r3]
 2138 00d0 1A6A     		ldr	r2, [r3, #32]
ARM GAS  C:\Users\DAELT-~1\AppData\Local\Temp\cc2rhEX6.s 			page 53


 2139 00d2 41F21113 		movw	r3, #4369
 2140 00d6 1340     		ands	r3, r3, r2
 2141 00d8 002B     		cmp	r3, #0
 2142 00da 0FD1     		bne	.L121
 2143              		.loc 1 846 5 is_stmt 0 discriminator 1
 2144 00dc 7B68     		ldr	r3, [r7, #4]
 2145 00de 1B68     		ldr	r3, [r3]
 2146 00e0 1A6A     		ldr	r2, [r3, #32]
 2147 00e2 40F24443 		movw	r3, #1092
 2148 00e6 1340     		ands	r3, r3, r2
 2149 00e8 002B     		cmp	r3, #0
 2150 00ea 07D1     		bne	.L121
 2151              		.loc 1 846 5 discriminator 2
 2152 00ec 7B68     		ldr	r3, [r7, #4]
 2153 00ee 1B68     		ldr	r3, [r3]
 2154 00f0 1A68     		ldr	r2, [r3]
 2155 00f2 7B68     		ldr	r3, [r7, #4]
 2156 00f4 1B68     		ldr	r3, [r3]
 2157 00f6 22F00102 		bic	r2, r2, #1
 2158 00fa 1A60     		str	r2, [r3]
 2159              	.L121:
 847:Drivers/STM32F4xx_HAL_Driver/Src/stm32f4xx_hal_tim_ex.c **** 
 848:Drivers/STM32F4xx_HAL_Driver/Src/stm32f4xx_hal_tim_ex.c ****     /* Set the TIM complementary channel state */
 849:Drivers/STM32F4xx_HAL_Driver/Src/stm32f4xx_hal_tim_ex.c ****     TIM_CHANNEL_N_STATE_SET(htim, Channel, HAL_TIM_CHANNEL_STATE_READY);
 2160              		.loc 1 849 5 is_stmt 1
 2161 00fc 3B68     		ldr	r3, [r7]
 2162 00fe 002B     		cmp	r3, #0
 2163 0100 04D1     		bne	.L122
 2164              		.loc 1 849 5 is_stmt 0 discriminator 1
 2165 0102 7B68     		ldr	r3, [r7, #4]
 2166 0104 0122     		movs	r2, #1
 2167 0106 83F84220 		strb	r2, [r3, #66]
 2168 010a 13E0     		b	.L118
 2169              	.L122:
 2170              		.loc 1 849 5 discriminator 2
 2171 010c 3B68     		ldr	r3, [r7]
 2172 010e 042B     		cmp	r3, #4
 2173 0110 04D1     		bne	.L123
 2174              		.loc 1 849 5 discriminator 3
 2175 0112 7B68     		ldr	r3, [r7, #4]
 2176 0114 0122     		movs	r2, #1
 2177 0116 83F84320 		strb	r2, [r3, #67]
 2178 011a 0BE0     		b	.L118
 2179              	.L123:
 2180              		.loc 1 849 5 discriminator 4
 2181 011c 3B68     		ldr	r3, [r7]
 2182 011e 082B     		cmp	r3, #8
 2183 0120 04D1     		bne	.L125
 2184              		.loc 1 849 5 discriminator 6
 2185 0122 7B68     		ldr	r3, [r7, #4]
 2186 0124 0122     		movs	r2, #1
 2187 0126 83F84420 		strb	r2, [r3, #68]
 2188 012a 03E0     		b	.L118
 2189              	.L125:
 2190              		.loc 1 849 5 discriminator 7
 2191 012c 7B68     		ldr	r3, [r7, #4]
 2192 012e 0122     		movs	r2, #1
ARM GAS  C:\Users\DAELT-~1\AppData\Local\Temp\cc2rhEX6.s 			page 54


 2193 0130 83F84520 		strb	r2, [r3, #69]
 2194              	.L118:
 850:Drivers/STM32F4xx_HAL_Driver/Src/stm32f4xx_hal_tim_ex.c ****   }
 851:Drivers/STM32F4xx_HAL_Driver/Src/stm32f4xx_hal_tim_ex.c **** 
 852:Drivers/STM32F4xx_HAL_Driver/Src/stm32f4xx_hal_tim_ex.c ****   /* Return function status */
 853:Drivers/STM32F4xx_HAL_Driver/Src/stm32f4xx_hal_tim_ex.c ****   return status;
 2195              		.loc 1 853 10 is_stmt 1
 2196 0134 FB7B     		ldrb	r3, [r7, #15]	@ zero_extendqisi2
 854:Drivers/STM32F4xx_HAL_Driver/Src/stm32f4xx_hal_tim_ex.c **** }
 2197              		.loc 1 854 1
 2198 0136 1846     		mov	r0, r3
 2199 0138 1037     		adds	r7, r7, #16
 2200              	.LCFI70:
 2201              		.cfi_def_cfa_offset 8
 2202 013a BD46     		mov	sp, r7
 2203              	.LCFI71:
 2204              		.cfi_def_cfa_register 13
 2205              		@ sp needed
 2206 013c 80BD     		pop	{r7, pc}
 2207              		.cfi_endproc
 2208              	.LFE143:
 2210              		.section	.text.HAL_TIMEx_OCN_Start_DMA,"ax",%progbits
 2211              		.align	1
 2212              		.global	HAL_TIMEx_OCN_Start_DMA
 2213              		.syntax unified
 2214              		.thumb
 2215              		.thumb_func
 2217              	HAL_TIMEx_OCN_Start_DMA:
 2218              	.LFB144:
 855:Drivers/STM32F4xx_HAL_Driver/Src/stm32f4xx_hal_tim_ex.c **** 
 856:Drivers/STM32F4xx_HAL_Driver/Src/stm32f4xx_hal_tim_ex.c **** /**
 857:Drivers/STM32F4xx_HAL_Driver/Src/stm32f4xx_hal_tim_ex.c ****   * @brief  Starts the TIM Output Compare signal generation in DMA mode
 858:Drivers/STM32F4xx_HAL_Driver/Src/stm32f4xx_hal_tim_ex.c ****   *         on the complementary output.
 859:Drivers/STM32F4xx_HAL_Driver/Src/stm32f4xx_hal_tim_ex.c ****   * @param  htim TIM Output Compare handle
 860:Drivers/STM32F4xx_HAL_Driver/Src/stm32f4xx_hal_tim_ex.c ****   * @param  Channel TIM Channel to be enabled
 861:Drivers/STM32F4xx_HAL_Driver/Src/stm32f4xx_hal_tim_ex.c ****   *          This parameter can be one of the following values:
 862:Drivers/STM32F4xx_HAL_Driver/Src/stm32f4xx_hal_tim_ex.c ****   *            @arg TIM_CHANNEL_1: TIM Channel 1 selected
 863:Drivers/STM32F4xx_HAL_Driver/Src/stm32f4xx_hal_tim_ex.c ****   *            @arg TIM_CHANNEL_2: TIM Channel 2 selected
 864:Drivers/STM32F4xx_HAL_Driver/Src/stm32f4xx_hal_tim_ex.c ****   *            @arg TIM_CHANNEL_3: TIM Channel 3 selected
 865:Drivers/STM32F4xx_HAL_Driver/Src/stm32f4xx_hal_tim_ex.c ****   * @param  pData The source Buffer address.
 866:Drivers/STM32F4xx_HAL_Driver/Src/stm32f4xx_hal_tim_ex.c ****   * @param  Length The length of data to be transferred from memory to TIM peripheral
 867:Drivers/STM32F4xx_HAL_Driver/Src/stm32f4xx_hal_tim_ex.c ****   * @retval HAL status
 868:Drivers/STM32F4xx_HAL_Driver/Src/stm32f4xx_hal_tim_ex.c ****   */
 869:Drivers/STM32F4xx_HAL_Driver/Src/stm32f4xx_hal_tim_ex.c **** HAL_StatusTypeDef HAL_TIMEx_OCN_Start_DMA(TIM_HandleTypeDef *htim, uint32_t Channel, uint32_t *pDat
 870:Drivers/STM32F4xx_HAL_Driver/Src/stm32f4xx_hal_tim_ex.c **** {
 2219              		.loc 1 870 1
 2220              		.cfi_startproc
 2221              		@ args = 0, pretend = 0, frame = 24
 2222              		@ frame_needed = 1, uses_anonymous_args = 0
 2223 0000 80B5     		push	{r7, lr}
 2224              	.LCFI72:
 2225              		.cfi_def_cfa_offset 8
 2226              		.cfi_offset 7, -8
 2227              		.cfi_offset 14, -4
 2228 0002 86B0     		sub	sp, sp, #24
 2229              	.LCFI73:
 2230              		.cfi_def_cfa_offset 32
ARM GAS  C:\Users\DAELT-~1\AppData\Local\Temp\cc2rhEX6.s 			page 55


 2231 0004 00AF     		add	r7, sp, #0
 2232              	.LCFI74:
 2233              		.cfi_def_cfa_register 7
 2234 0006 F860     		str	r0, [r7, #12]
 2235 0008 B960     		str	r1, [r7, #8]
 2236 000a 7A60     		str	r2, [r7, #4]
 2237 000c 7B80     		strh	r3, [r7, #2]	@ movhi
 871:Drivers/STM32F4xx_HAL_Driver/Src/stm32f4xx_hal_tim_ex.c ****   HAL_StatusTypeDef status = HAL_OK;
 2238              		.loc 1 871 21
 2239 000e 0023     		movs	r3, #0
 2240 0010 FB75     		strb	r3, [r7, #23]
 872:Drivers/STM32F4xx_HAL_Driver/Src/stm32f4xx_hal_tim_ex.c ****   uint32_t tmpsmcr;
 873:Drivers/STM32F4xx_HAL_Driver/Src/stm32f4xx_hal_tim_ex.c **** 
 874:Drivers/STM32F4xx_HAL_Driver/Src/stm32f4xx_hal_tim_ex.c ****   /* Check the parameters */
 875:Drivers/STM32F4xx_HAL_Driver/Src/stm32f4xx_hal_tim_ex.c ****   assert_param(IS_TIM_CCXN_INSTANCE(htim->Instance, Channel));
 876:Drivers/STM32F4xx_HAL_Driver/Src/stm32f4xx_hal_tim_ex.c **** 
 877:Drivers/STM32F4xx_HAL_Driver/Src/stm32f4xx_hal_tim_ex.c ****   /* Set the TIM complementary channel state */
 878:Drivers/STM32F4xx_HAL_Driver/Src/stm32f4xx_hal_tim_ex.c ****   if (TIM_CHANNEL_N_STATE_GET(htim, Channel) == HAL_TIM_CHANNEL_STATE_BUSY)
 2241              		.loc 1 878 46
 2242 0012 BB68     		ldr	r3, [r7, #8]
 2243 0014 002B     		cmp	r3, #0
 2244 0016 09D1     		bne	.L129
 2245              		.loc 1 878 7 discriminator 1
 2246 0018 FB68     		ldr	r3, [r7, #12]
 2247 001a 93F84230 		ldrb	r3, [r3, #66]
 2248 001e DBB2     		uxtb	r3, r3
 2249              		.loc 1 878 46 discriminator 1
 2250 0020 022B     		cmp	r3, #2
 2251 0022 0CBF     		ite	eq
 2252 0024 0123     		moveq	r3, #1
 2253 0026 0023     		movne	r3, #0
 2254 0028 DBB2     		uxtb	r3, r3
 2255 002a 22E0     		b	.L130
 2256              	.L129:
 2257              		.loc 1 878 46 is_stmt 0 discriminator 2
 2258 002c BB68     		ldr	r3, [r7, #8]
 2259 002e 042B     		cmp	r3, #4
 2260 0030 09D1     		bne	.L131
 2261              		.loc 1 878 7 is_stmt 1 discriminator 4
 2262 0032 FB68     		ldr	r3, [r7, #12]
 2263 0034 93F84330 		ldrb	r3, [r3, #67]
 2264 0038 DBB2     		uxtb	r3, r3
 2265              		.loc 1 878 46 discriminator 4
 2266 003a 022B     		cmp	r3, #2
 2267 003c 0CBF     		ite	eq
 2268 003e 0123     		moveq	r3, #1
 2269 0040 0023     		movne	r3, #0
 2270 0042 DBB2     		uxtb	r3, r3
 2271 0044 15E0     		b	.L130
 2272              	.L131:
 2273              		.loc 1 878 46 is_stmt 0 discriminator 5
 2274 0046 BB68     		ldr	r3, [r7, #8]
 2275 0048 082B     		cmp	r3, #8
 2276 004a 09D1     		bne	.L133
 2277              		.loc 1 878 7 is_stmt 1 discriminator 7
 2278 004c FB68     		ldr	r3, [r7, #12]
 2279 004e 93F84430 		ldrb	r3, [r3, #68]
ARM GAS  C:\Users\DAELT-~1\AppData\Local\Temp\cc2rhEX6.s 			page 56


 2280 0052 DBB2     		uxtb	r3, r3
 2281              		.loc 1 878 46 discriminator 7
 2282 0054 022B     		cmp	r3, #2
 2283 0056 0CBF     		ite	eq
 2284 0058 0123     		moveq	r3, #1
 2285 005a 0023     		movne	r3, #0
 2286 005c DBB2     		uxtb	r3, r3
 2287 005e 08E0     		b	.L130
 2288              	.L133:
 2289              		.loc 1 878 7 discriminator 8
 2290 0060 FB68     		ldr	r3, [r7, #12]
 2291 0062 93F84530 		ldrb	r3, [r3, #69]
 2292 0066 DBB2     		uxtb	r3, r3
 2293              		.loc 1 878 46 discriminator 8
 2294 0068 022B     		cmp	r3, #2
 2295 006a 0CBF     		ite	eq
 2296 006c 0123     		moveq	r3, #1
 2297 006e 0023     		movne	r3, #0
 2298 0070 DBB2     		uxtb	r3, r3
 2299              	.L130:
 2300              		.loc 1 878 6 discriminator 12
 2301 0072 002B     		cmp	r3, #0
 2302 0074 01D0     		beq	.L135
 879:Drivers/STM32F4xx_HAL_Driver/Src/stm32f4xx_hal_tim_ex.c ****   {
 880:Drivers/STM32F4xx_HAL_Driver/Src/stm32f4xx_hal_tim_ex.c ****     return HAL_BUSY;
 2303              		.loc 1 880 12
 2304 0076 0223     		movs	r3, #2
 2305 0078 1FE1     		b	.L136
 2306              	.L135:
 881:Drivers/STM32F4xx_HAL_Driver/Src/stm32f4xx_hal_tim_ex.c ****   }
 882:Drivers/STM32F4xx_HAL_Driver/Src/stm32f4xx_hal_tim_ex.c ****   else if (TIM_CHANNEL_N_STATE_GET(htim, Channel) == HAL_TIM_CHANNEL_STATE_READY)
 2307              		.loc 1 882 51
 2308 007a BB68     		ldr	r3, [r7, #8]
 2309 007c 002B     		cmp	r3, #0
 2310 007e 09D1     		bne	.L137
 2311              		.loc 1 882 12 discriminator 1
 2312 0080 FB68     		ldr	r3, [r7, #12]
 2313 0082 93F84230 		ldrb	r3, [r3, #66]
 2314 0086 DBB2     		uxtb	r3, r3
 2315              		.loc 1 882 51 discriminator 1
 2316 0088 012B     		cmp	r3, #1
 2317 008a 0CBF     		ite	eq
 2318 008c 0123     		moveq	r3, #1
 2319 008e 0023     		movne	r3, #0
 2320 0090 DBB2     		uxtb	r3, r3
 2321 0092 22E0     		b	.L138
 2322              	.L137:
 2323              		.loc 1 882 51 is_stmt 0 discriminator 2
 2324 0094 BB68     		ldr	r3, [r7, #8]
 2325 0096 042B     		cmp	r3, #4
 2326 0098 09D1     		bne	.L139
 2327              		.loc 1 882 12 is_stmt 1 discriminator 4
 2328 009a FB68     		ldr	r3, [r7, #12]
 2329 009c 93F84330 		ldrb	r3, [r3, #67]
 2330 00a0 DBB2     		uxtb	r3, r3
 2331              		.loc 1 882 51 discriminator 4
 2332 00a2 012B     		cmp	r3, #1
ARM GAS  C:\Users\DAELT-~1\AppData\Local\Temp\cc2rhEX6.s 			page 57


 2333 00a4 0CBF     		ite	eq
 2334 00a6 0123     		moveq	r3, #1
 2335 00a8 0023     		movne	r3, #0
 2336 00aa DBB2     		uxtb	r3, r3
 2337 00ac 15E0     		b	.L138
 2338              	.L139:
 2339              		.loc 1 882 51 is_stmt 0 discriminator 5
 2340 00ae BB68     		ldr	r3, [r7, #8]
 2341 00b0 082B     		cmp	r3, #8
 2342 00b2 09D1     		bne	.L141
 2343              		.loc 1 882 12 is_stmt 1 discriminator 7
 2344 00b4 FB68     		ldr	r3, [r7, #12]
 2345 00b6 93F84430 		ldrb	r3, [r3, #68]
 2346 00ba DBB2     		uxtb	r3, r3
 2347              		.loc 1 882 51 discriminator 7
 2348 00bc 012B     		cmp	r3, #1
 2349 00be 0CBF     		ite	eq
 2350 00c0 0123     		moveq	r3, #1
 2351 00c2 0023     		movne	r3, #0
 2352 00c4 DBB2     		uxtb	r3, r3
 2353 00c6 08E0     		b	.L138
 2354              	.L141:
 2355              		.loc 1 882 12 discriminator 8
 2356 00c8 FB68     		ldr	r3, [r7, #12]
 2357 00ca 93F84530 		ldrb	r3, [r3, #69]
 2358 00ce DBB2     		uxtb	r3, r3
 2359              		.loc 1 882 51 discriminator 8
 2360 00d0 012B     		cmp	r3, #1
 2361 00d2 0CBF     		ite	eq
 2362 00d4 0123     		moveq	r3, #1
 2363 00d6 0023     		movne	r3, #0
 2364 00d8 DBB2     		uxtb	r3, r3
 2365              	.L138:
 2366              		.loc 1 882 11 discriminator 12
 2367 00da 002B     		cmp	r3, #0
 2368 00dc 24D0     		beq	.L143
 883:Drivers/STM32F4xx_HAL_Driver/Src/stm32f4xx_hal_tim_ex.c ****   {
 884:Drivers/STM32F4xx_HAL_Driver/Src/stm32f4xx_hal_tim_ex.c ****     if ((pData == NULL) && (Length > 0U))
 2369              		.loc 1 884 8
 2370 00de 7B68     		ldr	r3, [r7, #4]
 2371 00e0 002B     		cmp	r3, #0
 2372 00e2 04D1     		bne	.L144
 2373              		.loc 1 884 25 discriminator 1
 2374 00e4 7B88     		ldrh	r3, [r7, #2]
 2375 00e6 002B     		cmp	r3, #0
 2376 00e8 01D0     		beq	.L144
 885:Drivers/STM32F4xx_HAL_Driver/Src/stm32f4xx_hal_tim_ex.c ****     {
 886:Drivers/STM32F4xx_HAL_Driver/Src/stm32f4xx_hal_tim_ex.c ****       return HAL_ERROR;
 2377              		.loc 1 886 14
 2378 00ea 0123     		movs	r3, #1
 2379 00ec E5E0     		b	.L136
 2380              	.L144:
 887:Drivers/STM32F4xx_HAL_Driver/Src/stm32f4xx_hal_tim_ex.c ****     }
 888:Drivers/STM32F4xx_HAL_Driver/Src/stm32f4xx_hal_tim_ex.c ****     else
 889:Drivers/STM32F4xx_HAL_Driver/Src/stm32f4xx_hal_tim_ex.c ****     {
 890:Drivers/STM32F4xx_HAL_Driver/Src/stm32f4xx_hal_tim_ex.c ****       TIM_CHANNEL_N_STATE_SET(htim, Channel, HAL_TIM_CHANNEL_STATE_BUSY);
 2381              		.loc 1 890 7
ARM GAS  C:\Users\DAELT-~1\AppData\Local\Temp\cc2rhEX6.s 			page 58


 2382 00ee BB68     		ldr	r3, [r7, #8]
 2383 00f0 002B     		cmp	r3, #0
 2384 00f2 04D1     		bne	.L145
 2385              		.loc 1 890 7 is_stmt 0 discriminator 1
 2386 00f4 FB68     		ldr	r3, [r7, #12]
 2387 00f6 0222     		movs	r2, #2
 2388 00f8 83F84220 		strb	r2, [r3, #66]
 2389 00fc 16E0     		b	.L146
 2390              	.L145:
 2391              		.loc 1 890 7 discriminator 2
 2392 00fe BB68     		ldr	r3, [r7, #8]
 2393 0100 042B     		cmp	r3, #4
 2394 0102 04D1     		bne	.L147
 2395              		.loc 1 890 7 discriminator 3
 2396 0104 FB68     		ldr	r3, [r7, #12]
 2397 0106 0222     		movs	r2, #2
 2398 0108 83F84320 		strb	r2, [r3, #67]
 2399              		.loc 1 890 7 discriminator 10
 2400 010c 0EE0     		b	.L146
 2401              	.L147:
 2402              		.loc 1 890 7 discriminator 4
 2403 010e BB68     		ldr	r3, [r7, #8]
 2404 0110 082B     		cmp	r3, #8
 2405 0112 04D1     		bne	.L149
 2406              		.loc 1 890 7 discriminator 6
 2407 0114 FB68     		ldr	r3, [r7, #12]
 2408 0116 0222     		movs	r2, #2
 2409 0118 83F84420 		strb	r2, [r3, #68]
 2410              		.loc 1 890 7 discriminator 10
 2411 011c 06E0     		b	.L146
 2412              	.L149:
 2413              		.loc 1 890 7 discriminator 7
 2414 011e FB68     		ldr	r3, [r7, #12]
 2415 0120 0222     		movs	r2, #2
 2416 0122 83F84520 		strb	r2, [r3, #69]
 2417 0126 01E0     		b	.L146
 2418              	.L143:
 891:Drivers/STM32F4xx_HAL_Driver/Src/stm32f4xx_hal_tim_ex.c ****     }
 892:Drivers/STM32F4xx_HAL_Driver/Src/stm32f4xx_hal_tim_ex.c ****   }
 893:Drivers/STM32F4xx_HAL_Driver/Src/stm32f4xx_hal_tim_ex.c ****   else
 894:Drivers/STM32F4xx_HAL_Driver/Src/stm32f4xx_hal_tim_ex.c ****   {
 895:Drivers/STM32F4xx_HAL_Driver/Src/stm32f4xx_hal_tim_ex.c ****     return HAL_ERROR;
 2419              		.loc 1 895 12 is_stmt 1
 2420 0128 0123     		movs	r3, #1
 2421 012a C6E0     		b	.L136
 2422              	.L146:
 896:Drivers/STM32F4xx_HAL_Driver/Src/stm32f4xx_hal_tim_ex.c ****   }
 897:Drivers/STM32F4xx_HAL_Driver/Src/stm32f4xx_hal_tim_ex.c **** 
 898:Drivers/STM32F4xx_HAL_Driver/Src/stm32f4xx_hal_tim_ex.c ****   switch (Channel)
 2423              		.loc 1 898 3
 2424 012c BB68     		ldr	r3, [r7, #8]
 2425 012e 082B     		cmp	r3, #8
 2426 0130 51D0     		beq	.L151
 2427 0132 BB68     		ldr	r3, [r7, #8]
 2428 0134 082B     		cmp	r3, #8
 2429 0136 72D8     		bhi	.L152
 2430 0138 BB68     		ldr	r3, [r7, #8]
ARM GAS  C:\Users\DAELT-~1\AppData\Local\Temp\cc2rhEX6.s 			page 59


 2431 013a 002B     		cmp	r3, #0
 2432 013c 03D0     		beq	.L153
 2433 013e BB68     		ldr	r3, [r7, #8]
 2434 0140 042B     		cmp	r3, #4
 2435 0142 24D0     		beq	.L154
 2436 0144 6BE0     		b	.L152
 2437              	.L153:
 899:Drivers/STM32F4xx_HAL_Driver/Src/stm32f4xx_hal_tim_ex.c ****   {
 900:Drivers/STM32F4xx_HAL_Driver/Src/stm32f4xx_hal_tim_ex.c ****     case TIM_CHANNEL_1:
 901:Drivers/STM32F4xx_HAL_Driver/Src/stm32f4xx_hal_tim_ex.c ****     {
 902:Drivers/STM32F4xx_HAL_Driver/Src/stm32f4xx_hal_tim_ex.c ****       /* Set the DMA compare callbacks */
 903:Drivers/STM32F4xx_HAL_Driver/Src/stm32f4xx_hal_tim_ex.c ****       htim->hdma[TIM_DMA_ID_CC1]->XferCpltCallback = TIM_DMADelayPulseNCplt;
 2438              		.loc 1 903 17
 2439 0146 FB68     		ldr	r3, [r7, #12]
 2440 0148 5B6A     		ldr	r3, [r3, #36]
 2441              		.loc 1 903 52
 2442 014a 5E4A     		ldr	r2, .L163
 2443 014c DA63     		str	r2, [r3, #60]
 904:Drivers/STM32F4xx_HAL_Driver/Src/stm32f4xx_hal_tim_ex.c ****       htim->hdma[TIM_DMA_ID_CC1]->XferHalfCpltCallback = TIM_DMADelayPulseHalfCplt;
 2444              		.loc 1 904 17
 2445 014e FB68     		ldr	r3, [r7, #12]
 2446 0150 5B6A     		ldr	r3, [r3, #36]
 2447              		.loc 1 904 56
 2448 0152 5D4A     		ldr	r2, .L163+4
 2449 0154 1A64     		str	r2, [r3, #64]
 905:Drivers/STM32F4xx_HAL_Driver/Src/stm32f4xx_hal_tim_ex.c **** 
 906:Drivers/STM32F4xx_HAL_Driver/Src/stm32f4xx_hal_tim_ex.c ****       /* Set the DMA error callback */
 907:Drivers/STM32F4xx_HAL_Driver/Src/stm32f4xx_hal_tim_ex.c ****       htim->hdma[TIM_DMA_ID_CC1]->XferErrorCallback = TIM_DMAErrorCCxN ;
 2450              		.loc 1 907 17
 2451 0156 FB68     		ldr	r3, [r7, #12]
 2452 0158 5B6A     		ldr	r3, [r3, #36]
 2453              		.loc 1 907 53
 2454 015a 5C4A     		ldr	r2, .L163+8
 2455 015c DA64     		str	r2, [r3, #76]
 908:Drivers/STM32F4xx_HAL_Driver/Src/stm32f4xx_hal_tim_ex.c **** 
 909:Drivers/STM32F4xx_HAL_Driver/Src/stm32f4xx_hal_tim_ex.c ****       /* Enable the DMA stream */
 910:Drivers/STM32F4xx_HAL_Driver/Src/stm32f4xx_hal_tim_ex.c ****       if (HAL_DMA_Start_IT(htim->hdma[TIM_DMA_ID_CC1], (uint32_t)pData, (uint32_t)&htim->Instance->
 2456              		.loc 1 910 11
 2457 015e FB68     		ldr	r3, [r7, #12]
 2458 0160 586A     		ldr	r0, [r3, #36]
 2459 0162 7968     		ldr	r1, [r7, #4]
 2460              		.loc 1 910 88
 2461 0164 FB68     		ldr	r3, [r7, #12]
 2462 0166 1B68     		ldr	r3, [r3]
 2463              		.loc 1 910 83
 2464 0168 3433     		adds	r3, r3, #52
 2465              		.loc 1 910 11
 2466 016a 1A46     		mov	r2, r3
 2467 016c 7B88     		ldrh	r3, [r7, #2]
 2468 016e FFF7FEFF 		bl	HAL_DMA_Start_IT
 2469 0172 0346     		mov	r3, r0
 2470              		.loc 1 910 10 discriminator 1
 2471 0174 002B     		cmp	r3, #0
 2472 0176 01D0     		beq	.L155
 911:Drivers/STM32F4xx_HAL_Driver/Src/stm32f4xx_hal_tim_ex.c ****                            Length) != HAL_OK)
 912:Drivers/STM32F4xx_HAL_Driver/Src/stm32f4xx_hal_tim_ex.c ****       {
 913:Drivers/STM32F4xx_HAL_Driver/Src/stm32f4xx_hal_tim_ex.c ****         /* Return error status */
ARM GAS  C:\Users\DAELT-~1\AppData\Local\Temp\cc2rhEX6.s 			page 60


 914:Drivers/STM32F4xx_HAL_Driver/Src/stm32f4xx_hal_tim_ex.c ****         return HAL_ERROR;
 2473              		.loc 1 914 16
 2474 0178 0123     		movs	r3, #1
 2475 017a 9EE0     		b	.L136
 2476              	.L155:
 915:Drivers/STM32F4xx_HAL_Driver/Src/stm32f4xx_hal_tim_ex.c ****       }
 916:Drivers/STM32F4xx_HAL_Driver/Src/stm32f4xx_hal_tim_ex.c ****       /* Enable the TIM Output Compare DMA request */
 917:Drivers/STM32F4xx_HAL_Driver/Src/stm32f4xx_hal_tim_ex.c ****       __HAL_TIM_ENABLE_DMA(htim, TIM_DMA_CC1);
 2477              		.loc 1 917 7
 2478 017c FB68     		ldr	r3, [r7, #12]
 2479 017e 1B68     		ldr	r3, [r3]
 2480 0180 DA68     		ldr	r2, [r3, #12]
 2481 0182 FB68     		ldr	r3, [r7, #12]
 2482 0184 1B68     		ldr	r3, [r3]
 2483 0186 42F40072 		orr	r2, r2, #512
 2484 018a DA60     		str	r2, [r3, #12]
 918:Drivers/STM32F4xx_HAL_Driver/Src/stm32f4xx_hal_tim_ex.c ****       break;
 2485              		.loc 1 918 7
 2486 018c 4AE0     		b	.L156
 2487              	.L154:
 919:Drivers/STM32F4xx_HAL_Driver/Src/stm32f4xx_hal_tim_ex.c ****     }
 920:Drivers/STM32F4xx_HAL_Driver/Src/stm32f4xx_hal_tim_ex.c **** 
 921:Drivers/STM32F4xx_HAL_Driver/Src/stm32f4xx_hal_tim_ex.c ****     case TIM_CHANNEL_2:
 922:Drivers/STM32F4xx_HAL_Driver/Src/stm32f4xx_hal_tim_ex.c ****     {
 923:Drivers/STM32F4xx_HAL_Driver/Src/stm32f4xx_hal_tim_ex.c ****       /* Set the DMA compare callbacks */
 924:Drivers/STM32F4xx_HAL_Driver/Src/stm32f4xx_hal_tim_ex.c ****       htim->hdma[TIM_DMA_ID_CC2]->XferCpltCallback = TIM_DMADelayPulseNCplt;
 2488              		.loc 1 924 17
 2489 018e FB68     		ldr	r3, [r7, #12]
 2490 0190 9B6A     		ldr	r3, [r3, #40]
 2491              		.loc 1 924 52
 2492 0192 4C4A     		ldr	r2, .L163
 2493 0194 DA63     		str	r2, [r3, #60]
 925:Drivers/STM32F4xx_HAL_Driver/Src/stm32f4xx_hal_tim_ex.c ****       htim->hdma[TIM_DMA_ID_CC2]->XferHalfCpltCallback = TIM_DMADelayPulseHalfCplt;
 2494              		.loc 1 925 17
 2495 0196 FB68     		ldr	r3, [r7, #12]
 2496 0198 9B6A     		ldr	r3, [r3, #40]
 2497              		.loc 1 925 56
 2498 019a 4B4A     		ldr	r2, .L163+4
 2499 019c 1A64     		str	r2, [r3, #64]
 926:Drivers/STM32F4xx_HAL_Driver/Src/stm32f4xx_hal_tim_ex.c **** 
 927:Drivers/STM32F4xx_HAL_Driver/Src/stm32f4xx_hal_tim_ex.c ****       /* Set the DMA error callback */
 928:Drivers/STM32F4xx_HAL_Driver/Src/stm32f4xx_hal_tim_ex.c ****       htim->hdma[TIM_DMA_ID_CC2]->XferErrorCallback = TIM_DMAErrorCCxN ;
 2500              		.loc 1 928 17
 2501 019e FB68     		ldr	r3, [r7, #12]
 2502 01a0 9B6A     		ldr	r3, [r3, #40]
 2503              		.loc 1 928 53
 2504 01a2 4A4A     		ldr	r2, .L163+8
 2505 01a4 DA64     		str	r2, [r3, #76]
 929:Drivers/STM32F4xx_HAL_Driver/Src/stm32f4xx_hal_tim_ex.c **** 
 930:Drivers/STM32F4xx_HAL_Driver/Src/stm32f4xx_hal_tim_ex.c ****       /* Enable the DMA stream */
 931:Drivers/STM32F4xx_HAL_Driver/Src/stm32f4xx_hal_tim_ex.c ****       if (HAL_DMA_Start_IT(htim->hdma[TIM_DMA_ID_CC2], (uint32_t)pData, (uint32_t)&htim->Instance->
 2506              		.loc 1 931 11
 2507 01a6 FB68     		ldr	r3, [r7, #12]
 2508 01a8 986A     		ldr	r0, [r3, #40]
 2509 01aa 7968     		ldr	r1, [r7, #4]
 2510              		.loc 1 931 88
 2511 01ac FB68     		ldr	r3, [r7, #12]
ARM GAS  C:\Users\DAELT-~1\AppData\Local\Temp\cc2rhEX6.s 			page 61


 2512 01ae 1B68     		ldr	r3, [r3]
 2513              		.loc 1 931 83
 2514 01b0 3833     		adds	r3, r3, #56
 2515              		.loc 1 931 11
 2516 01b2 1A46     		mov	r2, r3
 2517 01b4 7B88     		ldrh	r3, [r7, #2]
 2518 01b6 FFF7FEFF 		bl	HAL_DMA_Start_IT
 2519 01ba 0346     		mov	r3, r0
 2520              		.loc 1 931 10 discriminator 1
 2521 01bc 002B     		cmp	r3, #0
 2522 01be 01D0     		beq	.L157
 932:Drivers/STM32F4xx_HAL_Driver/Src/stm32f4xx_hal_tim_ex.c ****                            Length) != HAL_OK)
 933:Drivers/STM32F4xx_HAL_Driver/Src/stm32f4xx_hal_tim_ex.c ****       {
 934:Drivers/STM32F4xx_HAL_Driver/Src/stm32f4xx_hal_tim_ex.c ****         /* Return error status */
 935:Drivers/STM32F4xx_HAL_Driver/Src/stm32f4xx_hal_tim_ex.c ****         return HAL_ERROR;
 2523              		.loc 1 935 16
 2524 01c0 0123     		movs	r3, #1
 2525 01c2 7AE0     		b	.L136
 2526              	.L157:
 936:Drivers/STM32F4xx_HAL_Driver/Src/stm32f4xx_hal_tim_ex.c ****       }
 937:Drivers/STM32F4xx_HAL_Driver/Src/stm32f4xx_hal_tim_ex.c ****       /* Enable the TIM Output Compare DMA request */
 938:Drivers/STM32F4xx_HAL_Driver/Src/stm32f4xx_hal_tim_ex.c ****       __HAL_TIM_ENABLE_DMA(htim, TIM_DMA_CC2);
 2527              		.loc 1 938 7
 2528 01c4 FB68     		ldr	r3, [r7, #12]
 2529 01c6 1B68     		ldr	r3, [r3]
 2530 01c8 DA68     		ldr	r2, [r3, #12]
 2531 01ca FB68     		ldr	r3, [r7, #12]
 2532 01cc 1B68     		ldr	r3, [r3]
 2533 01ce 42F48062 		orr	r2, r2, #1024
 2534 01d2 DA60     		str	r2, [r3, #12]
 939:Drivers/STM32F4xx_HAL_Driver/Src/stm32f4xx_hal_tim_ex.c ****       break;
 2535              		.loc 1 939 7
 2536 01d4 26E0     		b	.L156
 2537              	.L151:
 940:Drivers/STM32F4xx_HAL_Driver/Src/stm32f4xx_hal_tim_ex.c ****     }
 941:Drivers/STM32F4xx_HAL_Driver/Src/stm32f4xx_hal_tim_ex.c **** 
 942:Drivers/STM32F4xx_HAL_Driver/Src/stm32f4xx_hal_tim_ex.c ****     case TIM_CHANNEL_3:
 943:Drivers/STM32F4xx_HAL_Driver/Src/stm32f4xx_hal_tim_ex.c ****     {
 944:Drivers/STM32F4xx_HAL_Driver/Src/stm32f4xx_hal_tim_ex.c ****       /* Set the DMA compare callbacks */
 945:Drivers/STM32F4xx_HAL_Driver/Src/stm32f4xx_hal_tim_ex.c ****       htim->hdma[TIM_DMA_ID_CC3]->XferCpltCallback = TIM_DMADelayPulseNCplt;
 2538              		.loc 1 945 17
 2539 01d6 FB68     		ldr	r3, [r7, #12]
 2540 01d8 DB6A     		ldr	r3, [r3, #44]
 2541              		.loc 1 945 52
 2542 01da 3A4A     		ldr	r2, .L163
 2543 01dc DA63     		str	r2, [r3, #60]
 946:Drivers/STM32F4xx_HAL_Driver/Src/stm32f4xx_hal_tim_ex.c ****       htim->hdma[TIM_DMA_ID_CC3]->XferHalfCpltCallback = TIM_DMADelayPulseHalfCplt;
 2544              		.loc 1 946 17
 2545 01de FB68     		ldr	r3, [r7, #12]
 2546 01e0 DB6A     		ldr	r3, [r3, #44]
 2547              		.loc 1 946 56
 2548 01e2 394A     		ldr	r2, .L163+4
 2549 01e4 1A64     		str	r2, [r3, #64]
 947:Drivers/STM32F4xx_HAL_Driver/Src/stm32f4xx_hal_tim_ex.c **** 
 948:Drivers/STM32F4xx_HAL_Driver/Src/stm32f4xx_hal_tim_ex.c ****       /* Set the DMA error callback */
 949:Drivers/STM32F4xx_HAL_Driver/Src/stm32f4xx_hal_tim_ex.c ****       htim->hdma[TIM_DMA_ID_CC3]->XferErrorCallback = TIM_DMAErrorCCxN ;
 2550              		.loc 1 949 17
ARM GAS  C:\Users\DAELT-~1\AppData\Local\Temp\cc2rhEX6.s 			page 62


 2551 01e6 FB68     		ldr	r3, [r7, #12]
 2552 01e8 DB6A     		ldr	r3, [r3, #44]
 2553              		.loc 1 949 53
 2554 01ea 384A     		ldr	r2, .L163+8
 2555 01ec DA64     		str	r2, [r3, #76]
 950:Drivers/STM32F4xx_HAL_Driver/Src/stm32f4xx_hal_tim_ex.c **** 
 951:Drivers/STM32F4xx_HAL_Driver/Src/stm32f4xx_hal_tim_ex.c ****       /* Enable the DMA stream */
 952:Drivers/STM32F4xx_HAL_Driver/Src/stm32f4xx_hal_tim_ex.c ****       if (HAL_DMA_Start_IT(htim->hdma[TIM_DMA_ID_CC3], (uint32_t)pData, (uint32_t)&htim->Instance->
 2556              		.loc 1 952 11
 2557 01ee FB68     		ldr	r3, [r7, #12]
 2558 01f0 D86A     		ldr	r0, [r3, #44]
 2559 01f2 7968     		ldr	r1, [r7, #4]
 2560              		.loc 1 952 88
 2561 01f4 FB68     		ldr	r3, [r7, #12]
 2562 01f6 1B68     		ldr	r3, [r3]
 2563              		.loc 1 952 83
 2564 01f8 3C33     		adds	r3, r3, #60
 2565              		.loc 1 952 11
 2566 01fa 1A46     		mov	r2, r3
 2567 01fc 7B88     		ldrh	r3, [r7, #2]
 2568 01fe FFF7FEFF 		bl	HAL_DMA_Start_IT
 2569 0202 0346     		mov	r3, r0
 2570              		.loc 1 952 10 discriminator 1
 2571 0204 002B     		cmp	r3, #0
 2572 0206 01D0     		beq	.L158
 953:Drivers/STM32F4xx_HAL_Driver/Src/stm32f4xx_hal_tim_ex.c ****                            Length) != HAL_OK)
 954:Drivers/STM32F4xx_HAL_Driver/Src/stm32f4xx_hal_tim_ex.c ****       {
 955:Drivers/STM32F4xx_HAL_Driver/Src/stm32f4xx_hal_tim_ex.c ****         /* Return error status */
 956:Drivers/STM32F4xx_HAL_Driver/Src/stm32f4xx_hal_tim_ex.c ****         return HAL_ERROR;
 2573              		.loc 1 956 16
 2574 0208 0123     		movs	r3, #1
 2575 020a 56E0     		b	.L136
 2576              	.L158:
 957:Drivers/STM32F4xx_HAL_Driver/Src/stm32f4xx_hal_tim_ex.c ****       }
 958:Drivers/STM32F4xx_HAL_Driver/Src/stm32f4xx_hal_tim_ex.c ****       /* Enable the TIM Output Compare DMA request */
 959:Drivers/STM32F4xx_HAL_Driver/Src/stm32f4xx_hal_tim_ex.c ****       __HAL_TIM_ENABLE_DMA(htim, TIM_DMA_CC3);
 2577              		.loc 1 959 7
 2578 020c FB68     		ldr	r3, [r7, #12]
 2579 020e 1B68     		ldr	r3, [r3]
 2580 0210 DA68     		ldr	r2, [r3, #12]
 2581 0212 FB68     		ldr	r3, [r7, #12]
 2582 0214 1B68     		ldr	r3, [r3]
 2583 0216 42F40062 		orr	r2, r2, #2048
 2584 021a DA60     		str	r2, [r3, #12]
 960:Drivers/STM32F4xx_HAL_Driver/Src/stm32f4xx_hal_tim_ex.c ****       break;
 2585              		.loc 1 960 7
 2586 021c 02E0     		b	.L156
 2587              	.L152:
 961:Drivers/STM32F4xx_HAL_Driver/Src/stm32f4xx_hal_tim_ex.c ****     }
 962:Drivers/STM32F4xx_HAL_Driver/Src/stm32f4xx_hal_tim_ex.c **** 
 963:Drivers/STM32F4xx_HAL_Driver/Src/stm32f4xx_hal_tim_ex.c ****     default:
 964:Drivers/STM32F4xx_HAL_Driver/Src/stm32f4xx_hal_tim_ex.c ****       status = HAL_ERROR;
 2588              		.loc 1 964 14
 2589 021e 0123     		movs	r3, #1
 2590 0220 FB75     		strb	r3, [r7, #23]
 965:Drivers/STM32F4xx_HAL_Driver/Src/stm32f4xx_hal_tim_ex.c ****       break;
 2591              		.loc 1 965 7
ARM GAS  C:\Users\DAELT-~1\AppData\Local\Temp\cc2rhEX6.s 			page 63


 2592 0222 00BF     		nop
 2593              	.L156:
 966:Drivers/STM32F4xx_HAL_Driver/Src/stm32f4xx_hal_tim_ex.c ****   }
 967:Drivers/STM32F4xx_HAL_Driver/Src/stm32f4xx_hal_tim_ex.c **** 
 968:Drivers/STM32F4xx_HAL_Driver/Src/stm32f4xx_hal_tim_ex.c ****   if (status == HAL_OK)
 2594              		.loc 1 968 6
 2595 0224 FB7D     		ldrb	r3, [r7, #23]	@ zero_extendqisi2
 2596 0226 002B     		cmp	r3, #0
 2597 0228 46D1     		bne	.L159
 969:Drivers/STM32F4xx_HAL_Driver/Src/stm32f4xx_hal_tim_ex.c ****   {
 970:Drivers/STM32F4xx_HAL_Driver/Src/stm32f4xx_hal_tim_ex.c ****     /* Enable the Capture compare channel N */
 971:Drivers/STM32F4xx_HAL_Driver/Src/stm32f4xx_hal_tim_ex.c ****     TIM_CCxNChannelCmd(htim->Instance, Channel, TIM_CCxN_ENABLE);
 2598              		.loc 1 971 5
 2599 022a FB68     		ldr	r3, [r7, #12]
 2600 022c 1B68     		ldr	r3, [r3]
 2601 022e 0422     		movs	r2, #4
 2602 0230 B968     		ldr	r1, [r7, #8]
 2603 0232 1846     		mov	r0, r3
 2604 0234 FFF7FEFF 		bl	TIM_CCxNChannelCmd
 972:Drivers/STM32F4xx_HAL_Driver/Src/stm32f4xx_hal_tim_ex.c **** 
 973:Drivers/STM32F4xx_HAL_Driver/Src/stm32f4xx_hal_tim_ex.c ****     /* Enable the Main Output */
 974:Drivers/STM32F4xx_HAL_Driver/Src/stm32f4xx_hal_tim_ex.c ****     __HAL_TIM_MOE_ENABLE(htim);
 2605              		.loc 1 974 5
 2606 0238 FB68     		ldr	r3, [r7, #12]
 2607 023a 1B68     		ldr	r3, [r3]
 2608 023c 5A6C     		ldr	r2, [r3, #68]
 2609 023e FB68     		ldr	r3, [r7, #12]
 2610 0240 1B68     		ldr	r3, [r3]
 2611 0242 42F40042 		orr	r2, r2, #32768
 2612 0246 5A64     		str	r2, [r3, #68]
 975:Drivers/STM32F4xx_HAL_Driver/Src/stm32f4xx_hal_tim_ex.c **** 
 976:Drivers/STM32F4xx_HAL_Driver/Src/stm32f4xx_hal_tim_ex.c ****     /* Enable the Peripheral, except in trigger mode where enable is automatically done with trigge
 977:Drivers/STM32F4xx_HAL_Driver/Src/stm32f4xx_hal_tim_ex.c ****     if (IS_TIM_SLAVE_INSTANCE(htim->Instance))
 2613              		.loc 1 977 9
 2614 0248 FB68     		ldr	r3, [r7, #12]
 2615 024a 1B68     		ldr	r3, [r3]
 2616              		.loc 1 977 8
 2617 024c 204A     		ldr	r2, .L163+12
 2618 024e 9342     		cmp	r3, r2
 2619 0250 18D0     		beq	.L160
 2620              		.loc 1 977 9 discriminator 1
 2621 0252 FB68     		ldr	r3, [r7, #12]
 2622 0254 1B68     		ldr	r3, [r3]
 2623 0256 B3F1804F 		cmp	r3, #1073741824
 2624 025a 13D0     		beq	.L160
 2625              		.loc 1 977 9 is_stmt 0 discriminator 2
 2626 025c FB68     		ldr	r3, [r7, #12]
 2627 025e 1B68     		ldr	r3, [r3]
 2628 0260 1C4A     		ldr	r2, .L163+16
 2629 0262 9342     		cmp	r3, r2
 2630 0264 0ED0     		beq	.L160
 2631              		.loc 1 977 9 discriminator 3
 2632 0266 FB68     		ldr	r3, [r7, #12]
 2633 0268 1B68     		ldr	r3, [r3]
 2634 026a 1B4A     		ldr	r2, .L163+20
 2635 026c 9342     		cmp	r3, r2
 2636 026e 09D0     		beq	.L160
ARM GAS  C:\Users\DAELT-~1\AppData\Local\Temp\cc2rhEX6.s 			page 64


 2637              		.loc 1 977 9 discriminator 4
 2638 0270 FB68     		ldr	r3, [r7, #12]
 2639 0272 1B68     		ldr	r3, [r3]
 2640 0274 194A     		ldr	r2, .L163+24
 2641 0276 9342     		cmp	r3, r2
 2642 0278 04D0     		beq	.L160
 2643              		.loc 1 977 9 discriminator 5
 2644 027a FB68     		ldr	r3, [r7, #12]
 2645 027c 1B68     		ldr	r3, [r3]
 2646 027e 184A     		ldr	r2, .L163+28
 2647 0280 9342     		cmp	r3, r2
 2648 0282 11D1     		bne	.L161
 2649              	.L160:
 978:Drivers/STM32F4xx_HAL_Driver/Src/stm32f4xx_hal_tim_ex.c ****     {
 979:Drivers/STM32F4xx_HAL_Driver/Src/stm32f4xx_hal_tim_ex.c ****       tmpsmcr = htim->Instance->SMCR & TIM_SMCR_SMS;
 2650              		.loc 1 979 21 is_stmt 1
 2651 0284 FB68     		ldr	r3, [r7, #12]
 2652 0286 1B68     		ldr	r3, [r3]
 2653              		.loc 1 979 31
 2654 0288 9B68     		ldr	r3, [r3, #8]
 2655              		.loc 1 979 15
 2656 028a 03F00703 		and	r3, r3, #7
 2657 028e 3B61     		str	r3, [r7, #16]
 980:Drivers/STM32F4xx_HAL_Driver/Src/stm32f4xx_hal_tim_ex.c ****       if (!IS_TIM_SLAVEMODE_TRIGGER_ENABLED(tmpsmcr))
 2658              		.loc 1 980 10
 2659 0290 3B69     		ldr	r3, [r7, #16]
 2660 0292 062B     		cmp	r3, #6
 2661 0294 10D0     		beq	.L159
 981:Drivers/STM32F4xx_HAL_Driver/Src/stm32f4xx_hal_tim_ex.c ****       {
 982:Drivers/STM32F4xx_HAL_Driver/Src/stm32f4xx_hal_tim_ex.c ****         __HAL_TIM_ENABLE(htim);
 2662              		.loc 1 982 9
 2663 0296 FB68     		ldr	r3, [r7, #12]
 2664 0298 1B68     		ldr	r3, [r3]
 2665 029a 1A68     		ldr	r2, [r3]
 2666 029c FB68     		ldr	r3, [r7, #12]
 2667 029e 1B68     		ldr	r3, [r3]
 2668 02a0 42F00102 		orr	r2, r2, #1
 2669 02a4 1A60     		str	r2, [r3]
 980:Drivers/STM32F4xx_HAL_Driver/Src/stm32f4xx_hal_tim_ex.c ****       if (!IS_TIM_SLAVEMODE_TRIGGER_ENABLED(tmpsmcr))
 2670              		.loc 1 980 10
 2671 02a6 07E0     		b	.L159
 2672              	.L161:
 983:Drivers/STM32F4xx_HAL_Driver/Src/stm32f4xx_hal_tim_ex.c ****       }
 984:Drivers/STM32F4xx_HAL_Driver/Src/stm32f4xx_hal_tim_ex.c ****     }
 985:Drivers/STM32F4xx_HAL_Driver/Src/stm32f4xx_hal_tim_ex.c ****     else
 986:Drivers/STM32F4xx_HAL_Driver/Src/stm32f4xx_hal_tim_ex.c ****     {
 987:Drivers/STM32F4xx_HAL_Driver/Src/stm32f4xx_hal_tim_ex.c ****       __HAL_TIM_ENABLE(htim);
 2673              		.loc 1 987 7
 2674 02a8 FB68     		ldr	r3, [r7, #12]
 2675 02aa 1B68     		ldr	r3, [r3]
 2676 02ac 1A68     		ldr	r2, [r3]
 2677 02ae FB68     		ldr	r3, [r7, #12]
 2678 02b0 1B68     		ldr	r3, [r3]
 2679 02b2 42F00102 		orr	r2, r2, #1
 2680 02b6 1A60     		str	r2, [r3]
 2681              	.L159:
 988:Drivers/STM32F4xx_HAL_Driver/Src/stm32f4xx_hal_tim_ex.c ****     }
ARM GAS  C:\Users\DAELT-~1\AppData\Local\Temp\cc2rhEX6.s 			page 65


 989:Drivers/STM32F4xx_HAL_Driver/Src/stm32f4xx_hal_tim_ex.c ****   }
 990:Drivers/STM32F4xx_HAL_Driver/Src/stm32f4xx_hal_tim_ex.c **** 
 991:Drivers/STM32F4xx_HAL_Driver/Src/stm32f4xx_hal_tim_ex.c ****   /* Return function status */
 992:Drivers/STM32F4xx_HAL_Driver/Src/stm32f4xx_hal_tim_ex.c ****   return status;
 2682              		.loc 1 992 10
 2683 02b8 FB7D     		ldrb	r3, [r7, #23]	@ zero_extendqisi2
 2684              	.L136:
 993:Drivers/STM32F4xx_HAL_Driver/Src/stm32f4xx_hal_tim_ex.c **** }
 2685              		.loc 1 993 1
 2686 02ba 1846     		mov	r0, r3
 2687 02bc 1837     		adds	r7, r7, #24
 2688              	.LCFI75:
 2689              		.cfi_def_cfa_offset 8
 2690 02be BD46     		mov	sp, r7
 2691              	.LCFI76:
 2692              		.cfi_def_cfa_register 13
 2693              		@ sp needed
 2694 02c0 80BD     		pop	{r7, pc}
 2695              	.L164:
 2696 02c2 00BF     		.align	2
 2697              	.L163:
 2698 02c4 00000000 		.word	TIM_DMADelayPulseNCplt
 2699 02c8 00000000 		.word	TIM_DMADelayPulseHalfCplt
 2700 02cc 00000000 		.word	TIM_DMAErrorCCxN
 2701 02d0 00000140 		.word	1073807360
 2702 02d4 00040040 		.word	1073742848
 2703 02d8 00080040 		.word	1073743872
 2704 02dc 000C0040 		.word	1073744896
 2705 02e0 00400140 		.word	1073823744
 2706              		.cfi_endproc
 2707              	.LFE144:
 2709              		.section	.text.HAL_TIMEx_OCN_Stop_DMA,"ax",%progbits
 2710              		.align	1
 2711              		.global	HAL_TIMEx_OCN_Stop_DMA
 2712              		.syntax unified
 2713              		.thumb
 2714              		.thumb_func
 2716              	HAL_TIMEx_OCN_Stop_DMA:
 2717              	.LFB145:
 994:Drivers/STM32F4xx_HAL_Driver/Src/stm32f4xx_hal_tim_ex.c **** 
 995:Drivers/STM32F4xx_HAL_Driver/Src/stm32f4xx_hal_tim_ex.c **** /**
 996:Drivers/STM32F4xx_HAL_Driver/Src/stm32f4xx_hal_tim_ex.c ****   * @brief  Stops the TIM Output Compare signal generation in DMA mode
 997:Drivers/STM32F4xx_HAL_Driver/Src/stm32f4xx_hal_tim_ex.c ****   *         on the complementary output.
 998:Drivers/STM32F4xx_HAL_Driver/Src/stm32f4xx_hal_tim_ex.c ****   * @param  htim TIM Output Compare handle
 999:Drivers/STM32F4xx_HAL_Driver/Src/stm32f4xx_hal_tim_ex.c ****   * @param  Channel TIM Channel to be disabled
1000:Drivers/STM32F4xx_HAL_Driver/Src/stm32f4xx_hal_tim_ex.c ****   *          This parameter can be one of the following values:
1001:Drivers/STM32F4xx_HAL_Driver/Src/stm32f4xx_hal_tim_ex.c ****   *            @arg TIM_CHANNEL_1: TIM Channel 1 selected
1002:Drivers/STM32F4xx_HAL_Driver/Src/stm32f4xx_hal_tim_ex.c ****   *            @arg TIM_CHANNEL_2: TIM Channel 2 selected
1003:Drivers/STM32F4xx_HAL_Driver/Src/stm32f4xx_hal_tim_ex.c ****   *            @arg TIM_CHANNEL_3: TIM Channel 3 selected
1004:Drivers/STM32F4xx_HAL_Driver/Src/stm32f4xx_hal_tim_ex.c ****   * @retval HAL status
1005:Drivers/STM32F4xx_HAL_Driver/Src/stm32f4xx_hal_tim_ex.c ****   */
1006:Drivers/STM32F4xx_HAL_Driver/Src/stm32f4xx_hal_tim_ex.c **** HAL_StatusTypeDef HAL_TIMEx_OCN_Stop_DMA(TIM_HandleTypeDef *htim, uint32_t Channel)
1007:Drivers/STM32F4xx_HAL_Driver/Src/stm32f4xx_hal_tim_ex.c **** {
 2718              		.loc 1 1007 1
 2719              		.cfi_startproc
 2720              		@ args = 0, pretend = 0, frame = 16
 2721              		@ frame_needed = 1, uses_anonymous_args = 0
ARM GAS  C:\Users\DAELT-~1\AppData\Local\Temp\cc2rhEX6.s 			page 66


 2722 0000 80B5     		push	{r7, lr}
 2723              	.LCFI77:
 2724              		.cfi_def_cfa_offset 8
 2725              		.cfi_offset 7, -8
 2726              		.cfi_offset 14, -4
 2727 0002 84B0     		sub	sp, sp, #16
 2728              	.LCFI78:
 2729              		.cfi_def_cfa_offset 24
 2730 0004 00AF     		add	r7, sp, #0
 2731              	.LCFI79:
 2732              		.cfi_def_cfa_register 7
 2733 0006 7860     		str	r0, [r7, #4]
 2734 0008 3960     		str	r1, [r7]
1008:Drivers/STM32F4xx_HAL_Driver/Src/stm32f4xx_hal_tim_ex.c ****   HAL_StatusTypeDef status = HAL_OK;
 2735              		.loc 1 1008 21
 2736 000a 0023     		movs	r3, #0
 2737 000c FB73     		strb	r3, [r7, #15]
1009:Drivers/STM32F4xx_HAL_Driver/Src/stm32f4xx_hal_tim_ex.c **** 
1010:Drivers/STM32F4xx_HAL_Driver/Src/stm32f4xx_hal_tim_ex.c ****   /* Check the parameters */
1011:Drivers/STM32F4xx_HAL_Driver/Src/stm32f4xx_hal_tim_ex.c ****   assert_param(IS_TIM_CCXN_INSTANCE(htim->Instance, Channel));
1012:Drivers/STM32F4xx_HAL_Driver/Src/stm32f4xx_hal_tim_ex.c **** 
1013:Drivers/STM32F4xx_HAL_Driver/Src/stm32f4xx_hal_tim_ex.c ****   switch (Channel)
 2738              		.loc 1 1013 3
 2739 000e 3B68     		ldr	r3, [r7]
 2740 0010 082B     		cmp	r3, #8
 2741 0012 25D0     		beq	.L166
 2742 0014 3B68     		ldr	r3, [r7]
 2743 0016 082B     		cmp	r3, #8
 2744 0018 30D8     		bhi	.L167
 2745 001a 3B68     		ldr	r3, [r7]
 2746 001c 002B     		cmp	r3, #0
 2747 001e 03D0     		beq	.L168
 2748 0020 3B68     		ldr	r3, [r7]
 2749 0022 042B     		cmp	r3, #4
 2750 0024 0ED0     		beq	.L169
 2751 0026 29E0     		b	.L167
 2752              	.L168:
1014:Drivers/STM32F4xx_HAL_Driver/Src/stm32f4xx_hal_tim_ex.c ****   {
1015:Drivers/STM32F4xx_HAL_Driver/Src/stm32f4xx_hal_tim_ex.c ****     case TIM_CHANNEL_1:
1016:Drivers/STM32F4xx_HAL_Driver/Src/stm32f4xx_hal_tim_ex.c ****     {
1017:Drivers/STM32F4xx_HAL_Driver/Src/stm32f4xx_hal_tim_ex.c ****       /* Disable the TIM Output Compare DMA request */
1018:Drivers/STM32F4xx_HAL_Driver/Src/stm32f4xx_hal_tim_ex.c ****       __HAL_TIM_DISABLE_DMA(htim, TIM_DMA_CC1);
 2753              		.loc 1 1018 7
 2754 0028 7B68     		ldr	r3, [r7, #4]
 2755 002a 1B68     		ldr	r3, [r3]
 2756 002c DA68     		ldr	r2, [r3, #12]
 2757 002e 7B68     		ldr	r3, [r7, #4]
 2758 0030 1B68     		ldr	r3, [r3]
 2759 0032 22F40072 		bic	r2, r2, #512
 2760 0036 DA60     		str	r2, [r3, #12]
1019:Drivers/STM32F4xx_HAL_Driver/Src/stm32f4xx_hal_tim_ex.c ****       (void)HAL_DMA_Abort_IT(htim->hdma[TIM_DMA_ID_CC1]);
 2761              		.loc 1 1019 13
 2762 0038 7B68     		ldr	r3, [r7, #4]
 2763 003a 5B6A     		ldr	r3, [r3, #36]
 2764 003c 1846     		mov	r0, r3
 2765 003e FFF7FEFF 		bl	HAL_DMA_Abort_IT
1020:Drivers/STM32F4xx_HAL_Driver/Src/stm32f4xx_hal_tim_ex.c ****       break;
ARM GAS  C:\Users\DAELT-~1\AppData\Local\Temp\cc2rhEX6.s 			page 67


 2766              		.loc 1 1020 7
 2767 0042 1EE0     		b	.L170
 2768              	.L169:
1021:Drivers/STM32F4xx_HAL_Driver/Src/stm32f4xx_hal_tim_ex.c ****     }
1022:Drivers/STM32F4xx_HAL_Driver/Src/stm32f4xx_hal_tim_ex.c **** 
1023:Drivers/STM32F4xx_HAL_Driver/Src/stm32f4xx_hal_tim_ex.c ****     case TIM_CHANNEL_2:
1024:Drivers/STM32F4xx_HAL_Driver/Src/stm32f4xx_hal_tim_ex.c ****     {
1025:Drivers/STM32F4xx_HAL_Driver/Src/stm32f4xx_hal_tim_ex.c ****       /* Disable the TIM Output Compare DMA request */
1026:Drivers/STM32F4xx_HAL_Driver/Src/stm32f4xx_hal_tim_ex.c ****       __HAL_TIM_DISABLE_DMA(htim, TIM_DMA_CC2);
 2769              		.loc 1 1026 7
 2770 0044 7B68     		ldr	r3, [r7, #4]
 2771 0046 1B68     		ldr	r3, [r3]
 2772 0048 DA68     		ldr	r2, [r3, #12]
 2773 004a 7B68     		ldr	r3, [r7, #4]
 2774 004c 1B68     		ldr	r3, [r3]
 2775 004e 22F48062 		bic	r2, r2, #1024
 2776 0052 DA60     		str	r2, [r3, #12]
1027:Drivers/STM32F4xx_HAL_Driver/Src/stm32f4xx_hal_tim_ex.c ****       (void)HAL_DMA_Abort_IT(htim->hdma[TIM_DMA_ID_CC2]);
 2777              		.loc 1 1027 13
 2778 0054 7B68     		ldr	r3, [r7, #4]
 2779 0056 9B6A     		ldr	r3, [r3, #40]
 2780 0058 1846     		mov	r0, r3
 2781 005a FFF7FEFF 		bl	HAL_DMA_Abort_IT
1028:Drivers/STM32F4xx_HAL_Driver/Src/stm32f4xx_hal_tim_ex.c ****       break;
 2782              		.loc 1 1028 7
 2783 005e 10E0     		b	.L170
 2784              	.L166:
1029:Drivers/STM32F4xx_HAL_Driver/Src/stm32f4xx_hal_tim_ex.c ****     }
1030:Drivers/STM32F4xx_HAL_Driver/Src/stm32f4xx_hal_tim_ex.c **** 
1031:Drivers/STM32F4xx_HAL_Driver/Src/stm32f4xx_hal_tim_ex.c ****     case TIM_CHANNEL_3:
1032:Drivers/STM32F4xx_HAL_Driver/Src/stm32f4xx_hal_tim_ex.c ****     {
1033:Drivers/STM32F4xx_HAL_Driver/Src/stm32f4xx_hal_tim_ex.c ****       /* Disable the TIM Output Compare DMA request */
1034:Drivers/STM32F4xx_HAL_Driver/Src/stm32f4xx_hal_tim_ex.c ****       __HAL_TIM_DISABLE_DMA(htim, TIM_DMA_CC3);
 2785              		.loc 1 1034 7
 2786 0060 7B68     		ldr	r3, [r7, #4]
 2787 0062 1B68     		ldr	r3, [r3]
 2788 0064 DA68     		ldr	r2, [r3, #12]
 2789 0066 7B68     		ldr	r3, [r7, #4]
 2790 0068 1B68     		ldr	r3, [r3]
 2791 006a 22F40062 		bic	r2, r2, #2048
 2792 006e DA60     		str	r2, [r3, #12]
1035:Drivers/STM32F4xx_HAL_Driver/Src/stm32f4xx_hal_tim_ex.c ****       (void)HAL_DMA_Abort_IT(htim->hdma[TIM_DMA_ID_CC3]);
 2793              		.loc 1 1035 13
 2794 0070 7B68     		ldr	r3, [r7, #4]
 2795 0072 DB6A     		ldr	r3, [r3, #44]
 2796 0074 1846     		mov	r0, r3
 2797 0076 FFF7FEFF 		bl	HAL_DMA_Abort_IT
1036:Drivers/STM32F4xx_HAL_Driver/Src/stm32f4xx_hal_tim_ex.c ****       break;
 2798              		.loc 1 1036 7
 2799 007a 02E0     		b	.L170
 2800              	.L167:
1037:Drivers/STM32F4xx_HAL_Driver/Src/stm32f4xx_hal_tim_ex.c ****     }
1038:Drivers/STM32F4xx_HAL_Driver/Src/stm32f4xx_hal_tim_ex.c **** 
1039:Drivers/STM32F4xx_HAL_Driver/Src/stm32f4xx_hal_tim_ex.c ****     default:
1040:Drivers/STM32F4xx_HAL_Driver/Src/stm32f4xx_hal_tim_ex.c ****       status = HAL_ERROR;
 2801              		.loc 1 1040 14
 2802 007c 0123     		movs	r3, #1
ARM GAS  C:\Users\DAELT-~1\AppData\Local\Temp\cc2rhEX6.s 			page 68


 2803 007e FB73     		strb	r3, [r7, #15]
1041:Drivers/STM32F4xx_HAL_Driver/Src/stm32f4xx_hal_tim_ex.c ****       break;
 2804              		.loc 1 1041 7
 2805 0080 00BF     		nop
 2806              	.L170:
1042:Drivers/STM32F4xx_HAL_Driver/Src/stm32f4xx_hal_tim_ex.c ****   }
1043:Drivers/STM32F4xx_HAL_Driver/Src/stm32f4xx_hal_tim_ex.c **** 
1044:Drivers/STM32F4xx_HAL_Driver/Src/stm32f4xx_hal_tim_ex.c ****   if (status == HAL_OK)
 2807              		.loc 1 1044 6
 2808 0082 FB7B     		ldrb	r3, [r7, #15]	@ zero_extendqisi2
 2809 0084 002B     		cmp	r3, #0
 2810 0086 52D1     		bne	.L171
1045:Drivers/STM32F4xx_HAL_Driver/Src/stm32f4xx_hal_tim_ex.c ****   {
1046:Drivers/STM32F4xx_HAL_Driver/Src/stm32f4xx_hal_tim_ex.c ****     /* Disable the Capture compare channel N */
1047:Drivers/STM32F4xx_HAL_Driver/Src/stm32f4xx_hal_tim_ex.c ****     TIM_CCxNChannelCmd(htim->Instance, Channel, TIM_CCxN_DISABLE);
 2811              		.loc 1 1047 5
 2812 0088 7B68     		ldr	r3, [r7, #4]
 2813 008a 1B68     		ldr	r3, [r3]
 2814 008c 0022     		movs	r2, #0
 2815 008e 3968     		ldr	r1, [r7]
 2816 0090 1846     		mov	r0, r3
 2817 0092 FFF7FEFF 		bl	TIM_CCxNChannelCmd
1048:Drivers/STM32F4xx_HAL_Driver/Src/stm32f4xx_hal_tim_ex.c **** 
1049:Drivers/STM32F4xx_HAL_Driver/Src/stm32f4xx_hal_tim_ex.c ****     /* Disable the Main Output */
1050:Drivers/STM32F4xx_HAL_Driver/Src/stm32f4xx_hal_tim_ex.c ****     __HAL_TIM_MOE_DISABLE(htim);
 2818              		.loc 1 1050 5
 2819 0096 7B68     		ldr	r3, [r7, #4]
 2820 0098 1B68     		ldr	r3, [r3]
 2821 009a 1A6A     		ldr	r2, [r3, #32]
 2822 009c 41F21113 		movw	r3, #4369
 2823 00a0 1340     		ands	r3, r3, r2
 2824 00a2 002B     		cmp	r3, #0
 2825 00a4 0FD1     		bne	.L172
 2826              		.loc 1 1050 5 is_stmt 0 discriminator 1
 2827 00a6 7B68     		ldr	r3, [r7, #4]
 2828 00a8 1B68     		ldr	r3, [r3]
 2829 00aa 1A6A     		ldr	r2, [r3, #32]
 2830 00ac 40F24443 		movw	r3, #1092
 2831 00b0 1340     		ands	r3, r3, r2
 2832 00b2 002B     		cmp	r3, #0
 2833 00b4 07D1     		bne	.L172
 2834              		.loc 1 1050 5 discriminator 2
 2835 00b6 7B68     		ldr	r3, [r7, #4]
 2836 00b8 1B68     		ldr	r3, [r3]
 2837 00ba 5A6C     		ldr	r2, [r3, #68]
 2838 00bc 7B68     		ldr	r3, [r7, #4]
 2839 00be 1B68     		ldr	r3, [r3]
 2840 00c0 22F40042 		bic	r2, r2, #32768
 2841 00c4 5A64     		str	r2, [r3, #68]
 2842              	.L172:
1051:Drivers/STM32F4xx_HAL_Driver/Src/stm32f4xx_hal_tim_ex.c **** 
1052:Drivers/STM32F4xx_HAL_Driver/Src/stm32f4xx_hal_tim_ex.c ****     /* Disable the Peripheral */
1053:Drivers/STM32F4xx_HAL_Driver/Src/stm32f4xx_hal_tim_ex.c ****     __HAL_TIM_DISABLE(htim);
 2843              		.loc 1 1053 5 is_stmt 1
 2844 00c6 7B68     		ldr	r3, [r7, #4]
 2845 00c8 1B68     		ldr	r3, [r3]
 2846 00ca 1A6A     		ldr	r2, [r3, #32]
ARM GAS  C:\Users\DAELT-~1\AppData\Local\Temp\cc2rhEX6.s 			page 69


 2847 00cc 41F21113 		movw	r3, #4369
 2848 00d0 1340     		ands	r3, r3, r2
 2849 00d2 002B     		cmp	r3, #0
 2850 00d4 0FD1     		bne	.L173
 2851              		.loc 1 1053 5 is_stmt 0 discriminator 1
 2852 00d6 7B68     		ldr	r3, [r7, #4]
 2853 00d8 1B68     		ldr	r3, [r3]
 2854 00da 1A6A     		ldr	r2, [r3, #32]
 2855 00dc 40F24443 		movw	r3, #1092
 2856 00e0 1340     		ands	r3, r3, r2
 2857 00e2 002B     		cmp	r3, #0
 2858 00e4 07D1     		bne	.L173
 2859              		.loc 1 1053 5 discriminator 2
 2860 00e6 7B68     		ldr	r3, [r7, #4]
 2861 00e8 1B68     		ldr	r3, [r3]
 2862 00ea 1A68     		ldr	r2, [r3]
 2863 00ec 7B68     		ldr	r3, [r7, #4]
 2864 00ee 1B68     		ldr	r3, [r3]
 2865 00f0 22F00102 		bic	r2, r2, #1
 2866 00f4 1A60     		str	r2, [r3]
 2867              	.L173:
1054:Drivers/STM32F4xx_HAL_Driver/Src/stm32f4xx_hal_tim_ex.c **** 
1055:Drivers/STM32F4xx_HAL_Driver/Src/stm32f4xx_hal_tim_ex.c ****     /* Set the TIM complementary channel state */
1056:Drivers/STM32F4xx_HAL_Driver/Src/stm32f4xx_hal_tim_ex.c ****     TIM_CHANNEL_N_STATE_SET(htim, Channel, HAL_TIM_CHANNEL_STATE_READY);
 2868              		.loc 1 1056 5 is_stmt 1
 2869 00f6 3B68     		ldr	r3, [r7]
 2870 00f8 002B     		cmp	r3, #0
 2871 00fa 04D1     		bne	.L174
 2872              		.loc 1 1056 5 is_stmt 0 discriminator 1
 2873 00fc 7B68     		ldr	r3, [r7, #4]
 2874 00fe 0122     		movs	r2, #1
 2875 0100 83F84220 		strb	r2, [r3, #66]
 2876 0104 13E0     		b	.L171
 2877              	.L174:
 2878              		.loc 1 1056 5 discriminator 2
 2879 0106 3B68     		ldr	r3, [r7]
 2880 0108 042B     		cmp	r3, #4
 2881 010a 04D1     		bne	.L175
 2882              		.loc 1 1056 5 discriminator 3
 2883 010c 7B68     		ldr	r3, [r7, #4]
 2884 010e 0122     		movs	r2, #1
 2885 0110 83F84320 		strb	r2, [r3, #67]
 2886 0114 0BE0     		b	.L171
 2887              	.L175:
 2888              		.loc 1 1056 5 discriminator 4
 2889 0116 3B68     		ldr	r3, [r7]
 2890 0118 082B     		cmp	r3, #8
 2891 011a 04D1     		bne	.L177
 2892              		.loc 1 1056 5 discriminator 6
 2893 011c 7B68     		ldr	r3, [r7, #4]
 2894 011e 0122     		movs	r2, #1
 2895 0120 83F84420 		strb	r2, [r3, #68]
 2896 0124 03E0     		b	.L171
 2897              	.L177:
 2898              		.loc 1 1056 5 discriminator 7
 2899 0126 7B68     		ldr	r3, [r7, #4]
 2900 0128 0122     		movs	r2, #1
ARM GAS  C:\Users\DAELT-~1\AppData\Local\Temp\cc2rhEX6.s 			page 70


 2901 012a 83F84520 		strb	r2, [r3, #69]
 2902              	.L171:
1057:Drivers/STM32F4xx_HAL_Driver/Src/stm32f4xx_hal_tim_ex.c ****   }
1058:Drivers/STM32F4xx_HAL_Driver/Src/stm32f4xx_hal_tim_ex.c **** 
1059:Drivers/STM32F4xx_HAL_Driver/Src/stm32f4xx_hal_tim_ex.c ****   /* Return function status */
1060:Drivers/STM32F4xx_HAL_Driver/Src/stm32f4xx_hal_tim_ex.c ****   return status;
 2903              		.loc 1 1060 10 is_stmt 1
 2904 012e FB7B     		ldrb	r3, [r7, #15]	@ zero_extendqisi2
1061:Drivers/STM32F4xx_HAL_Driver/Src/stm32f4xx_hal_tim_ex.c **** }
 2905              		.loc 1 1061 1
 2906 0130 1846     		mov	r0, r3
 2907 0132 1037     		adds	r7, r7, #16
 2908              	.LCFI80:
 2909              		.cfi_def_cfa_offset 8
 2910 0134 BD46     		mov	sp, r7
 2911              	.LCFI81:
 2912              		.cfi_def_cfa_register 13
 2913              		@ sp needed
 2914 0136 80BD     		pop	{r7, pc}
 2915              		.cfi_endproc
 2916              	.LFE145:
 2918              		.section	.text.HAL_TIMEx_PWMN_Start,"ax",%progbits
 2919              		.align	1
 2920              		.global	HAL_TIMEx_PWMN_Start
 2921              		.syntax unified
 2922              		.thumb
 2923              		.thumb_func
 2925              	HAL_TIMEx_PWMN_Start:
 2926              	.LFB146:
1062:Drivers/STM32F4xx_HAL_Driver/Src/stm32f4xx_hal_tim_ex.c **** 
1063:Drivers/STM32F4xx_HAL_Driver/Src/stm32f4xx_hal_tim_ex.c **** /**
1064:Drivers/STM32F4xx_HAL_Driver/Src/stm32f4xx_hal_tim_ex.c ****   * @}
1065:Drivers/STM32F4xx_HAL_Driver/Src/stm32f4xx_hal_tim_ex.c ****   */
1066:Drivers/STM32F4xx_HAL_Driver/Src/stm32f4xx_hal_tim_ex.c **** 
1067:Drivers/STM32F4xx_HAL_Driver/Src/stm32f4xx_hal_tim_ex.c **** /** @defgroup TIMEx_Exported_Functions_Group3 Extended Timer Complementary PWM functions
1068:Drivers/STM32F4xx_HAL_Driver/Src/stm32f4xx_hal_tim_ex.c ****   * @brief    Timer Complementary PWM functions
1069:Drivers/STM32F4xx_HAL_Driver/Src/stm32f4xx_hal_tim_ex.c ****   *
1070:Drivers/STM32F4xx_HAL_Driver/Src/stm32f4xx_hal_tim_ex.c **** @verbatim
1071:Drivers/STM32F4xx_HAL_Driver/Src/stm32f4xx_hal_tim_ex.c ****   ==============================================================================
1072:Drivers/STM32F4xx_HAL_Driver/Src/stm32f4xx_hal_tim_ex.c ****                  ##### Timer Complementary PWM functions #####
1073:Drivers/STM32F4xx_HAL_Driver/Src/stm32f4xx_hal_tim_ex.c ****   ==============================================================================
1074:Drivers/STM32F4xx_HAL_Driver/Src/stm32f4xx_hal_tim_ex.c ****   [..]
1075:Drivers/STM32F4xx_HAL_Driver/Src/stm32f4xx_hal_tim_ex.c ****     This section provides functions allowing to:
1076:Drivers/STM32F4xx_HAL_Driver/Src/stm32f4xx_hal_tim_ex.c ****     (+) Start the Complementary PWM.
1077:Drivers/STM32F4xx_HAL_Driver/Src/stm32f4xx_hal_tim_ex.c ****     (+) Stop the Complementary PWM.
1078:Drivers/STM32F4xx_HAL_Driver/Src/stm32f4xx_hal_tim_ex.c ****     (+) Start the Complementary PWM and enable interrupts.
1079:Drivers/STM32F4xx_HAL_Driver/Src/stm32f4xx_hal_tim_ex.c ****     (+) Stop the Complementary PWM and disable interrupts.
1080:Drivers/STM32F4xx_HAL_Driver/Src/stm32f4xx_hal_tim_ex.c ****     (+) Start the Complementary PWM and enable DMA transfers.
1081:Drivers/STM32F4xx_HAL_Driver/Src/stm32f4xx_hal_tim_ex.c ****     (+) Stop the Complementary PWM and disable DMA transfers.
1082:Drivers/STM32F4xx_HAL_Driver/Src/stm32f4xx_hal_tim_ex.c ****     (+) Start the Complementary Input Capture measurement.
1083:Drivers/STM32F4xx_HAL_Driver/Src/stm32f4xx_hal_tim_ex.c ****     (+) Stop the Complementary Input Capture.
1084:Drivers/STM32F4xx_HAL_Driver/Src/stm32f4xx_hal_tim_ex.c ****     (+) Start the Complementary Input Capture and enable interrupts.
1085:Drivers/STM32F4xx_HAL_Driver/Src/stm32f4xx_hal_tim_ex.c ****     (+) Stop the Complementary Input Capture and disable interrupts.
1086:Drivers/STM32F4xx_HAL_Driver/Src/stm32f4xx_hal_tim_ex.c ****     (+) Start the Complementary Input Capture and enable DMA transfers.
1087:Drivers/STM32F4xx_HAL_Driver/Src/stm32f4xx_hal_tim_ex.c ****     (+) Stop the Complementary Input Capture and disable DMA transfers.
1088:Drivers/STM32F4xx_HAL_Driver/Src/stm32f4xx_hal_tim_ex.c ****     (+) Start the Complementary One Pulse generation.
1089:Drivers/STM32F4xx_HAL_Driver/Src/stm32f4xx_hal_tim_ex.c ****     (+) Stop the Complementary One Pulse.
ARM GAS  C:\Users\DAELT-~1\AppData\Local\Temp\cc2rhEX6.s 			page 71


1090:Drivers/STM32F4xx_HAL_Driver/Src/stm32f4xx_hal_tim_ex.c ****     (+) Start the Complementary One Pulse and enable interrupts.
1091:Drivers/STM32F4xx_HAL_Driver/Src/stm32f4xx_hal_tim_ex.c ****     (+) Stop the Complementary One Pulse and disable interrupts.
1092:Drivers/STM32F4xx_HAL_Driver/Src/stm32f4xx_hal_tim_ex.c **** 
1093:Drivers/STM32F4xx_HAL_Driver/Src/stm32f4xx_hal_tim_ex.c **** @endverbatim
1094:Drivers/STM32F4xx_HAL_Driver/Src/stm32f4xx_hal_tim_ex.c ****   * @{
1095:Drivers/STM32F4xx_HAL_Driver/Src/stm32f4xx_hal_tim_ex.c ****   */
1096:Drivers/STM32F4xx_HAL_Driver/Src/stm32f4xx_hal_tim_ex.c **** 
1097:Drivers/STM32F4xx_HAL_Driver/Src/stm32f4xx_hal_tim_ex.c **** /**
1098:Drivers/STM32F4xx_HAL_Driver/Src/stm32f4xx_hal_tim_ex.c ****   * @brief  Starts the PWM signal generation on the complementary output.
1099:Drivers/STM32F4xx_HAL_Driver/Src/stm32f4xx_hal_tim_ex.c ****   * @param  htim TIM handle
1100:Drivers/STM32F4xx_HAL_Driver/Src/stm32f4xx_hal_tim_ex.c ****   * @param  Channel TIM Channel to be enabled
1101:Drivers/STM32F4xx_HAL_Driver/Src/stm32f4xx_hal_tim_ex.c ****   *          This parameter can be one of the following values:
1102:Drivers/STM32F4xx_HAL_Driver/Src/stm32f4xx_hal_tim_ex.c ****   *            @arg TIM_CHANNEL_1: TIM Channel 1 selected
1103:Drivers/STM32F4xx_HAL_Driver/Src/stm32f4xx_hal_tim_ex.c ****   *            @arg TIM_CHANNEL_2: TIM Channel 2 selected
1104:Drivers/STM32F4xx_HAL_Driver/Src/stm32f4xx_hal_tim_ex.c ****   *            @arg TIM_CHANNEL_3: TIM Channel 3 selected
1105:Drivers/STM32F4xx_HAL_Driver/Src/stm32f4xx_hal_tim_ex.c ****   * @retval HAL status
1106:Drivers/STM32F4xx_HAL_Driver/Src/stm32f4xx_hal_tim_ex.c ****   */
1107:Drivers/STM32F4xx_HAL_Driver/Src/stm32f4xx_hal_tim_ex.c **** HAL_StatusTypeDef HAL_TIMEx_PWMN_Start(TIM_HandleTypeDef *htim, uint32_t Channel)
1108:Drivers/STM32F4xx_HAL_Driver/Src/stm32f4xx_hal_tim_ex.c **** {
 2927              		.loc 1 1108 1
 2928              		.cfi_startproc
 2929              		@ args = 0, pretend = 0, frame = 16
 2930              		@ frame_needed = 1, uses_anonymous_args = 0
 2931 0000 80B5     		push	{r7, lr}
 2932              	.LCFI82:
 2933              		.cfi_def_cfa_offset 8
 2934              		.cfi_offset 7, -8
 2935              		.cfi_offset 14, -4
 2936 0002 84B0     		sub	sp, sp, #16
 2937              	.LCFI83:
 2938              		.cfi_def_cfa_offset 24
 2939 0004 00AF     		add	r7, sp, #0
 2940              	.LCFI84:
 2941              		.cfi_def_cfa_register 7
 2942 0006 7860     		str	r0, [r7, #4]
 2943 0008 3960     		str	r1, [r7]
1109:Drivers/STM32F4xx_HAL_Driver/Src/stm32f4xx_hal_tim_ex.c ****   uint32_t tmpsmcr;
1110:Drivers/STM32F4xx_HAL_Driver/Src/stm32f4xx_hal_tim_ex.c **** 
1111:Drivers/STM32F4xx_HAL_Driver/Src/stm32f4xx_hal_tim_ex.c ****   /* Check the parameters */
1112:Drivers/STM32F4xx_HAL_Driver/Src/stm32f4xx_hal_tim_ex.c ****   assert_param(IS_TIM_CCXN_INSTANCE(htim->Instance, Channel));
1113:Drivers/STM32F4xx_HAL_Driver/Src/stm32f4xx_hal_tim_ex.c **** 
1114:Drivers/STM32F4xx_HAL_Driver/Src/stm32f4xx_hal_tim_ex.c ****   /* Check the TIM complementary channel state */
1115:Drivers/STM32F4xx_HAL_Driver/Src/stm32f4xx_hal_tim_ex.c ****   if (TIM_CHANNEL_N_STATE_GET(htim, Channel) != HAL_TIM_CHANNEL_STATE_READY)
 2944              		.loc 1 1115 46
 2945 000a 3B68     		ldr	r3, [r7]
 2946 000c 002B     		cmp	r3, #0
 2947 000e 09D1     		bne	.L181
 2948              		.loc 1 1115 7 discriminator 1
 2949 0010 7B68     		ldr	r3, [r7, #4]
 2950 0012 93F84230 		ldrb	r3, [r3, #66]
 2951 0016 DBB2     		uxtb	r3, r3
 2952              		.loc 1 1115 46 discriminator 1
 2953 0018 012B     		cmp	r3, #1
 2954 001a 14BF     		ite	ne
 2955 001c 0123     		movne	r3, #1
 2956 001e 0023     		moveq	r3, #0
 2957 0020 DBB2     		uxtb	r3, r3
ARM GAS  C:\Users\DAELT-~1\AppData\Local\Temp\cc2rhEX6.s 			page 72


 2958 0022 22E0     		b	.L182
 2959              	.L181:
 2960              		.loc 1 1115 46 is_stmt 0 discriminator 2
 2961 0024 3B68     		ldr	r3, [r7]
 2962 0026 042B     		cmp	r3, #4
 2963 0028 09D1     		bne	.L183
 2964              		.loc 1 1115 7 is_stmt 1 discriminator 4
 2965 002a 7B68     		ldr	r3, [r7, #4]
 2966 002c 93F84330 		ldrb	r3, [r3, #67]
 2967 0030 DBB2     		uxtb	r3, r3
 2968              		.loc 1 1115 46 discriminator 4
 2969 0032 012B     		cmp	r3, #1
 2970 0034 14BF     		ite	ne
 2971 0036 0123     		movne	r3, #1
 2972 0038 0023     		moveq	r3, #0
 2973 003a DBB2     		uxtb	r3, r3
 2974 003c 15E0     		b	.L182
 2975              	.L183:
 2976              		.loc 1 1115 46 is_stmt 0 discriminator 5
 2977 003e 3B68     		ldr	r3, [r7]
 2978 0040 082B     		cmp	r3, #8
 2979 0042 09D1     		bne	.L185
 2980              		.loc 1 1115 7 is_stmt 1 discriminator 7
 2981 0044 7B68     		ldr	r3, [r7, #4]
 2982 0046 93F84430 		ldrb	r3, [r3, #68]
 2983 004a DBB2     		uxtb	r3, r3
 2984              		.loc 1 1115 46 discriminator 7
 2985 004c 012B     		cmp	r3, #1
 2986 004e 14BF     		ite	ne
 2987 0050 0123     		movne	r3, #1
 2988 0052 0023     		moveq	r3, #0
 2989 0054 DBB2     		uxtb	r3, r3
 2990 0056 08E0     		b	.L182
 2991              	.L185:
 2992              		.loc 1 1115 7 discriminator 8
 2993 0058 7B68     		ldr	r3, [r7, #4]
 2994 005a 93F84530 		ldrb	r3, [r3, #69]
 2995 005e DBB2     		uxtb	r3, r3
 2996              		.loc 1 1115 46 discriminator 8
 2997 0060 012B     		cmp	r3, #1
 2998 0062 14BF     		ite	ne
 2999 0064 0123     		movne	r3, #1
 3000 0066 0023     		moveq	r3, #0
 3001 0068 DBB2     		uxtb	r3, r3
 3002              	.L182:
 3003              		.loc 1 1115 6 discriminator 12
 3004 006a 002B     		cmp	r3, #0
 3005 006c 01D0     		beq	.L187
1116:Drivers/STM32F4xx_HAL_Driver/Src/stm32f4xx_hal_tim_ex.c ****   {
1117:Drivers/STM32F4xx_HAL_Driver/Src/stm32f4xx_hal_tim_ex.c ****     return HAL_ERROR;
 3006              		.loc 1 1117 12
 3007 006e 0123     		movs	r3, #1
 3008 0070 63E0     		b	.L188
 3009              	.L187:
1118:Drivers/STM32F4xx_HAL_Driver/Src/stm32f4xx_hal_tim_ex.c ****   }
1119:Drivers/STM32F4xx_HAL_Driver/Src/stm32f4xx_hal_tim_ex.c **** 
1120:Drivers/STM32F4xx_HAL_Driver/Src/stm32f4xx_hal_tim_ex.c ****   /* Set the TIM complementary channel state */
ARM GAS  C:\Users\DAELT-~1\AppData\Local\Temp\cc2rhEX6.s 			page 73


1121:Drivers/STM32F4xx_HAL_Driver/Src/stm32f4xx_hal_tim_ex.c ****   TIM_CHANNEL_N_STATE_SET(htim, Channel, HAL_TIM_CHANNEL_STATE_BUSY);
 3010              		.loc 1 1121 3
 3011 0072 3B68     		ldr	r3, [r7]
 3012 0074 002B     		cmp	r3, #0
 3013 0076 04D1     		bne	.L189
 3014              		.loc 1 1121 3 is_stmt 0 discriminator 1
 3015 0078 7B68     		ldr	r3, [r7, #4]
 3016 007a 0222     		movs	r2, #2
 3017 007c 83F84220 		strb	r2, [r3, #66]
 3018 0080 13E0     		b	.L190
 3019              	.L189:
 3020              		.loc 1 1121 3 discriminator 2
 3021 0082 3B68     		ldr	r3, [r7]
 3022 0084 042B     		cmp	r3, #4
 3023 0086 04D1     		bne	.L191
 3024              		.loc 1 1121 3 discriminator 3
 3025 0088 7B68     		ldr	r3, [r7, #4]
 3026 008a 0222     		movs	r2, #2
 3027 008c 83F84320 		strb	r2, [r3, #67]
 3028 0090 0BE0     		b	.L190
 3029              	.L191:
 3030              		.loc 1 1121 3 discriminator 4
 3031 0092 3B68     		ldr	r3, [r7]
 3032 0094 082B     		cmp	r3, #8
 3033 0096 04D1     		bne	.L193
 3034              		.loc 1 1121 3 discriminator 6
 3035 0098 7B68     		ldr	r3, [r7, #4]
 3036 009a 0222     		movs	r2, #2
 3037 009c 83F84420 		strb	r2, [r3, #68]
 3038 00a0 03E0     		b	.L190
 3039              	.L193:
 3040              		.loc 1 1121 3 discriminator 7
 3041 00a2 7B68     		ldr	r3, [r7, #4]
 3042 00a4 0222     		movs	r2, #2
 3043 00a6 83F84520 		strb	r2, [r3, #69]
 3044              	.L190:
1122:Drivers/STM32F4xx_HAL_Driver/Src/stm32f4xx_hal_tim_ex.c **** 
1123:Drivers/STM32F4xx_HAL_Driver/Src/stm32f4xx_hal_tim_ex.c ****   /* Enable the complementary PWM output  */
1124:Drivers/STM32F4xx_HAL_Driver/Src/stm32f4xx_hal_tim_ex.c ****   TIM_CCxNChannelCmd(htim->Instance, Channel, TIM_CCxN_ENABLE);
 3045              		.loc 1 1124 3 is_stmt 1
 3046 00aa 7B68     		ldr	r3, [r7, #4]
 3047 00ac 1B68     		ldr	r3, [r3]
 3048 00ae 0422     		movs	r2, #4
 3049 00b0 3968     		ldr	r1, [r7]
 3050 00b2 1846     		mov	r0, r3
 3051 00b4 FFF7FEFF 		bl	TIM_CCxNChannelCmd
1125:Drivers/STM32F4xx_HAL_Driver/Src/stm32f4xx_hal_tim_ex.c **** 
1126:Drivers/STM32F4xx_HAL_Driver/Src/stm32f4xx_hal_tim_ex.c ****   /* Enable the Main Output */
1127:Drivers/STM32F4xx_HAL_Driver/Src/stm32f4xx_hal_tim_ex.c ****   __HAL_TIM_MOE_ENABLE(htim);
 3052              		.loc 1 1127 3
 3053 00b8 7B68     		ldr	r3, [r7, #4]
 3054 00ba 1B68     		ldr	r3, [r3]
 3055 00bc 5A6C     		ldr	r2, [r3, #68]
 3056 00be 7B68     		ldr	r3, [r7, #4]
 3057 00c0 1B68     		ldr	r3, [r3]
 3058 00c2 42F40042 		orr	r2, r2, #32768
 3059 00c6 5A64     		str	r2, [r3, #68]
ARM GAS  C:\Users\DAELT-~1\AppData\Local\Temp\cc2rhEX6.s 			page 74


1128:Drivers/STM32F4xx_HAL_Driver/Src/stm32f4xx_hal_tim_ex.c **** 
1129:Drivers/STM32F4xx_HAL_Driver/Src/stm32f4xx_hal_tim_ex.c ****   /* Enable the Peripheral, except in trigger mode where enable is automatically done with trigger 
1130:Drivers/STM32F4xx_HAL_Driver/Src/stm32f4xx_hal_tim_ex.c ****   if (IS_TIM_SLAVE_INSTANCE(htim->Instance))
 3060              		.loc 1 1130 7
 3061 00c8 7B68     		ldr	r3, [r7, #4]
 3062 00ca 1B68     		ldr	r3, [r3]
 3063              		.loc 1 1130 6
 3064 00cc 1D4A     		ldr	r2, .L199
 3065 00ce 9342     		cmp	r3, r2
 3066 00d0 18D0     		beq	.L195
 3067              		.loc 1 1130 7 discriminator 1
 3068 00d2 7B68     		ldr	r3, [r7, #4]
 3069 00d4 1B68     		ldr	r3, [r3]
 3070 00d6 B3F1804F 		cmp	r3, #1073741824
 3071 00da 13D0     		beq	.L195
 3072              		.loc 1 1130 7 is_stmt 0 discriminator 2
 3073 00dc 7B68     		ldr	r3, [r7, #4]
 3074 00de 1B68     		ldr	r3, [r3]
 3075 00e0 194A     		ldr	r2, .L199+4
 3076 00e2 9342     		cmp	r3, r2
 3077 00e4 0ED0     		beq	.L195
 3078              		.loc 1 1130 7 discriminator 3
 3079 00e6 7B68     		ldr	r3, [r7, #4]
 3080 00e8 1B68     		ldr	r3, [r3]
 3081 00ea 184A     		ldr	r2, .L199+8
 3082 00ec 9342     		cmp	r3, r2
 3083 00ee 09D0     		beq	.L195
 3084              		.loc 1 1130 7 discriminator 4
 3085 00f0 7B68     		ldr	r3, [r7, #4]
 3086 00f2 1B68     		ldr	r3, [r3]
 3087 00f4 164A     		ldr	r2, .L199+12
 3088 00f6 9342     		cmp	r3, r2
 3089 00f8 04D0     		beq	.L195
 3090              		.loc 1 1130 7 discriminator 5
 3091 00fa 7B68     		ldr	r3, [r7, #4]
 3092 00fc 1B68     		ldr	r3, [r3]
 3093 00fe 154A     		ldr	r2, .L199+16
 3094 0100 9342     		cmp	r3, r2
 3095 0102 11D1     		bne	.L196
 3096              	.L195:
1131:Drivers/STM32F4xx_HAL_Driver/Src/stm32f4xx_hal_tim_ex.c ****   {
1132:Drivers/STM32F4xx_HAL_Driver/Src/stm32f4xx_hal_tim_ex.c ****     tmpsmcr = htim->Instance->SMCR & TIM_SMCR_SMS;
 3097              		.loc 1 1132 19 is_stmt 1
 3098 0104 7B68     		ldr	r3, [r7, #4]
 3099 0106 1B68     		ldr	r3, [r3]
 3100              		.loc 1 1132 29
 3101 0108 9B68     		ldr	r3, [r3, #8]
 3102              		.loc 1 1132 13
 3103 010a 03F00703 		and	r3, r3, #7
 3104 010e FB60     		str	r3, [r7, #12]
1133:Drivers/STM32F4xx_HAL_Driver/Src/stm32f4xx_hal_tim_ex.c ****     if (!IS_TIM_SLAVEMODE_TRIGGER_ENABLED(tmpsmcr))
 3105              		.loc 1 1133 8
 3106 0110 FB68     		ldr	r3, [r7, #12]
 3107 0112 062B     		cmp	r3, #6
 3108 0114 10D0     		beq	.L198
1134:Drivers/STM32F4xx_HAL_Driver/Src/stm32f4xx_hal_tim_ex.c ****     {
1135:Drivers/STM32F4xx_HAL_Driver/Src/stm32f4xx_hal_tim_ex.c ****       __HAL_TIM_ENABLE(htim);
ARM GAS  C:\Users\DAELT-~1\AppData\Local\Temp\cc2rhEX6.s 			page 75


 3109              		.loc 1 1135 7
 3110 0116 7B68     		ldr	r3, [r7, #4]
 3111 0118 1B68     		ldr	r3, [r3]
 3112 011a 1A68     		ldr	r2, [r3]
 3113 011c 7B68     		ldr	r3, [r7, #4]
 3114 011e 1B68     		ldr	r3, [r3]
 3115 0120 42F00102 		orr	r2, r2, #1
 3116 0124 1A60     		str	r2, [r3]
1133:Drivers/STM32F4xx_HAL_Driver/Src/stm32f4xx_hal_tim_ex.c ****     if (!IS_TIM_SLAVEMODE_TRIGGER_ENABLED(tmpsmcr))
 3117              		.loc 1 1133 8
 3118 0126 07E0     		b	.L198
 3119              	.L196:
1136:Drivers/STM32F4xx_HAL_Driver/Src/stm32f4xx_hal_tim_ex.c ****     }
1137:Drivers/STM32F4xx_HAL_Driver/Src/stm32f4xx_hal_tim_ex.c ****   }
1138:Drivers/STM32F4xx_HAL_Driver/Src/stm32f4xx_hal_tim_ex.c ****   else
1139:Drivers/STM32F4xx_HAL_Driver/Src/stm32f4xx_hal_tim_ex.c ****   {
1140:Drivers/STM32F4xx_HAL_Driver/Src/stm32f4xx_hal_tim_ex.c ****     __HAL_TIM_ENABLE(htim);
 3120              		.loc 1 1140 5
 3121 0128 7B68     		ldr	r3, [r7, #4]
 3122 012a 1B68     		ldr	r3, [r3]
 3123 012c 1A68     		ldr	r2, [r3]
 3124 012e 7B68     		ldr	r3, [r7, #4]
 3125 0130 1B68     		ldr	r3, [r3]
 3126 0132 42F00102 		orr	r2, r2, #1
 3127 0136 1A60     		str	r2, [r3]
 3128              	.L198:
1141:Drivers/STM32F4xx_HAL_Driver/Src/stm32f4xx_hal_tim_ex.c ****   }
1142:Drivers/STM32F4xx_HAL_Driver/Src/stm32f4xx_hal_tim_ex.c **** 
1143:Drivers/STM32F4xx_HAL_Driver/Src/stm32f4xx_hal_tim_ex.c ****   /* Return function status */
1144:Drivers/STM32F4xx_HAL_Driver/Src/stm32f4xx_hal_tim_ex.c ****   return HAL_OK;
 3129              		.loc 1 1144 10
 3130 0138 0023     		movs	r3, #0
 3131              	.L188:
1145:Drivers/STM32F4xx_HAL_Driver/Src/stm32f4xx_hal_tim_ex.c **** }
 3132              		.loc 1 1145 1
 3133 013a 1846     		mov	r0, r3
 3134 013c 1037     		adds	r7, r7, #16
 3135              	.LCFI85:
 3136              		.cfi_def_cfa_offset 8
 3137 013e BD46     		mov	sp, r7
 3138              	.LCFI86:
 3139              		.cfi_def_cfa_register 13
 3140              		@ sp needed
 3141 0140 80BD     		pop	{r7, pc}
 3142              	.L200:
 3143 0142 00BF     		.align	2
 3144              	.L199:
 3145 0144 00000140 		.word	1073807360
 3146 0148 00040040 		.word	1073742848
 3147 014c 00080040 		.word	1073743872
 3148 0150 000C0040 		.word	1073744896
 3149 0154 00400140 		.word	1073823744
 3150              		.cfi_endproc
 3151              	.LFE146:
 3153              		.section	.text.HAL_TIMEx_PWMN_Stop,"ax",%progbits
 3154              		.align	1
 3155              		.global	HAL_TIMEx_PWMN_Stop
ARM GAS  C:\Users\DAELT-~1\AppData\Local\Temp\cc2rhEX6.s 			page 76


 3156              		.syntax unified
 3157              		.thumb
 3158              		.thumb_func
 3160              	HAL_TIMEx_PWMN_Stop:
 3161              	.LFB147:
1146:Drivers/STM32F4xx_HAL_Driver/Src/stm32f4xx_hal_tim_ex.c **** 
1147:Drivers/STM32F4xx_HAL_Driver/Src/stm32f4xx_hal_tim_ex.c **** /**
1148:Drivers/STM32F4xx_HAL_Driver/Src/stm32f4xx_hal_tim_ex.c ****   * @brief  Stops the PWM signal generation on the complementary output.
1149:Drivers/STM32F4xx_HAL_Driver/Src/stm32f4xx_hal_tim_ex.c ****   * @param  htim TIM handle
1150:Drivers/STM32F4xx_HAL_Driver/Src/stm32f4xx_hal_tim_ex.c ****   * @param  Channel TIM Channel to be disabled
1151:Drivers/STM32F4xx_HAL_Driver/Src/stm32f4xx_hal_tim_ex.c ****   *          This parameter can be one of the following values:
1152:Drivers/STM32F4xx_HAL_Driver/Src/stm32f4xx_hal_tim_ex.c ****   *            @arg TIM_CHANNEL_1: TIM Channel 1 selected
1153:Drivers/STM32F4xx_HAL_Driver/Src/stm32f4xx_hal_tim_ex.c ****   *            @arg TIM_CHANNEL_2: TIM Channel 2 selected
1154:Drivers/STM32F4xx_HAL_Driver/Src/stm32f4xx_hal_tim_ex.c ****   *            @arg TIM_CHANNEL_3: TIM Channel 3 selected
1155:Drivers/STM32F4xx_HAL_Driver/Src/stm32f4xx_hal_tim_ex.c ****   * @retval HAL status
1156:Drivers/STM32F4xx_HAL_Driver/Src/stm32f4xx_hal_tim_ex.c ****   */
1157:Drivers/STM32F4xx_HAL_Driver/Src/stm32f4xx_hal_tim_ex.c **** HAL_StatusTypeDef HAL_TIMEx_PWMN_Stop(TIM_HandleTypeDef *htim, uint32_t Channel)
1158:Drivers/STM32F4xx_HAL_Driver/Src/stm32f4xx_hal_tim_ex.c **** {
 3162              		.loc 1 1158 1
 3163              		.cfi_startproc
 3164              		@ args = 0, pretend = 0, frame = 8
 3165              		@ frame_needed = 1, uses_anonymous_args = 0
 3166 0000 80B5     		push	{r7, lr}
 3167              	.LCFI87:
 3168              		.cfi_def_cfa_offset 8
 3169              		.cfi_offset 7, -8
 3170              		.cfi_offset 14, -4
 3171 0002 82B0     		sub	sp, sp, #8
 3172              	.LCFI88:
 3173              		.cfi_def_cfa_offset 16
 3174 0004 00AF     		add	r7, sp, #0
 3175              	.LCFI89:
 3176              		.cfi_def_cfa_register 7
 3177 0006 7860     		str	r0, [r7, #4]
 3178 0008 3960     		str	r1, [r7]
1159:Drivers/STM32F4xx_HAL_Driver/Src/stm32f4xx_hal_tim_ex.c ****   /* Check the parameters */
1160:Drivers/STM32F4xx_HAL_Driver/Src/stm32f4xx_hal_tim_ex.c ****   assert_param(IS_TIM_CCXN_INSTANCE(htim->Instance, Channel));
1161:Drivers/STM32F4xx_HAL_Driver/Src/stm32f4xx_hal_tim_ex.c **** 
1162:Drivers/STM32F4xx_HAL_Driver/Src/stm32f4xx_hal_tim_ex.c ****   /* Disable the complementary PWM output  */
1163:Drivers/STM32F4xx_HAL_Driver/Src/stm32f4xx_hal_tim_ex.c ****   TIM_CCxNChannelCmd(htim->Instance, Channel, TIM_CCxN_DISABLE);
 3179              		.loc 1 1163 3
 3180 000a 7B68     		ldr	r3, [r7, #4]
 3181 000c 1B68     		ldr	r3, [r3]
 3182 000e 0022     		movs	r2, #0
 3183 0010 3968     		ldr	r1, [r7]
 3184 0012 1846     		mov	r0, r3
 3185 0014 FFF7FEFF 		bl	TIM_CCxNChannelCmd
1164:Drivers/STM32F4xx_HAL_Driver/Src/stm32f4xx_hal_tim_ex.c **** 
1165:Drivers/STM32F4xx_HAL_Driver/Src/stm32f4xx_hal_tim_ex.c ****   /* Disable the Main Output */
1166:Drivers/STM32F4xx_HAL_Driver/Src/stm32f4xx_hal_tim_ex.c ****   __HAL_TIM_MOE_DISABLE(htim);
 3186              		.loc 1 1166 3
 3187 0018 7B68     		ldr	r3, [r7, #4]
 3188 001a 1B68     		ldr	r3, [r3]
 3189 001c 1A6A     		ldr	r2, [r3, #32]
 3190 001e 41F21113 		movw	r3, #4369
 3191 0022 1340     		ands	r3, r3, r2
 3192 0024 002B     		cmp	r3, #0
ARM GAS  C:\Users\DAELT-~1\AppData\Local\Temp\cc2rhEX6.s 			page 77


 3193 0026 0FD1     		bne	.L202
 3194              		.loc 1 1166 3 is_stmt 0 discriminator 1
 3195 0028 7B68     		ldr	r3, [r7, #4]
 3196 002a 1B68     		ldr	r3, [r3]
 3197 002c 1A6A     		ldr	r2, [r3, #32]
 3198 002e 40F24443 		movw	r3, #1092
 3199 0032 1340     		ands	r3, r3, r2
 3200 0034 002B     		cmp	r3, #0
 3201 0036 07D1     		bne	.L202
 3202              		.loc 1 1166 3 discriminator 2
 3203 0038 7B68     		ldr	r3, [r7, #4]
 3204 003a 1B68     		ldr	r3, [r3]
 3205 003c 5A6C     		ldr	r2, [r3, #68]
 3206 003e 7B68     		ldr	r3, [r7, #4]
 3207 0040 1B68     		ldr	r3, [r3]
 3208 0042 22F40042 		bic	r2, r2, #32768
 3209 0046 5A64     		str	r2, [r3, #68]
 3210              	.L202:
1167:Drivers/STM32F4xx_HAL_Driver/Src/stm32f4xx_hal_tim_ex.c **** 
1168:Drivers/STM32F4xx_HAL_Driver/Src/stm32f4xx_hal_tim_ex.c ****   /* Disable the Peripheral */
1169:Drivers/STM32F4xx_HAL_Driver/Src/stm32f4xx_hal_tim_ex.c ****   __HAL_TIM_DISABLE(htim);
 3211              		.loc 1 1169 3 is_stmt 1
 3212 0048 7B68     		ldr	r3, [r7, #4]
 3213 004a 1B68     		ldr	r3, [r3]
 3214 004c 1A6A     		ldr	r2, [r3, #32]
 3215 004e 41F21113 		movw	r3, #4369
 3216 0052 1340     		ands	r3, r3, r2
 3217 0054 002B     		cmp	r3, #0
 3218 0056 0FD1     		bne	.L203
 3219              		.loc 1 1169 3 is_stmt 0 discriminator 1
 3220 0058 7B68     		ldr	r3, [r7, #4]
 3221 005a 1B68     		ldr	r3, [r3]
 3222 005c 1A6A     		ldr	r2, [r3, #32]
 3223 005e 40F24443 		movw	r3, #1092
 3224 0062 1340     		ands	r3, r3, r2
 3225 0064 002B     		cmp	r3, #0
 3226 0066 07D1     		bne	.L203
 3227              		.loc 1 1169 3 discriminator 2
 3228 0068 7B68     		ldr	r3, [r7, #4]
 3229 006a 1B68     		ldr	r3, [r3]
 3230 006c 1A68     		ldr	r2, [r3]
 3231 006e 7B68     		ldr	r3, [r7, #4]
 3232 0070 1B68     		ldr	r3, [r3]
 3233 0072 22F00102 		bic	r2, r2, #1
 3234 0076 1A60     		str	r2, [r3]
 3235              	.L203:
1170:Drivers/STM32F4xx_HAL_Driver/Src/stm32f4xx_hal_tim_ex.c **** 
1171:Drivers/STM32F4xx_HAL_Driver/Src/stm32f4xx_hal_tim_ex.c ****   /* Set the TIM complementary channel state */
1172:Drivers/STM32F4xx_HAL_Driver/Src/stm32f4xx_hal_tim_ex.c ****   TIM_CHANNEL_N_STATE_SET(htim, Channel, HAL_TIM_CHANNEL_STATE_READY);
 3236              		.loc 1 1172 3 is_stmt 1
 3237 0078 3B68     		ldr	r3, [r7]
 3238 007a 002B     		cmp	r3, #0
 3239 007c 04D1     		bne	.L204
 3240              		.loc 1 1172 3 is_stmt 0 discriminator 1
 3241 007e 7B68     		ldr	r3, [r7, #4]
 3242 0080 0122     		movs	r2, #1
 3243 0082 83F84220 		strb	r2, [r3, #66]
ARM GAS  C:\Users\DAELT-~1\AppData\Local\Temp\cc2rhEX6.s 			page 78


 3244 0086 13E0     		b	.L205
 3245              	.L204:
 3246              		.loc 1 1172 3 discriminator 2
 3247 0088 3B68     		ldr	r3, [r7]
 3248 008a 042B     		cmp	r3, #4
 3249 008c 04D1     		bne	.L206
 3250              		.loc 1 1172 3 discriminator 3
 3251 008e 7B68     		ldr	r3, [r7, #4]
 3252 0090 0122     		movs	r2, #1
 3253 0092 83F84320 		strb	r2, [r3, #67]
 3254 0096 0BE0     		b	.L205
 3255              	.L206:
 3256              		.loc 1 1172 3 discriminator 4
 3257 0098 3B68     		ldr	r3, [r7]
 3258 009a 082B     		cmp	r3, #8
 3259 009c 04D1     		bne	.L208
 3260              		.loc 1 1172 3 discriminator 6
 3261 009e 7B68     		ldr	r3, [r7, #4]
 3262 00a0 0122     		movs	r2, #1
 3263 00a2 83F84420 		strb	r2, [r3, #68]
 3264 00a6 03E0     		b	.L205
 3265              	.L208:
 3266              		.loc 1 1172 3 discriminator 7
 3267 00a8 7B68     		ldr	r3, [r7, #4]
 3268 00aa 0122     		movs	r2, #1
 3269 00ac 83F84520 		strb	r2, [r3, #69]
 3270              	.L205:
1173:Drivers/STM32F4xx_HAL_Driver/Src/stm32f4xx_hal_tim_ex.c **** 
1174:Drivers/STM32F4xx_HAL_Driver/Src/stm32f4xx_hal_tim_ex.c ****   /* Return function status */
1175:Drivers/STM32F4xx_HAL_Driver/Src/stm32f4xx_hal_tim_ex.c ****   return HAL_OK;
 3271              		.loc 1 1175 10 is_stmt 1
 3272 00b0 0023     		movs	r3, #0
1176:Drivers/STM32F4xx_HAL_Driver/Src/stm32f4xx_hal_tim_ex.c **** }
 3273              		.loc 1 1176 1
 3274 00b2 1846     		mov	r0, r3
 3275 00b4 0837     		adds	r7, r7, #8
 3276              	.LCFI90:
 3277              		.cfi_def_cfa_offset 8
 3278 00b6 BD46     		mov	sp, r7
 3279              	.LCFI91:
 3280              		.cfi_def_cfa_register 13
 3281              		@ sp needed
 3282 00b8 80BD     		pop	{r7, pc}
 3283              		.cfi_endproc
 3284              	.LFE147:
 3286              		.section	.text.HAL_TIMEx_PWMN_Start_IT,"ax",%progbits
 3287              		.align	1
 3288              		.global	HAL_TIMEx_PWMN_Start_IT
 3289              		.syntax unified
 3290              		.thumb
 3291              		.thumb_func
 3293              	HAL_TIMEx_PWMN_Start_IT:
 3294              	.LFB148:
1177:Drivers/STM32F4xx_HAL_Driver/Src/stm32f4xx_hal_tim_ex.c **** 
1178:Drivers/STM32F4xx_HAL_Driver/Src/stm32f4xx_hal_tim_ex.c **** /**
1179:Drivers/STM32F4xx_HAL_Driver/Src/stm32f4xx_hal_tim_ex.c ****   * @brief  Starts the PWM signal generation in interrupt mode on the
1180:Drivers/STM32F4xx_HAL_Driver/Src/stm32f4xx_hal_tim_ex.c ****   *         complementary output.
ARM GAS  C:\Users\DAELT-~1\AppData\Local\Temp\cc2rhEX6.s 			page 79


1181:Drivers/STM32F4xx_HAL_Driver/Src/stm32f4xx_hal_tim_ex.c ****   * @param  htim TIM handle
1182:Drivers/STM32F4xx_HAL_Driver/Src/stm32f4xx_hal_tim_ex.c ****   * @param  Channel TIM Channel to be disabled
1183:Drivers/STM32F4xx_HAL_Driver/Src/stm32f4xx_hal_tim_ex.c ****   *          This parameter can be one of the following values:
1184:Drivers/STM32F4xx_HAL_Driver/Src/stm32f4xx_hal_tim_ex.c ****   *            @arg TIM_CHANNEL_1: TIM Channel 1 selected
1185:Drivers/STM32F4xx_HAL_Driver/Src/stm32f4xx_hal_tim_ex.c ****   *            @arg TIM_CHANNEL_2: TIM Channel 2 selected
1186:Drivers/STM32F4xx_HAL_Driver/Src/stm32f4xx_hal_tim_ex.c ****   *            @arg TIM_CHANNEL_3: TIM Channel 3 selected
1187:Drivers/STM32F4xx_HAL_Driver/Src/stm32f4xx_hal_tim_ex.c ****   * @retval HAL status
1188:Drivers/STM32F4xx_HAL_Driver/Src/stm32f4xx_hal_tim_ex.c ****   */
1189:Drivers/STM32F4xx_HAL_Driver/Src/stm32f4xx_hal_tim_ex.c **** HAL_StatusTypeDef HAL_TIMEx_PWMN_Start_IT(TIM_HandleTypeDef *htim, uint32_t Channel)
1190:Drivers/STM32F4xx_HAL_Driver/Src/stm32f4xx_hal_tim_ex.c **** {
 3295              		.loc 1 1190 1
 3296              		.cfi_startproc
 3297              		@ args = 0, pretend = 0, frame = 16
 3298              		@ frame_needed = 1, uses_anonymous_args = 0
 3299 0000 80B5     		push	{r7, lr}
 3300              	.LCFI92:
 3301              		.cfi_def_cfa_offset 8
 3302              		.cfi_offset 7, -8
 3303              		.cfi_offset 14, -4
 3304 0002 84B0     		sub	sp, sp, #16
 3305              	.LCFI93:
 3306              		.cfi_def_cfa_offset 24
 3307 0004 00AF     		add	r7, sp, #0
 3308              	.LCFI94:
 3309              		.cfi_def_cfa_register 7
 3310 0006 7860     		str	r0, [r7, #4]
 3311 0008 3960     		str	r1, [r7]
1191:Drivers/STM32F4xx_HAL_Driver/Src/stm32f4xx_hal_tim_ex.c ****   HAL_StatusTypeDef status = HAL_OK;
 3312              		.loc 1 1191 21
 3313 000a 0023     		movs	r3, #0
 3314 000c FB73     		strb	r3, [r7, #15]
1192:Drivers/STM32F4xx_HAL_Driver/Src/stm32f4xx_hal_tim_ex.c ****   uint32_t tmpsmcr;
1193:Drivers/STM32F4xx_HAL_Driver/Src/stm32f4xx_hal_tim_ex.c **** 
1194:Drivers/STM32F4xx_HAL_Driver/Src/stm32f4xx_hal_tim_ex.c ****   /* Check the parameters */
1195:Drivers/STM32F4xx_HAL_Driver/Src/stm32f4xx_hal_tim_ex.c ****   assert_param(IS_TIM_CCXN_INSTANCE(htim->Instance, Channel));
1196:Drivers/STM32F4xx_HAL_Driver/Src/stm32f4xx_hal_tim_ex.c **** 
1197:Drivers/STM32F4xx_HAL_Driver/Src/stm32f4xx_hal_tim_ex.c ****   /* Check the TIM complementary channel state */
1198:Drivers/STM32F4xx_HAL_Driver/Src/stm32f4xx_hal_tim_ex.c ****   if (TIM_CHANNEL_N_STATE_GET(htim, Channel) != HAL_TIM_CHANNEL_STATE_READY)
 3315              		.loc 1 1198 46
 3316 000e 3B68     		ldr	r3, [r7]
 3317 0010 002B     		cmp	r3, #0
 3318 0012 09D1     		bne	.L212
 3319              		.loc 1 1198 7 discriminator 1
 3320 0014 7B68     		ldr	r3, [r7, #4]
 3321 0016 93F84230 		ldrb	r3, [r3, #66]
 3322 001a DBB2     		uxtb	r3, r3
 3323              		.loc 1 1198 46 discriminator 1
 3324 001c 012B     		cmp	r3, #1
 3325 001e 14BF     		ite	ne
 3326 0020 0123     		movne	r3, #1
 3327 0022 0023     		moveq	r3, #0
 3328 0024 DBB2     		uxtb	r3, r3
 3329 0026 22E0     		b	.L213
 3330              	.L212:
 3331              		.loc 1 1198 46 is_stmt 0 discriminator 2
 3332 0028 3B68     		ldr	r3, [r7]
 3333 002a 042B     		cmp	r3, #4
ARM GAS  C:\Users\DAELT-~1\AppData\Local\Temp\cc2rhEX6.s 			page 80


 3334 002c 09D1     		bne	.L214
 3335              		.loc 1 1198 7 is_stmt 1 discriminator 4
 3336 002e 7B68     		ldr	r3, [r7, #4]
 3337 0030 93F84330 		ldrb	r3, [r3, #67]
 3338 0034 DBB2     		uxtb	r3, r3
 3339              		.loc 1 1198 46 discriminator 4
 3340 0036 012B     		cmp	r3, #1
 3341 0038 14BF     		ite	ne
 3342 003a 0123     		movne	r3, #1
 3343 003c 0023     		moveq	r3, #0
 3344 003e DBB2     		uxtb	r3, r3
 3345 0040 15E0     		b	.L213
 3346              	.L214:
 3347              		.loc 1 1198 46 is_stmt 0 discriminator 5
 3348 0042 3B68     		ldr	r3, [r7]
 3349 0044 082B     		cmp	r3, #8
 3350 0046 09D1     		bne	.L216
 3351              		.loc 1 1198 7 is_stmt 1 discriminator 7
 3352 0048 7B68     		ldr	r3, [r7, #4]
 3353 004a 93F84430 		ldrb	r3, [r3, #68]
 3354 004e DBB2     		uxtb	r3, r3
 3355              		.loc 1 1198 46 discriminator 7
 3356 0050 012B     		cmp	r3, #1
 3357 0052 14BF     		ite	ne
 3358 0054 0123     		movne	r3, #1
 3359 0056 0023     		moveq	r3, #0
 3360 0058 DBB2     		uxtb	r3, r3
 3361 005a 08E0     		b	.L213
 3362              	.L216:
 3363              		.loc 1 1198 7 discriminator 8
 3364 005c 7B68     		ldr	r3, [r7, #4]
 3365 005e 93F84530 		ldrb	r3, [r3, #69]
 3366 0062 DBB2     		uxtb	r3, r3
 3367              		.loc 1 1198 46 discriminator 8
 3368 0064 012B     		cmp	r3, #1
 3369 0066 14BF     		ite	ne
 3370 0068 0123     		movne	r3, #1
 3371 006a 0023     		moveq	r3, #0
 3372 006c DBB2     		uxtb	r3, r3
 3373              	.L213:
 3374              		.loc 1 1198 6 discriminator 12
 3375 006e 002B     		cmp	r3, #0
 3376 0070 01D0     		beq	.L218
1199:Drivers/STM32F4xx_HAL_Driver/Src/stm32f4xx_hal_tim_ex.c ****   {
1200:Drivers/STM32F4xx_HAL_Driver/Src/stm32f4xx_hal_tim_ex.c ****     return HAL_ERROR;
 3377              		.loc 1 1200 12
 3378 0072 0123     		movs	r3, #1
 3379 0074 99E0     		b	.L219
 3380              	.L218:
1201:Drivers/STM32F4xx_HAL_Driver/Src/stm32f4xx_hal_tim_ex.c ****   }
1202:Drivers/STM32F4xx_HAL_Driver/Src/stm32f4xx_hal_tim_ex.c **** 
1203:Drivers/STM32F4xx_HAL_Driver/Src/stm32f4xx_hal_tim_ex.c ****   /* Set the TIM complementary channel state */
1204:Drivers/STM32F4xx_HAL_Driver/Src/stm32f4xx_hal_tim_ex.c ****   TIM_CHANNEL_N_STATE_SET(htim, Channel, HAL_TIM_CHANNEL_STATE_BUSY);
 3381              		.loc 1 1204 3
 3382 0076 3B68     		ldr	r3, [r7]
 3383 0078 002B     		cmp	r3, #0
 3384 007a 04D1     		bne	.L220
ARM GAS  C:\Users\DAELT-~1\AppData\Local\Temp\cc2rhEX6.s 			page 81


 3385              		.loc 1 1204 3 is_stmt 0 discriminator 1
 3386 007c 7B68     		ldr	r3, [r7, #4]
 3387 007e 0222     		movs	r2, #2
 3388 0080 83F84220 		strb	r2, [r3, #66]
 3389 0084 13E0     		b	.L221
 3390              	.L220:
 3391              		.loc 1 1204 3 discriminator 2
 3392 0086 3B68     		ldr	r3, [r7]
 3393 0088 042B     		cmp	r3, #4
 3394 008a 04D1     		bne	.L222
 3395              		.loc 1 1204 3 discriminator 3
 3396 008c 7B68     		ldr	r3, [r7, #4]
 3397 008e 0222     		movs	r2, #2
 3398 0090 83F84320 		strb	r2, [r3, #67]
 3399 0094 0BE0     		b	.L221
 3400              	.L222:
 3401              		.loc 1 1204 3 discriminator 4
 3402 0096 3B68     		ldr	r3, [r7]
 3403 0098 082B     		cmp	r3, #8
 3404 009a 04D1     		bne	.L224
 3405              		.loc 1 1204 3 discriminator 6
 3406 009c 7B68     		ldr	r3, [r7, #4]
 3407 009e 0222     		movs	r2, #2
 3408 00a0 83F84420 		strb	r2, [r3, #68]
 3409 00a4 03E0     		b	.L221
 3410              	.L224:
 3411              		.loc 1 1204 3 discriminator 7
 3412 00a6 7B68     		ldr	r3, [r7, #4]
 3413 00a8 0222     		movs	r2, #2
 3414 00aa 83F84520 		strb	r2, [r3, #69]
 3415              	.L221:
1205:Drivers/STM32F4xx_HAL_Driver/Src/stm32f4xx_hal_tim_ex.c **** 
1206:Drivers/STM32F4xx_HAL_Driver/Src/stm32f4xx_hal_tim_ex.c ****   switch (Channel)
 3416              		.loc 1 1206 3 is_stmt 1
 3417 00ae 3B68     		ldr	r3, [r7]
 3418 00b0 082B     		cmp	r3, #8
 3419 00b2 1BD0     		beq	.L226
 3420 00b4 3B68     		ldr	r3, [r7]
 3421 00b6 082B     		cmp	r3, #8
 3422 00b8 21D8     		bhi	.L227
 3423 00ba 3B68     		ldr	r3, [r7]
 3424 00bc 002B     		cmp	r3, #0
 3425 00be 03D0     		beq	.L228
 3426 00c0 3B68     		ldr	r3, [r7]
 3427 00c2 042B     		cmp	r3, #4
 3428 00c4 09D0     		beq	.L229
 3429 00c6 1AE0     		b	.L227
 3430              	.L228:
1207:Drivers/STM32F4xx_HAL_Driver/Src/stm32f4xx_hal_tim_ex.c ****   {
1208:Drivers/STM32F4xx_HAL_Driver/Src/stm32f4xx_hal_tim_ex.c ****     case TIM_CHANNEL_1:
1209:Drivers/STM32F4xx_HAL_Driver/Src/stm32f4xx_hal_tim_ex.c ****     {
1210:Drivers/STM32F4xx_HAL_Driver/Src/stm32f4xx_hal_tim_ex.c ****       /* Enable the TIM Capture/Compare 1 interrupt */
1211:Drivers/STM32F4xx_HAL_Driver/Src/stm32f4xx_hal_tim_ex.c ****       __HAL_TIM_ENABLE_IT(htim, TIM_IT_CC1);
 3431              		.loc 1 1211 7
 3432 00c8 7B68     		ldr	r3, [r7, #4]
 3433 00ca 1B68     		ldr	r3, [r3]
 3434 00cc DA68     		ldr	r2, [r3, #12]
ARM GAS  C:\Users\DAELT-~1\AppData\Local\Temp\cc2rhEX6.s 			page 82


 3435 00ce 7B68     		ldr	r3, [r7, #4]
 3436 00d0 1B68     		ldr	r3, [r3]
 3437 00d2 42F00202 		orr	r2, r2, #2
 3438 00d6 DA60     		str	r2, [r3, #12]
1212:Drivers/STM32F4xx_HAL_Driver/Src/stm32f4xx_hal_tim_ex.c ****       break;
 3439              		.loc 1 1212 7
 3440 00d8 14E0     		b	.L230
 3441              	.L229:
1213:Drivers/STM32F4xx_HAL_Driver/Src/stm32f4xx_hal_tim_ex.c ****     }
1214:Drivers/STM32F4xx_HAL_Driver/Src/stm32f4xx_hal_tim_ex.c **** 
1215:Drivers/STM32F4xx_HAL_Driver/Src/stm32f4xx_hal_tim_ex.c ****     case TIM_CHANNEL_2:
1216:Drivers/STM32F4xx_HAL_Driver/Src/stm32f4xx_hal_tim_ex.c ****     {
1217:Drivers/STM32F4xx_HAL_Driver/Src/stm32f4xx_hal_tim_ex.c ****       /* Enable the TIM Capture/Compare 2 interrupt */
1218:Drivers/STM32F4xx_HAL_Driver/Src/stm32f4xx_hal_tim_ex.c ****       __HAL_TIM_ENABLE_IT(htim, TIM_IT_CC2);
 3442              		.loc 1 1218 7
 3443 00da 7B68     		ldr	r3, [r7, #4]
 3444 00dc 1B68     		ldr	r3, [r3]
 3445 00de DA68     		ldr	r2, [r3, #12]
 3446 00e0 7B68     		ldr	r3, [r7, #4]
 3447 00e2 1B68     		ldr	r3, [r3]
 3448 00e4 42F00402 		orr	r2, r2, #4
 3449 00e8 DA60     		str	r2, [r3, #12]
1219:Drivers/STM32F4xx_HAL_Driver/Src/stm32f4xx_hal_tim_ex.c ****       break;
 3450              		.loc 1 1219 7
 3451 00ea 0BE0     		b	.L230
 3452              	.L226:
1220:Drivers/STM32F4xx_HAL_Driver/Src/stm32f4xx_hal_tim_ex.c ****     }
1221:Drivers/STM32F4xx_HAL_Driver/Src/stm32f4xx_hal_tim_ex.c **** 
1222:Drivers/STM32F4xx_HAL_Driver/Src/stm32f4xx_hal_tim_ex.c ****     case TIM_CHANNEL_3:
1223:Drivers/STM32F4xx_HAL_Driver/Src/stm32f4xx_hal_tim_ex.c ****     {
1224:Drivers/STM32F4xx_HAL_Driver/Src/stm32f4xx_hal_tim_ex.c ****       /* Enable the TIM Capture/Compare 3 interrupt */
1225:Drivers/STM32F4xx_HAL_Driver/Src/stm32f4xx_hal_tim_ex.c ****       __HAL_TIM_ENABLE_IT(htim, TIM_IT_CC3);
 3453              		.loc 1 1225 7
 3454 00ec 7B68     		ldr	r3, [r7, #4]
 3455 00ee 1B68     		ldr	r3, [r3]
 3456 00f0 DA68     		ldr	r2, [r3, #12]
 3457 00f2 7B68     		ldr	r3, [r7, #4]
 3458 00f4 1B68     		ldr	r3, [r3]
 3459 00f6 42F00802 		orr	r2, r2, #8
 3460 00fa DA60     		str	r2, [r3, #12]
1226:Drivers/STM32F4xx_HAL_Driver/Src/stm32f4xx_hal_tim_ex.c ****       break;
 3461              		.loc 1 1226 7
 3462 00fc 02E0     		b	.L230
 3463              	.L227:
1227:Drivers/STM32F4xx_HAL_Driver/Src/stm32f4xx_hal_tim_ex.c ****     }
1228:Drivers/STM32F4xx_HAL_Driver/Src/stm32f4xx_hal_tim_ex.c **** 
1229:Drivers/STM32F4xx_HAL_Driver/Src/stm32f4xx_hal_tim_ex.c ****     default:
1230:Drivers/STM32F4xx_HAL_Driver/Src/stm32f4xx_hal_tim_ex.c ****       status = HAL_ERROR;
 3464              		.loc 1 1230 14
 3465 00fe 0123     		movs	r3, #1
 3466 0100 FB73     		strb	r3, [r7, #15]
1231:Drivers/STM32F4xx_HAL_Driver/Src/stm32f4xx_hal_tim_ex.c ****       break;
 3467              		.loc 1 1231 7
 3468 0102 00BF     		nop
 3469              	.L230:
1232:Drivers/STM32F4xx_HAL_Driver/Src/stm32f4xx_hal_tim_ex.c ****   }
1233:Drivers/STM32F4xx_HAL_Driver/Src/stm32f4xx_hal_tim_ex.c **** 
ARM GAS  C:\Users\DAELT-~1\AppData\Local\Temp\cc2rhEX6.s 			page 83


1234:Drivers/STM32F4xx_HAL_Driver/Src/stm32f4xx_hal_tim_ex.c ****   if (status == HAL_OK)
 3470              		.loc 1 1234 6
 3471 0104 FB7B     		ldrb	r3, [r7, #15]	@ zero_extendqisi2
 3472 0106 002B     		cmp	r3, #0
 3473 0108 4ED1     		bne	.L231
1235:Drivers/STM32F4xx_HAL_Driver/Src/stm32f4xx_hal_tim_ex.c ****   {
1236:Drivers/STM32F4xx_HAL_Driver/Src/stm32f4xx_hal_tim_ex.c ****     /* Enable the TIM Break interrupt */
1237:Drivers/STM32F4xx_HAL_Driver/Src/stm32f4xx_hal_tim_ex.c ****     __HAL_TIM_ENABLE_IT(htim, TIM_IT_BREAK);
 3474              		.loc 1 1237 5
 3475 010a 7B68     		ldr	r3, [r7, #4]
 3476 010c 1B68     		ldr	r3, [r3]
 3477 010e DA68     		ldr	r2, [r3, #12]
 3478 0110 7B68     		ldr	r3, [r7, #4]
 3479 0112 1B68     		ldr	r3, [r3]
 3480 0114 42F08002 		orr	r2, r2, #128
 3481 0118 DA60     		str	r2, [r3, #12]
1238:Drivers/STM32F4xx_HAL_Driver/Src/stm32f4xx_hal_tim_ex.c **** 
1239:Drivers/STM32F4xx_HAL_Driver/Src/stm32f4xx_hal_tim_ex.c ****     /* Enable the complementary PWM output  */
1240:Drivers/STM32F4xx_HAL_Driver/Src/stm32f4xx_hal_tim_ex.c ****     TIM_CCxNChannelCmd(htim->Instance, Channel, TIM_CCxN_ENABLE);
 3482              		.loc 1 1240 5
 3483 011a 7B68     		ldr	r3, [r7, #4]
 3484 011c 1B68     		ldr	r3, [r3]
 3485 011e 0422     		movs	r2, #4
 3486 0120 3968     		ldr	r1, [r7]
 3487 0122 1846     		mov	r0, r3
 3488 0124 FFF7FEFF 		bl	TIM_CCxNChannelCmd
1241:Drivers/STM32F4xx_HAL_Driver/Src/stm32f4xx_hal_tim_ex.c **** 
1242:Drivers/STM32F4xx_HAL_Driver/Src/stm32f4xx_hal_tim_ex.c ****     /* Enable the Main Output */
1243:Drivers/STM32F4xx_HAL_Driver/Src/stm32f4xx_hal_tim_ex.c ****     __HAL_TIM_MOE_ENABLE(htim);
 3489              		.loc 1 1243 5
 3490 0128 7B68     		ldr	r3, [r7, #4]
 3491 012a 1B68     		ldr	r3, [r3]
 3492 012c 5A6C     		ldr	r2, [r3, #68]
 3493 012e 7B68     		ldr	r3, [r7, #4]
 3494 0130 1B68     		ldr	r3, [r3]
 3495 0132 42F40042 		orr	r2, r2, #32768
 3496 0136 5A64     		str	r2, [r3, #68]
1244:Drivers/STM32F4xx_HAL_Driver/Src/stm32f4xx_hal_tim_ex.c **** 
1245:Drivers/STM32F4xx_HAL_Driver/Src/stm32f4xx_hal_tim_ex.c ****     /* Enable the Peripheral, except in trigger mode where enable is automatically done with trigge
1246:Drivers/STM32F4xx_HAL_Driver/Src/stm32f4xx_hal_tim_ex.c ****     if (IS_TIM_SLAVE_INSTANCE(htim->Instance))
 3497              		.loc 1 1246 9
 3498 0138 7B68     		ldr	r3, [r7, #4]
 3499 013a 1B68     		ldr	r3, [r3]
 3500              		.loc 1 1246 8
 3501 013c 1D4A     		ldr	r2, .L235
 3502 013e 9342     		cmp	r3, r2
 3503 0140 18D0     		beq	.L232
 3504              		.loc 1 1246 9 discriminator 1
 3505 0142 7B68     		ldr	r3, [r7, #4]
 3506 0144 1B68     		ldr	r3, [r3]
 3507 0146 B3F1804F 		cmp	r3, #1073741824
 3508 014a 13D0     		beq	.L232
 3509              		.loc 1 1246 9 is_stmt 0 discriminator 2
 3510 014c 7B68     		ldr	r3, [r7, #4]
 3511 014e 1B68     		ldr	r3, [r3]
 3512 0150 194A     		ldr	r2, .L235+4
 3513 0152 9342     		cmp	r3, r2
ARM GAS  C:\Users\DAELT-~1\AppData\Local\Temp\cc2rhEX6.s 			page 84


 3514 0154 0ED0     		beq	.L232
 3515              		.loc 1 1246 9 discriminator 3
 3516 0156 7B68     		ldr	r3, [r7, #4]
 3517 0158 1B68     		ldr	r3, [r3]
 3518 015a 184A     		ldr	r2, .L235+8
 3519 015c 9342     		cmp	r3, r2
 3520 015e 09D0     		beq	.L232
 3521              		.loc 1 1246 9 discriminator 4
 3522 0160 7B68     		ldr	r3, [r7, #4]
 3523 0162 1B68     		ldr	r3, [r3]
 3524 0164 164A     		ldr	r2, .L235+12
 3525 0166 9342     		cmp	r3, r2
 3526 0168 04D0     		beq	.L232
 3527              		.loc 1 1246 9 discriminator 5
 3528 016a 7B68     		ldr	r3, [r7, #4]
 3529 016c 1B68     		ldr	r3, [r3]
 3530 016e 154A     		ldr	r2, .L235+16
 3531 0170 9342     		cmp	r3, r2
 3532 0172 11D1     		bne	.L233
 3533              	.L232:
1247:Drivers/STM32F4xx_HAL_Driver/Src/stm32f4xx_hal_tim_ex.c ****     {
1248:Drivers/STM32F4xx_HAL_Driver/Src/stm32f4xx_hal_tim_ex.c ****       tmpsmcr = htim->Instance->SMCR & TIM_SMCR_SMS;
 3534              		.loc 1 1248 21 is_stmt 1
 3535 0174 7B68     		ldr	r3, [r7, #4]
 3536 0176 1B68     		ldr	r3, [r3]
 3537              		.loc 1 1248 31
 3538 0178 9B68     		ldr	r3, [r3, #8]
 3539              		.loc 1 1248 15
 3540 017a 03F00703 		and	r3, r3, #7
 3541 017e BB60     		str	r3, [r7, #8]
1249:Drivers/STM32F4xx_HAL_Driver/Src/stm32f4xx_hal_tim_ex.c ****       if (!IS_TIM_SLAVEMODE_TRIGGER_ENABLED(tmpsmcr))
 3542              		.loc 1 1249 10
 3543 0180 BB68     		ldr	r3, [r7, #8]
 3544 0182 062B     		cmp	r3, #6
 3545 0184 10D0     		beq	.L231
1250:Drivers/STM32F4xx_HAL_Driver/Src/stm32f4xx_hal_tim_ex.c ****       {
1251:Drivers/STM32F4xx_HAL_Driver/Src/stm32f4xx_hal_tim_ex.c ****         __HAL_TIM_ENABLE(htim);
 3546              		.loc 1 1251 9
 3547 0186 7B68     		ldr	r3, [r7, #4]
 3548 0188 1B68     		ldr	r3, [r3]
 3549 018a 1A68     		ldr	r2, [r3]
 3550 018c 7B68     		ldr	r3, [r7, #4]
 3551 018e 1B68     		ldr	r3, [r3]
 3552 0190 42F00102 		orr	r2, r2, #1
 3553 0194 1A60     		str	r2, [r3]
1249:Drivers/STM32F4xx_HAL_Driver/Src/stm32f4xx_hal_tim_ex.c ****       if (!IS_TIM_SLAVEMODE_TRIGGER_ENABLED(tmpsmcr))
 3554              		.loc 1 1249 10
 3555 0196 07E0     		b	.L231
 3556              	.L233:
1252:Drivers/STM32F4xx_HAL_Driver/Src/stm32f4xx_hal_tim_ex.c ****       }
1253:Drivers/STM32F4xx_HAL_Driver/Src/stm32f4xx_hal_tim_ex.c ****     }
1254:Drivers/STM32F4xx_HAL_Driver/Src/stm32f4xx_hal_tim_ex.c ****     else
1255:Drivers/STM32F4xx_HAL_Driver/Src/stm32f4xx_hal_tim_ex.c ****     {
1256:Drivers/STM32F4xx_HAL_Driver/Src/stm32f4xx_hal_tim_ex.c ****       __HAL_TIM_ENABLE(htim);
 3557              		.loc 1 1256 7
 3558 0198 7B68     		ldr	r3, [r7, #4]
 3559 019a 1B68     		ldr	r3, [r3]
ARM GAS  C:\Users\DAELT-~1\AppData\Local\Temp\cc2rhEX6.s 			page 85


 3560 019c 1A68     		ldr	r2, [r3]
 3561 019e 7B68     		ldr	r3, [r7, #4]
 3562 01a0 1B68     		ldr	r3, [r3]
 3563 01a2 42F00102 		orr	r2, r2, #1
 3564 01a6 1A60     		str	r2, [r3]
 3565              	.L231:
1257:Drivers/STM32F4xx_HAL_Driver/Src/stm32f4xx_hal_tim_ex.c ****     }
1258:Drivers/STM32F4xx_HAL_Driver/Src/stm32f4xx_hal_tim_ex.c ****   }
1259:Drivers/STM32F4xx_HAL_Driver/Src/stm32f4xx_hal_tim_ex.c **** 
1260:Drivers/STM32F4xx_HAL_Driver/Src/stm32f4xx_hal_tim_ex.c ****   /* Return function status */
1261:Drivers/STM32F4xx_HAL_Driver/Src/stm32f4xx_hal_tim_ex.c ****   return status;
 3566              		.loc 1 1261 10
 3567 01a8 FB7B     		ldrb	r3, [r7, #15]	@ zero_extendqisi2
 3568              	.L219:
1262:Drivers/STM32F4xx_HAL_Driver/Src/stm32f4xx_hal_tim_ex.c **** }
 3569              		.loc 1 1262 1
 3570 01aa 1846     		mov	r0, r3
 3571 01ac 1037     		adds	r7, r7, #16
 3572              	.LCFI95:
 3573              		.cfi_def_cfa_offset 8
 3574 01ae BD46     		mov	sp, r7
 3575              	.LCFI96:
 3576              		.cfi_def_cfa_register 13
 3577              		@ sp needed
 3578 01b0 80BD     		pop	{r7, pc}
 3579              	.L236:
 3580 01b2 00BF     		.align	2
 3581              	.L235:
 3582 01b4 00000140 		.word	1073807360
 3583 01b8 00040040 		.word	1073742848
 3584 01bc 00080040 		.word	1073743872
 3585 01c0 000C0040 		.word	1073744896
 3586 01c4 00400140 		.word	1073823744
 3587              		.cfi_endproc
 3588              	.LFE148:
 3590              		.section	.text.HAL_TIMEx_PWMN_Stop_IT,"ax",%progbits
 3591              		.align	1
 3592              		.global	HAL_TIMEx_PWMN_Stop_IT
 3593              		.syntax unified
 3594              		.thumb
 3595              		.thumb_func
 3597              	HAL_TIMEx_PWMN_Stop_IT:
 3598              	.LFB149:
1263:Drivers/STM32F4xx_HAL_Driver/Src/stm32f4xx_hal_tim_ex.c **** 
1264:Drivers/STM32F4xx_HAL_Driver/Src/stm32f4xx_hal_tim_ex.c **** /**
1265:Drivers/STM32F4xx_HAL_Driver/Src/stm32f4xx_hal_tim_ex.c ****   * @brief  Stops the PWM signal generation in interrupt mode on the
1266:Drivers/STM32F4xx_HAL_Driver/Src/stm32f4xx_hal_tim_ex.c ****   *         complementary output.
1267:Drivers/STM32F4xx_HAL_Driver/Src/stm32f4xx_hal_tim_ex.c ****   * @param  htim TIM handle
1268:Drivers/STM32F4xx_HAL_Driver/Src/stm32f4xx_hal_tim_ex.c ****   * @param  Channel TIM Channel to be disabled
1269:Drivers/STM32F4xx_HAL_Driver/Src/stm32f4xx_hal_tim_ex.c ****   *          This parameter can be one of the following values:
1270:Drivers/STM32F4xx_HAL_Driver/Src/stm32f4xx_hal_tim_ex.c ****   *            @arg TIM_CHANNEL_1: TIM Channel 1 selected
1271:Drivers/STM32F4xx_HAL_Driver/Src/stm32f4xx_hal_tim_ex.c ****   *            @arg TIM_CHANNEL_2: TIM Channel 2 selected
1272:Drivers/STM32F4xx_HAL_Driver/Src/stm32f4xx_hal_tim_ex.c ****   *            @arg TIM_CHANNEL_3: TIM Channel 3 selected
1273:Drivers/STM32F4xx_HAL_Driver/Src/stm32f4xx_hal_tim_ex.c ****   * @retval HAL status
1274:Drivers/STM32F4xx_HAL_Driver/Src/stm32f4xx_hal_tim_ex.c ****   */
1275:Drivers/STM32F4xx_HAL_Driver/Src/stm32f4xx_hal_tim_ex.c **** HAL_StatusTypeDef HAL_TIMEx_PWMN_Stop_IT(TIM_HandleTypeDef *htim, uint32_t Channel)
1276:Drivers/STM32F4xx_HAL_Driver/Src/stm32f4xx_hal_tim_ex.c **** {
ARM GAS  C:\Users\DAELT-~1\AppData\Local\Temp\cc2rhEX6.s 			page 86


 3599              		.loc 1 1276 1
 3600              		.cfi_startproc
 3601              		@ args = 0, pretend = 0, frame = 16
 3602              		@ frame_needed = 1, uses_anonymous_args = 0
 3603 0000 80B5     		push	{r7, lr}
 3604              	.LCFI97:
 3605              		.cfi_def_cfa_offset 8
 3606              		.cfi_offset 7, -8
 3607              		.cfi_offset 14, -4
 3608 0002 84B0     		sub	sp, sp, #16
 3609              	.LCFI98:
 3610              		.cfi_def_cfa_offset 24
 3611 0004 00AF     		add	r7, sp, #0
 3612              	.LCFI99:
 3613              		.cfi_def_cfa_register 7
 3614 0006 7860     		str	r0, [r7, #4]
 3615 0008 3960     		str	r1, [r7]
1277:Drivers/STM32F4xx_HAL_Driver/Src/stm32f4xx_hal_tim_ex.c ****   HAL_StatusTypeDef status = HAL_OK;
 3616              		.loc 1 1277 21
 3617 000a 0023     		movs	r3, #0
 3618 000c FB73     		strb	r3, [r7, #15]
1278:Drivers/STM32F4xx_HAL_Driver/Src/stm32f4xx_hal_tim_ex.c ****   uint32_t tmpccer;
1279:Drivers/STM32F4xx_HAL_Driver/Src/stm32f4xx_hal_tim_ex.c **** 
1280:Drivers/STM32F4xx_HAL_Driver/Src/stm32f4xx_hal_tim_ex.c ****   /* Check the parameters */
1281:Drivers/STM32F4xx_HAL_Driver/Src/stm32f4xx_hal_tim_ex.c ****   assert_param(IS_TIM_CCXN_INSTANCE(htim->Instance, Channel));
1282:Drivers/STM32F4xx_HAL_Driver/Src/stm32f4xx_hal_tim_ex.c **** 
1283:Drivers/STM32F4xx_HAL_Driver/Src/stm32f4xx_hal_tim_ex.c ****   switch (Channel)
 3619              		.loc 1 1283 3
 3620 000e 3B68     		ldr	r3, [r7]
 3621 0010 082B     		cmp	r3, #8
 3622 0012 1BD0     		beq	.L238
 3623 0014 3B68     		ldr	r3, [r7]
 3624 0016 082B     		cmp	r3, #8
 3625 0018 21D8     		bhi	.L239
 3626 001a 3B68     		ldr	r3, [r7]
 3627 001c 002B     		cmp	r3, #0
 3628 001e 03D0     		beq	.L240
 3629 0020 3B68     		ldr	r3, [r7]
 3630 0022 042B     		cmp	r3, #4
 3631 0024 09D0     		beq	.L241
 3632 0026 1AE0     		b	.L239
 3633              	.L240:
1284:Drivers/STM32F4xx_HAL_Driver/Src/stm32f4xx_hal_tim_ex.c ****   {
1285:Drivers/STM32F4xx_HAL_Driver/Src/stm32f4xx_hal_tim_ex.c ****     case TIM_CHANNEL_1:
1286:Drivers/STM32F4xx_HAL_Driver/Src/stm32f4xx_hal_tim_ex.c ****     {
1287:Drivers/STM32F4xx_HAL_Driver/Src/stm32f4xx_hal_tim_ex.c ****       /* Disable the TIM Capture/Compare 1 interrupt */
1288:Drivers/STM32F4xx_HAL_Driver/Src/stm32f4xx_hal_tim_ex.c ****       __HAL_TIM_DISABLE_IT(htim, TIM_IT_CC1);
 3634              		.loc 1 1288 7
 3635 0028 7B68     		ldr	r3, [r7, #4]
 3636 002a 1B68     		ldr	r3, [r3]
 3637 002c DA68     		ldr	r2, [r3, #12]
 3638 002e 7B68     		ldr	r3, [r7, #4]
 3639 0030 1B68     		ldr	r3, [r3]
 3640 0032 22F00202 		bic	r2, r2, #2
 3641 0036 DA60     		str	r2, [r3, #12]
1289:Drivers/STM32F4xx_HAL_Driver/Src/stm32f4xx_hal_tim_ex.c ****       break;
 3642              		.loc 1 1289 7
ARM GAS  C:\Users\DAELT-~1\AppData\Local\Temp\cc2rhEX6.s 			page 87


 3643 0038 14E0     		b	.L242
 3644              	.L241:
1290:Drivers/STM32F4xx_HAL_Driver/Src/stm32f4xx_hal_tim_ex.c ****     }
1291:Drivers/STM32F4xx_HAL_Driver/Src/stm32f4xx_hal_tim_ex.c **** 
1292:Drivers/STM32F4xx_HAL_Driver/Src/stm32f4xx_hal_tim_ex.c ****     case TIM_CHANNEL_2:
1293:Drivers/STM32F4xx_HAL_Driver/Src/stm32f4xx_hal_tim_ex.c ****     {
1294:Drivers/STM32F4xx_HAL_Driver/Src/stm32f4xx_hal_tim_ex.c ****       /* Disable the TIM Capture/Compare 2 interrupt */
1295:Drivers/STM32F4xx_HAL_Driver/Src/stm32f4xx_hal_tim_ex.c ****       __HAL_TIM_DISABLE_IT(htim, TIM_IT_CC2);
 3645              		.loc 1 1295 7
 3646 003a 7B68     		ldr	r3, [r7, #4]
 3647 003c 1B68     		ldr	r3, [r3]
 3648 003e DA68     		ldr	r2, [r3, #12]
 3649 0040 7B68     		ldr	r3, [r7, #4]
 3650 0042 1B68     		ldr	r3, [r3]
 3651 0044 22F00402 		bic	r2, r2, #4
 3652 0048 DA60     		str	r2, [r3, #12]
1296:Drivers/STM32F4xx_HAL_Driver/Src/stm32f4xx_hal_tim_ex.c ****       break;
 3653              		.loc 1 1296 7
 3654 004a 0BE0     		b	.L242
 3655              	.L238:
1297:Drivers/STM32F4xx_HAL_Driver/Src/stm32f4xx_hal_tim_ex.c ****     }
1298:Drivers/STM32F4xx_HAL_Driver/Src/stm32f4xx_hal_tim_ex.c **** 
1299:Drivers/STM32F4xx_HAL_Driver/Src/stm32f4xx_hal_tim_ex.c ****     case TIM_CHANNEL_3:
1300:Drivers/STM32F4xx_HAL_Driver/Src/stm32f4xx_hal_tim_ex.c ****     {
1301:Drivers/STM32F4xx_HAL_Driver/Src/stm32f4xx_hal_tim_ex.c ****       /* Disable the TIM Capture/Compare 3 interrupt */
1302:Drivers/STM32F4xx_HAL_Driver/Src/stm32f4xx_hal_tim_ex.c ****       __HAL_TIM_DISABLE_IT(htim, TIM_IT_CC3);
 3656              		.loc 1 1302 7
 3657 004c 7B68     		ldr	r3, [r7, #4]
 3658 004e 1B68     		ldr	r3, [r3]
 3659 0050 DA68     		ldr	r2, [r3, #12]
 3660 0052 7B68     		ldr	r3, [r7, #4]
 3661 0054 1B68     		ldr	r3, [r3]
 3662 0056 22F00802 		bic	r2, r2, #8
 3663 005a DA60     		str	r2, [r3, #12]
1303:Drivers/STM32F4xx_HAL_Driver/Src/stm32f4xx_hal_tim_ex.c ****       break;
 3664              		.loc 1 1303 7
 3665 005c 02E0     		b	.L242
 3666              	.L239:
1304:Drivers/STM32F4xx_HAL_Driver/Src/stm32f4xx_hal_tim_ex.c ****     }
1305:Drivers/STM32F4xx_HAL_Driver/Src/stm32f4xx_hal_tim_ex.c **** 
1306:Drivers/STM32F4xx_HAL_Driver/Src/stm32f4xx_hal_tim_ex.c ****     default:
1307:Drivers/STM32F4xx_HAL_Driver/Src/stm32f4xx_hal_tim_ex.c ****       status = HAL_ERROR;
 3667              		.loc 1 1307 14
 3668 005e 0123     		movs	r3, #1
 3669 0060 FB73     		strb	r3, [r7, #15]
1308:Drivers/STM32F4xx_HAL_Driver/Src/stm32f4xx_hal_tim_ex.c ****       break;
 3670              		.loc 1 1308 7
 3671 0062 00BF     		nop
 3672              	.L242:
1309:Drivers/STM32F4xx_HAL_Driver/Src/stm32f4xx_hal_tim_ex.c ****   }
1310:Drivers/STM32F4xx_HAL_Driver/Src/stm32f4xx_hal_tim_ex.c **** 
1311:Drivers/STM32F4xx_HAL_Driver/Src/stm32f4xx_hal_tim_ex.c ****   if (status == HAL_OK)
 3673              		.loc 1 1311 6
 3674 0064 FB7B     		ldrb	r3, [r7, #15]	@ zero_extendqisi2
 3675 0066 002B     		cmp	r3, #0
 3676 0068 64D1     		bne	.L243
1312:Drivers/STM32F4xx_HAL_Driver/Src/stm32f4xx_hal_tim_ex.c ****   {
ARM GAS  C:\Users\DAELT-~1\AppData\Local\Temp\cc2rhEX6.s 			page 88


1313:Drivers/STM32F4xx_HAL_Driver/Src/stm32f4xx_hal_tim_ex.c ****     /* Disable the complementary PWM output  */
1314:Drivers/STM32F4xx_HAL_Driver/Src/stm32f4xx_hal_tim_ex.c ****     TIM_CCxNChannelCmd(htim->Instance, Channel, TIM_CCxN_DISABLE);
 3677              		.loc 1 1314 5
 3678 006a 7B68     		ldr	r3, [r7, #4]
 3679 006c 1B68     		ldr	r3, [r3]
 3680 006e 0022     		movs	r2, #0
 3681 0070 3968     		ldr	r1, [r7]
 3682 0072 1846     		mov	r0, r3
 3683 0074 FFF7FEFF 		bl	TIM_CCxNChannelCmd
1315:Drivers/STM32F4xx_HAL_Driver/Src/stm32f4xx_hal_tim_ex.c **** 
1316:Drivers/STM32F4xx_HAL_Driver/Src/stm32f4xx_hal_tim_ex.c ****     /* Disable the TIM Break interrupt (only if no more channel is active) */
1317:Drivers/STM32F4xx_HAL_Driver/Src/stm32f4xx_hal_tim_ex.c ****     tmpccer = htim->Instance->CCER;
 3684              		.loc 1 1317 19
 3685 0078 7B68     		ldr	r3, [r7, #4]
 3686 007a 1B68     		ldr	r3, [r3]
 3687              		.loc 1 1317 13
 3688 007c 1B6A     		ldr	r3, [r3, #32]
 3689 007e BB60     		str	r3, [r7, #8]
1318:Drivers/STM32F4xx_HAL_Driver/Src/stm32f4xx_hal_tim_ex.c ****     if ((tmpccer & (TIM_CCER_CC1NE | TIM_CCER_CC2NE | TIM_CCER_CC3NE)) == (uint32_t)RESET)
 3690              		.loc 1 1318 18
 3691 0080 BA68     		ldr	r2, [r7, #8]
 3692 0082 40F24443 		movw	r3, #1092
 3693 0086 1340     		ands	r3, r3, r2
 3694              		.loc 1 1318 8
 3695 0088 002B     		cmp	r3, #0
 3696 008a 07D1     		bne	.L244
1319:Drivers/STM32F4xx_HAL_Driver/Src/stm32f4xx_hal_tim_ex.c ****     {
1320:Drivers/STM32F4xx_HAL_Driver/Src/stm32f4xx_hal_tim_ex.c ****       __HAL_TIM_DISABLE_IT(htim, TIM_IT_BREAK);
 3697              		.loc 1 1320 7
 3698 008c 7B68     		ldr	r3, [r7, #4]
 3699 008e 1B68     		ldr	r3, [r3]
 3700 0090 DA68     		ldr	r2, [r3, #12]
 3701 0092 7B68     		ldr	r3, [r7, #4]
 3702 0094 1B68     		ldr	r3, [r3]
 3703 0096 22F08002 		bic	r2, r2, #128
 3704 009a DA60     		str	r2, [r3, #12]
 3705              	.L244:
1321:Drivers/STM32F4xx_HAL_Driver/Src/stm32f4xx_hal_tim_ex.c ****     }
1322:Drivers/STM32F4xx_HAL_Driver/Src/stm32f4xx_hal_tim_ex.c **** 
1323:Drivers/STM32F4xx_HAL_Driver/Src/stm32f4xx_hal_tim_ex.c ****     /* Disable the Main Output */
1324:Drivers/STM32F4xx_HAL_Driver/Src/stm32f4xx_hal_tim_ex.c ****     __HAL_TIM_MOE_DISABLE(htim);
 3706              		.loc 1 1324 5
 3707 009c 7B68     		ldr	r3, [r7, #4]
 3708 009e 1B68     		ldr	r3, [r3]
 3709 00a0 1A6A     		ldr	r2, [r3, #32]
 3710 00a2 41F21113 		movw	r3, #4369
 3711 00a6 1340     		ands	r3, r3, r2
 3712 00a8 002B     		cmp	r3, #0
 3713 00aa 0FD1     		bne	.L245
 3714              		.loc 1 1324 5 is_stmt 0 discriminator 1
 3715 00ac 7B68     		ldr	r3, [r7, #4]
 3716 00ae 1B68     		ldr	r3, [r3]
 3717 00b0 1A6A     		ldr	r2, [r3, #32]
 3718 00b2 40F24443 		movw	r3, #1092
 3719 00b6 1340     		ands	r3, r3, r2
 3720 00b8 002B     		cmp	r3, #0
 3721 00ba 07D1     		bne	.L245
ARM GAS  C:\Users\DAELT-~1\AppData\Local\Temp\cc2rhEX6.s 			page 89


 3722              		.loc 1 1324 5 discriminator 2
 3723 00bc 7B68     		ldr	r3, [r7, #4]
 3724 00be 1B68     		ldr	r3, [r3]
 3725 00c0 5A6C     		ldr	r2, [r3, #68]
 3726 00c2 7B68     		ldr	r3, [r7, #4]
 3727 00c4 1B68     		ldr	r3, [r3]
 3728 00c6 22F40042 		bic	r2, r2, #32768
 3729 00ca 5A64     		str	r2, [r3, #68]
 3730              	.L245:
1325:Drivers/STM32F4xx_HAL_Driver/Src/stm32f4xx_hal_tim_ex.c **** 
1326:Drivers/STM32F4xx_HAL_Driver/Src/stm32f4xx_hal_tim_ex.c ****     /* Disable the Peripheral */
1327:Drivers/STM32F4xx_HAL_Driver/Src/stm32f4xx_hal_tim_ex.c ****     __HAL_TIM_DISABLE(htim);
 3731              		.loc 1 1327 5 is_stmt 1
 3732 00cc 7B68     		ldr	r3, [r7, #4]
 3733 00ce 1B68     		ldr	r3, [r3]
 3734 00d0 1A6A     		ldr	r2, [r3, #32]
 3735 00d2 41F21113 		movw	r3, #4369
 3736 00d6 1340     		ands	r3, r3, r2
 3737 00d8 002B     		cmp	r3, #0
 3738 00da 0FD1     		bne	.L246
 3739              		.loc 1 1327 5 is_stmt 0 discriminator 1
 3740 00dc 7B68     		ldr	r3, [r7, #4]
 3741 00de 1B68     		ldr	r3, [r3]
 3742 00e0 1A6A     		ldr	r2, [r3, #32]
 3743 00e2 40F24443 		movw	r3, #1092
 3744 00e6 1340     		ands	r3, r3, r2
 3745 00e8 002B     		cmp	r3, #0
 3746 00ea 07D1     		bne	.L246
 3747              		.loc 1 1327 5 discriminator 2
 3748 00ec 7B68     		ldr	r3, [r7, #4]
 3749 00ee 1B68     		ldr	r3, [r3]
 3750 00f0 1A68     		ldr	r2, [r3]
 3751 00f2 7B68     		ldr	r3, [r7, #4]
 3752 00f4 1B68     		ldr	r3, [r3]
 3753 00f6 22F00102 		bic	r2, r2, #1
 3754 00fa 1A60     		str	r2, [r3]
 3755              	.L246:
1328:Drivers/STM32F4xx_HAL_Driver/Src/stm32f4xx_hal_tim_ex.c **** 
1329:Drivers/STM32F4xx_HAL_Driver/Src/stm32f4xx_hal_tim_ex.c ****     /* Set the TIM complementary channel state */
1330:Drivers/STM32F4xx_HAL_Driver/Src/stm32f4xx_hal_tim_ex.c ****     TIM_CHANNEL_N_STATE_SET(htim, Channel, HAL_TIM_CHANNEL_STATE_READY);
 3756              		.loc 1 1330 5 is_stmt 1
 3757 00fc 3B68     		ldr	r3, [r7]
 3758 00fe 002B     		cmp	r3, #0
 3759 0100 04D1     		bne	.L247
 3760              		.loc 1 1330 5 is_stmt 0 discriminator 1
 3761 0102 7B68     		ldr	r3, [r7, #4]
 3762 0104 0122     		movs	r2, #1
 3763 0106 83F84220 		strb	r2, [r3, #66]
 3764 010a 13E0     		b	.L243
 3765              	.L247:
 3766              		.loc 1 1330 5 discriminator 2
 3767 010c 3B68     		ldr	r3, [r7]
 3768 010e 042B     		cmp	r3, #4
 3769 0110 04D1     		bne	.L248
 3770              		.loc 1 1330 5 discriminator 3
 3771 0112 7B68     		ldr	r3, [r7, #4]
 3772 0114 0122     		movs	r2, #1
ARM GAS  C:\Users\DAELT-~1\AppData\Local\Temp\cc2rhEX6.s 			page 90


 3773 0116 83F84320 		strb	r2, [r3, #67]
 3774 011a 0BE0     		b	.L243
 3775              	.L248:
 3776              		.loc 1 1330 5 discriminator 4
 3777 011c 3B68     		ldr	r3, [r7]
 3778 011e 082B     		cmp	r3, #8
 3779 0120 04D1     		bne	.L250
 3780              		.loc 1 1330 5 discriminator 6
 3781 0122 7B68     		ldr	r3, [r7, #4]
 3782 0124 0122     		movs	r2, #1
 3783 0126 83F84420 		strb	r2, [r3, #68]
 3784 012a 03E0     		b	.L243
 3785              	.L250:
 3786              		.loc 1 1330 5 discriminator 7
 3787 012c 7B68     		ldr	r3, [r7, #4]
 3788 012e 0122     		movs	r2, #1
 3789 0130 83F84520 		strb	r2, [r3, #69]
 3790              	.L243:
1331:Drivers/STM32F4xx_HAL_Driver/Src/stm32f4xx_hal_tim_ex.c ****   }
1332:Drivers/STM32F4xx_HAL_Driver/Src/stm32f4xx_hal_tim_ex.c **** 
1333:Drivers/STM32F4xx_HAL_Driver/Src/stm32f4xx_hal_tim_ex.c ****   /* Return function status */
1334:Drivers/STM32F4xx_HAL_Driver/Src/stm32f4xx_hal_tim_ex.c ****   return status;
 3791              		.loc 1 1334 10 is_stmt 1
 3792 0134 FB7B     		ldrb	r3, [r7, #15]	@ zero_extendqisi2
1335:Drivers/STM32F4xx_HAL_Driver/Src/stm32f4xx_hal_tim_ex.c **** }
 3793              		.loc 1 1335 1
 3794 0136 1846     		mov	r0, r3
 3795 0138 1037     		adds	r7, r7, #16
 3796              	.LCFI100:
 3797              		.cfi_def_cfa_offset 8
 3798 013a BD46     		mov	sp, r7
 3799              	.LCFI101:
 3800              		.cfi_def_cfa_register 13
 3801              		@ sp needed
 3802 013c 80BD     		pop	{r7, pc}
 3803              		.cfi_endproc
 3804              	.LFE149:
 3806              		.section	.text.HAL_TIMEx_PWMN_Start_DMA,"ax",%progbits
 3807              		.align	1
 3808              		.global	HAL_TIMEx_PWMN_Start_DMA
 3809              		.syntax unified
 3810              		.thumb
 3811              		.thumb_func
 3813              	HAL_TIMEx_PWMN_Start_DMA:
 3814              	.LFB150:
1336:Drivers/STM32F4xx_HAL_Driver/Src/stm32f4xx_hal_tim_ex.c **** 
1337:Drivers/STM32F4xx_HAL_Driver/Src/stm32f4xx_hal_tim_ex.c **** /**
1338:Drivers/STM32F4xx_HAL_Driver/Src/stm32f4xx_hal_tim_ex.c ****   * @brief  Starts the TIM PWM signal generation in DMA mode on the
1339:Drivers/STM32F4xx_HAL_Driver/Src/stm32f4xx_hal_tim_ex.c ****   *         complementary output
1340:Drivers/STM32F4xx_HAL_Driver/Src/stm32f4xx_hal_tim_ex.c ****   * @param  htim TIM handle
1341:Drivers/STM32F4xx_HAL_Driver/Src/stm32f4xx_hal_tim_ex.c ****   * @param  Channel TIM Channel to be enabled
1342:Drivers/STM32F4xx_HAL_Driver/Src/stm32f4xx_hal_tim_ex.c ****   *          This parameter can be one of the following values:
1343:Drivers/STM32F4xx_HAL_Driver/Src/stm32f4xx_hal_tim_ex.c ****   *            @arg TIM_CHANNEL_1: TIM Channel 1 selected
1344:Drivers/STM32F4xx_HAL_Driver/Src/stm32f4xx_hal_tim_ex.c ****   *            @arg TIM_CHANNEL_2: TIM Channel 2 selected
1345:Drivers/STM32F4xx_HAL_Driver/Src/stm32f4xx_hal_tim_ex.c ****   *            @arg TIM_CHANNEL_3: TIM Channel 3 selected
1346:Drivers/STM32F4xx_HAL_Driver/Src/stm32f4xx_hal_tim_ex.c ****   * @param  pData The source Buffer address.
1347:Drivers/STM32F4xx_HAL_Driver/Src/stm32f4xx_hal_tim_ex.c ****   * @param  Length The length of data to be transferred from memory to TIM peripheral
ARM GAS  C:\Users\DAELT-~1\AppData\Local\Temp\cc2rhEX6.s 			page 91


1348:Drivers/STM32F4xx_HAL_Driver/Src/stm32f4xx_hal_tim_ex.c ****   * @retval HAL status
1349:Drivers/STM32F4xx_HAL_Driver/Src/stm32f4xx_hal_tim_ex.c ****   */
1350:Drivers/STM32F4xx_HAL_Driver/Src/stm32f4xx_hal_tim_ex.c **** HAL_StatusTypeDef HAL_TIMEx_PWMN_Start_DMA(TIM_HandleTypeDef *htim, uint32_t Channel, uint32_t *pDa
1351:Drivers/STM32F4xx_HAL_Driver/Src/stm32f4xx_hal_tim_ex.c **** {
 3815              		.loc 1 1351 1
 3816              		.cfi_startproc
 3817              		@ args = 0, pretend = 0, frame = 24
 3818              		@ frame_needed = 1, uses_anonymous_args = 0
 3819 0000 80B5     		push	{r7, lr}
 3820              	.LCFI102:
 3821              		.cfi_def_cfa_offset 8
 3822              		.cfi_offset 7, -8
 3823              		.cfi_offset 14, -4
 3824 0002 86B0     		sub	sp, sp, #24
 3825              	.LCFI103:
 3826              		.cfi_def_cfa_offset 32
 3827 0004 00AF     		add	r7, sp, #0
 3828              	.LCFI104:
 3829              		.cfi_def_cfa_register 7
 3830 0006 F860     		str	r0, [r7, #12]
 3831 0008 B960     		str	r1, [r7, #8]
 3832 000a 7A60     		str	r2, [r7, #4]
 3833 000c 7B80     		strh	r3, [r7, #2]	@ movhi
1352:Drivers/STM32F4xx_HAL_Driver/Src/stm32f4xx_hal_tim_ex.c ****   HAL_StatusTypeDef status = HAL_OK;
 3834              		.loc 1 1352 21
 3835 000e 0023     		movs	r3, #0
 3836 0010 FB75     		strb	r3, [r7, #23]
1353:Drivers/STM32F4xx_HAL_Driver/Src/stm32f4xx_hal_tim_ex.c ****   uint32_t tmpsmcr;
1354:Drivers/STM32F4xx_HAL_Driver/Src/stm32f4xx_hal_tim_ex.c **** 
1355:Drivers/STM32F4xx_HAL_Driver/Src/stm32f4xx_hal_tim_ex.c ****   /* Check the parameters */
1356:Drivers/STM32F4xx_HAL_Driver/Src/stm32f4xx_hal_tim_ex.c ****   assert_param(IS_TIM_CCXN_INSTANCE(htim->Instance, Channel));
1357:Drivers/STM32F4xx_HAL_Driver/Src/stm32f4xx_hal_tim_ex.c **** 
1358:Drivers/STM32F4xx_HAL_Driver/Src/stm32f4xx_hal_tim_ex.c ****   /* Set the TIM complementary channel state */
1359:Drivers/STM32F4xx_HAL_Driver/Src/stm32f4xx_hal_tim_ex.c ****   if (TIM_CHANNEL_N_STATE_GET(htim, Channel) == HAL_TIM_CHANNEL_STATE_BUSY)
 3837              		.loc 1 1359 46
 3838 0012 BB68     		ldr	r3, [r7, #8]
 3839 0014 002B     		cmp	r3, #0
 3840 0016 09D1     		bne	.L254
 3841              		.loc 1 1359 7 discriminator 1
 3842 0018 FB68     		ldr	r3, [r7, #12]
 3843 001a 93F84230 		ldrb	r3, [r3, #66]
 3844 001e DBB2     		uxtb	r3, r3
 3845              		.loc 1 1359 46 discriminator 1
 3846 0020 022B     		cmp	r3, #2
 3847 0022 0CBF     		ite	eq
 3848 0024 0123     		moveq	r3, #1
 3849 0026 0023     		movne	r3, #0
 3850 0028 DBB2     		uxtb	r3, r3
 3851 002a 22E0     		b	.L255
 3852              	.L254:
 3853              		.loc 1 1359 46 is_stmt 0 discriminator 2
 3854 002c BB68     		ldr	r3, [r7, #8]
 3855 002e 042B     		cmp	r3, #4
 3856 0030 09D1     		bne	.L256
 3857              		.loc 1 1359 7 is_stmt 1 discriminator 4
 3858 0032 FB68     		ldr	r3, [r7, #12]
 3859 0034 93F84330 		ldrb	r3, [r3, #67]
ARM GAS  C:\Users\DAELT-~1\AppData\Local\Temp\cc2rhEX6.s 			page 92


 3860 0038 DBB2     		uxtb	r3, r3
 3861              		.loc 1 1359 46 discriminator 4
 3862 003a 022B     		cmp	r3, #2
 3863 003c 0CBF     		ite	eq
 3864 003e 0123     		moveq	r3, #1
 3865 0040 0023     		movne	r3, #0
 3866 0042 DBB2     		uxtb	r3, r3
 3867 0044 15E0     		b	.L255
 3868              	.L256:
 3869              		.loc 1 1359 46 is_stmt 0 discriminator 5
 3870 0046 BB68     		ldr	r3, [r7, #8]
 3871 0048 082B     		cmp	r3, #8
 3872 004a 09D1     		bne	.L258
 3873              		.loc 1 1359 7 is_stmt 1 discriminator 7
 3874 004c FB68     		ldr	r3, [r7, #12]
 3875 004e 93F84430 		ldrb	r3, [r3, #68]
 3876 0052 DBB2     		uxtb	r3, r3
 3877              		.loc 1 1359 46 discriminator 7
 3878 0054 022B     		cmp	r3, #2
 3879 0056 0CBF     		ite	eq
 3880 0058 0123     		moveq	r3, #1
 3881 005a 0023     		movne	r3, #0
 3882 005c DBB2     		uxtb	r3, r3
 3883 005e 08E0     		b	.L255
 3884              	.L258:
 3885              		.loc 1 1359 7 discriminator 8
 3886 0060 FB68     		ldr	r3, [r7, #12]
 3887 0062 93F84530 		ldrb	r3, [r3, #69]
 3888 0066 DBB2     		uxtb	r3, r3
 3889              		.loc 1 1359 46 discriminator 8
 3890 0068 022B     		cmp	r3, #2
 3891 006a 0CBF     		ite	eq
 3892 006c 0123     		moveq	r3, #1
 3893 006e 0023     		movne	r3, #0
 3894 0070 DBB2     		uxtb	r3, r3
 3895              	.L255:
 3896              		.loc 1 1359 6 discriminator 12
 3897 0072 002B     		cmp	r3, #0
 3898 0074 01D0     		beq	.L260
1360:Drivers/STM32F4xx_HAL_Driver/Src/stm32f4xx_hal_tim_ex.c ****   {
1361:Drivers/STM32F4xx_HAL_Driver/Src/stm32f4xx_hal_tim_ex.c ****     return HAL_BUSY;
 3899              		.loc 1 1361 12
 3900 0076 0223     		movs	r3, #2
 3901 0078 1FE1     		b	.L261
 3902              	.L260:
1362:Drivers/STM32F4xx_HAL_Driver/Src/stm32f4xx_hal_tim_ex.c ****   }
1363:Drivers/STM32F4xx_HAL_Driver/Src/stm32f4xx_hal_tim_ex.c ****   else if (TIM_CHANNEL_N_STATE_GET(htim, Channel) == HAL_TIM_CHANNEL_STATE_READY)
 3903              		.loc 1 1363 51
 3904 007a BB68     		ldr	r3, [r7, #8]
 3905 007c 002B     		cmp	r3, #0
 3906 007e 09D1     		bne	.L262
 3907              		.loc 1 1363 12 discriminator 1
 3908 0080 FB68     		ldr	r3, [r7, #12]
 3909 0082 93F84230 		ldrb	r3, [r3, #66]
 3910 0086 DBB2     		uxtb	r3, r3
 3911              		.loc 1 1363 51 discriminator 1
 3912 0088 012B     		cmp	r3, #1
ARM GAS  C:\Users\DAELT-~1\AppData\Local\Temp\cc2rhEX6.s 			page 93


 3913 008a 0CBF     		ite	eq
 3914 008c 0123     		moveq	r3, #1
 3915 008e 0023     		movne	r3, #0
 3916 0090 DBB2     		uxtb	r3, r3
 3917 0092 22E0     		b	.L263
 3918              	.L262:
 3919              		.loc 1 1363 51 is_stmt 0 discriminator 2
 3920 0094 BB68     		ldr	r3, [r7, #8]
 3921 0096 042B     		cmp	r3, #4
 3922 0098 09D1     		bne	.L264
 3923              		.loc 1 1363 12 is_stmt 1 discriminator 4
 3924 009a FB68     		ldr	r3, [r7, #12]
 3925 009c 93F84330 		ldrb	r3, [r3, #67]
 3926 00a0 DBB2     		uxtb	r3, r3
 3927              		.loc 1 1363 51 discriminator 4
 3928 00a2 012B     		cmp	r3, #1
 3929 00a4 0CBF     		ite	eq
 3930 00a6 0123     		moveq	r3, #1
 3931 00a8 0023     		movne	r3, #0
 3932 00aa DBB2     		uxtb	r3, r3
 3933 00ac 15E0     		b	.L263
 3934              	.L264:
 3935              		.loc 1 1363 51 is_stmt 0 discriminator 5
 3936 00ae BB68     		ldr	r3, [r7, #8]
 3937 00b0 082B     		cmp	r3, #8
 3938 00b2 09D1     		bne	.L266
 3939              		.loc 1 1363 12 is_stmt 1 discriminator 7
 3940 00b4 FB68     		ldr	r3, [r7, #12]
 3941 00b6 93F84430 		ldrb	r3, [r3, #68]
 3942 00ba DBB2     		uxtb	r3, r3
 3943              		.loc 1 1363 51 discriminator 7
 3944 00bc 012B     		cmp	r3, #1
 3945 00be 0CBF     		ite	eq
 3946 00c0 0123     		moveq	r3, #1
 3947 00c2 0023     		movne	r3, #0
 3948 00c4 DBB2     		uxtb	r3, r3
 3949 00c6 08E0     		b	.L263
 3950              	.L266:
 3951              		.loc 1 1363 12 discriminator 8
 3952 00c8 FB68     		ldr	r3, [r7, #12]
 3953 00ca 93F84530 		ldrb	r3, [r3, #69]
 3954 00ce DBB2     		uxtb	r3, r3
 3955              		.loc 1 1363 51 discriminator 8
 3956 00d0 012B     		cmp	r3, #1
 3957 00d2 0CBF     		ite	eq
 3958 00d4 0123     		moveq	r3, #1
 3959 00d6 0023     		movne	r3, #0
 3960 00d8 DBB2     		uxtb	r3, r3
 3961              	.L263:
 3962              		.loc 1 1363 11 discriminator 12
 3963 00da 002B     		cmp	r3, #0
 3964 00dc 24D0     		beq	.L268
1364:Drivers/STM32F4xx_HAL_Driver/Src/stm32f4xx_hal_tim_ex.c ****   {
1365:Drivers/STM32F4xx_HAL_Driver/Src/stm32f4xx_hal_tim_ex.c ****     if ((pData == NULL) && (Length > 0U))
 3965              		.loc 1 1365 8
 3966 00de 7B68     		ldr	r3, [r7, #4]
 3967 00e0 002B     		cmp	r3, #0
ARM GAS  C:\Users\DAELT-~1\AppData\Local\Temp\cc2rhEX6.s 			page 94


 3968 00e2 04D1     		bne	.L269
 3969              		.loc 1 1365 25 discriminator 1
 3970 00e4 7B88     		ldrh	r3, [r7, #2]
 3971 00e6 002B     		cmp	r3, #0
 3972 00e8 01D0     		beq	.L269
1366:Drivers/STM32F4xx_HAL_Driver/Src/stm32f4xx_hal_tim_ex.c ****     {
1367:Drivers/STM32F4xx_HAL_Driver/Src/stm32f4xx_hal_tim_ex.c ****       return HAL_ERROR;
 3973              		.loc 1 1367 14
 3974 00ea 0123     		movs	r3, #1
 3975 00ec E5E0     		b	.L261
 3976              	.L269:
1368:Drivers/STM32F4xx_HAL_Driver/Src/stm32f4xx_hal_tim_ex.c ****     }
1369:Drivers/STM32F4xx_HAL_Driver/Src/stm32f4xx_hal_tim_ex.c ****     else
1370:Drivers/STM32F4xx_HAL_Driver/Src/stm32f4xx_hal_tim_ex.c ****     {
1371:Drivers/STM32F4xx_HAL_Driver/Src/stm32f4xx_hal_tim_ex.c ****       TIM_CHANNEL_N_STATE_SET(htim, Channel, HAL_TIM_CHANNEL_STATE_BUSY);
 3977              		.loc 1 1371 7
 3978 00ee BB68     		ldr	r3, [r7, #8]
 3979 00f0 002B     		cmp	r3, #0
 3980 00f2 04D1     		bne	.L270
 3981              		.loc 1 1371 7 is_stmt 0 discriminator 1
 3982 00f4 FB68     		ldr	r3, [r7, #12]
 3983 00f6 0222     		movs	r2, #2
 3984 00f8 83F84220 		strb	r2, [r3, #66]
 3985 00fc 16E0     		b	.L271
 3986              	.L270:
 3987              		.loc 1 1371 7 discriminator 2
 3988 00fe BB68     		ldr	r3, [r7, #8]
 3989 0100 042B     		cmp	r3, #4
 3990 0102 04D1     		bne	.L272
 3991              		.loc 1 1371 7 discriminator 3
 3992 0104 FB68     		ldr	r3, [r7, #12]
 3993 0106 0222     		movs	r2, #2
 3994 0108 83F84320 		strb	r2, [r3, #67]
 3995              		.loc 1 1371 7 discriminator 10
 3996 010c 0EE0     		b	.L271
 3997              	.L272:
 3998              		.loc 1 1371 7 discriminator 4
 3999 010e BB68     		ldr	r3, [r7, #8]
 4000 0110 082B     		cmp	r3, #8
 4001 0112 04D1     		bne	.L274
 4002              		.loc 1 1371 7 discriminator 6
 4003 0114 FB68     		ldr	r3, [r7, #12]
 4004 0116 0222     		movs	r2, #2
 4005 0118 83F84420 		strb	r2, [r3, #68]
 4006              		.loc 1 1371 7 discriminator 10
 4007 011c 06E0     		b	.L271
 4008              	.L274:
 4009              		.loc 1 1371 7 discriminator 7
 4010 011e FB68     		ldr	r3, [r7, #12]
 4011 0120 0222     		movs	r2, #2
 4012 0122 83F84520 		strb	r2, [r3, #69]
 4013 0126 01E0     		b	.L271
 4014              	.L268:
1372:Drivers/STM32F4xx_HAL_Driver/Src/stm32f4xx_hal_tim_ex.c ****     }
1373:Drivers/STM32F4xx_HAL_Driver/Src/stm32f4xx_hal_tim_ex.c ****   }
1374:Drivers/STM32F4xx_HAL_Driver/Src/stm32f4xx_hal_tim_ex.c ****   else
1375:Drivers/STM32F4xx_HAL_Driver/Src/stm32f4xx_hal_tim_ex.c ****   {
ARM GAS  C:\Users\DAELT-~1\AppData\Local\Temp\cc2rhEX6.s 			page 95


1376:Drivers/STM32F4xx_HAL_Driver/Src/stm32f4xx_hal_tim_ex.c ****     return HAL_ERROR;
 4015              		.loc 1 1376 12 is_stmt 1
 4016 0128 0123     		movs	r3, #1
 4017 012a C6E0     		b	.L261
 4018              	.L271:
1377:Drivers/STM32F4xx_HAL_Driver/Src/stm32f4xx_hal_tim_ex.c ****   }
1378:Drivers/STM32F4xx_HAL_Driver/Src/stm32f4xx_hal_tim_ex.c **** 
1379:Drivers/STM32F4xx_HAL_Driver/Src/stm32f4xx_hal_tim_ex.c ****   switch (Channel)
 4019              		.loc 1 1379 3
 4020 012c BB68     		ldr	r3, [r7, #8]
 4021 012e 082B     		cmp	r3, #8
 4022 0130 51D0     		beq	.L276
 4023 0132 BB68     		ldr	r3, [r7, #8]
 4024 0134 082B     		cmp	r3, #8
 4025 0136 72D8     		bhi	.L277
 4026 0138 BB68     		ldr	r3, [r7, #8]
 4027 013a 002B     		cmp	r3, #0
 4028 013c 03D0     		beq	.L278
 4029 013e BB68     		ldr	r3, [r7, #8]
 4030 0140 042B     		cmp	r3, #4
 4031 0142 24D0     		beq	.L279
 4032 0144 6BE0     		b	.L277
 4033              	.L278:
1380:Drivers/STM32F4xx_HAL_Driver/Src/stm32f4xx_hal_tim_ex.c ****   {
1381:Drivers/STM32F4xx_HAL_Driver/Src/stm32f4xx_hal_tim_ex.c ****     case TIM_CHANNEL_1:
1382:Drivers/STM32F4xx_HAL_Driver/Src/stm32f4xx_hal_tim_ex.c ****     {
1383:Drivers/STM32F4xx_HAL_Driver/Src/stm32f4xx_hal_tim_ex.c ****       /* Set the DMA compare callbacks */
1384:Drivers/STM32F4xx_HAL_Driver/Src/stm32f4xx_hal_tim_ex.c ****       htim->hdma[TIM_DMA_ID_CC1]->XferCpltCallback = TIM_DMADelayPulseNCplt;
 4034              		.loc 1 1384 17
 4035 0146 FB68     		ldr	r3, [r7, #12]
 4036 0148 5B6A     		ldr	r3, [r3, #36]
 4037              		.loc 1 1384 52
 4038 014a 5E4A     		ldr	r2, .L288
 4039 014c DA63     		str	r2, [r3, #60]
1385:Drivers/STM32F4xx_HAL_Driver/Src/stm32f4xx_hal_tim_ex.c ****       htim->hdma[TIM_DMA_ID_CC1]->XferHalfCpltCallback = TIM_DMADelayPulseHalfCplt;
 4040              		.loc 1 1385 17
 4041 014e FB68     		ldr	r3, [r7, #12]
 4042 0150 5B6A     		ldr	r3, [r3, #36]
 4043              		.loc 1 1385 56
 4044 0152 5D4A     		ldr	r2, .L288+4
 4045 0154 1A64     		str	r2, [r3, #64]
1386:Drivers/STM32F4xx_HAL_Driver/Src/stm32f4xx_hal_tim_ex.c **** 
1387:Drivers/STM32F4xx_HAL_Driver/Src/stm32f4xx_hal_tim_ex.c ****       /* Set the DMA error callback */
1388:Drivers/STM32F4xx_HAL_Driver/Src/stm32f4xx_hal_tim_ex.c ****       htim->hdma[TIM_DMA_ID_CC1]->XferErrorCallback = TIM_DMAErrorCCxN ;
 4046              		.loc 1 1388 17
 4047 0156 FB68     		ldr	r3, [r7, #12]
 4048 0158 5B6A     		ldr	r3, [r3, #36]
 4049              		.loc 1 1388 53
 4050 015a 5C4A     		ldr	r2, .L288+8
 4051 015c DA64     		str	r2, [r3, #76]
1389:Drivers/STM32F4xx_HAL_Driver/Src/stm32f4xx_hal_tim_ex.c **** 
1390:Drivers/STM32F4xx_HAL_Driver/Src/stm32f4xx_hal_tim_ex.c ****       /* Enable the DMA stream */
1391:Drivers/STM32F4xx_HAL_Driver/Src/stm32f4xx_hal_tim_ex.c ****       if (HAL_DMA_Start_IT(htim->hdma[TIM_DMA_ID_CC1], (uint32_t)pData, (uint32_t)&htim->Instance->
 4052              		.loc 1 1391 11
 4053 015e FB68     		ldr	r3, [r7, #12]
 4054 0160 586A     		ldr	r0, [r3, #36]
 4055 0162 7968     		ldr	r1, [r7, #4]
ARM GAS  C:\Users\DAELT-~1\AppData\Local\Temp\cc2rhEX6.s 			page 96


 4056              		.loc 1 1391 88
 4057 0164 FB68     		ldr	r3, [r7, #12]
 4058 0166 1B68     		ldr	r3, [r3]
 4059              		.loc 1 1391 83
 4060 0168 3433     		adds	r3, r3, #52
 4061              		.loc 1 1391 11
 4062 016a 1A46     		mov	r2, r3
 4063 016c 7B88     		ldrh	r3, [r7, #2]
 4064 016e FFF7FEFF 		bl	HAL_DMA_Start_IT
 4065 0172 0346     		mov	r3, r0
 4066              		.loc 1 1391 10 discriminator 1
 4067 0174 002B     		cmp	r3, #0
 4068 0176 01D0     		beq	.L280
1392:Drivers/STM32F4xx_HAL_Driver/Src/stm32f4xx_hal_tim_ex.c ****                            Length) != HAL_OK)
1393:Drivers/STM32F4xx_HAL_Driver/Src/stm32f4xx_hal_tim_ex.c ****       {
1394:Drivers/STM32F4xx_HAL_Driver/Src/stm32f4xx_hal_tim_ex.c ****         /* Return error status */
1395:Drivers/STM32F4xx_HAL_Driver/Src/stm32f4xx_hal_tim_ex.c ****         return HAL_ERROR;
 4069              		.loc 1 1395 16
 4070 0178 0123     		movs	r3, #1
 4071 017a 9EE0     		b	.L261
 4072              	.L280:
1396:Drivers/STM32F4xx_HAL_Driver/Src/stm32f4xx_hal_tim_ex.c ****       }
1397:Drivers/STM32F4xx_HAL_Driver/Src/stm32f4xx_hal_tim_ex.c ****       /* Enable the TIM Capture/Compare 1 DMA request */
1398:Drivers/STM32F4xx_HAL_Driver/Src/stm32f4xx_hal_tim_ex.c ****       __HAL_TIM_ENABLE_DMA(htim, TIM_DMA_CC1);
 4073              		.loc 1 1398 7
 4074 017c FB68     		ldr	r3, [r7, #12]
 4075 017e 1B68     		ldr	r3, [r3]
 4076 0180 DA68     		ldr	r2, [r3, #12]
 4077 0182 FB68     		ldr	r3, [r7, #12]
 4078 0184 1B68     		ldr	r3, [r3]
 4079 0186 42F40072 		orr	r2, r2, #512
 4080 018a DA60     		str	r2, [r3, #12]
1399:Drivers/STM32F4xx_HAL_Driver/Src/stm32f4xx_hal_tim_ex.c ****       break;
 4081              		.loc 1 1399 7
 4082 018c 4AE0     		b	.L281
 4083              	.L279:
1400:Drivers/STM32F4xx_HAL_Driver/Src/stm32f4xx_hal_tim_ex.c ****     }
1401:Drivers/STM32F4xx_HAL_Driver/Src/stm32f4xx_hal_tim_ex.c **** 
1402:Drivers/STM32F4xx_HAL_Driver/Src/stm32f4xx_hal_tim_ex.c ****     case TIM_CHANNEL_2:
1403:Drivers/STM32F4xx_HAL_Driver/Src/stm32f4xx_hal_tim_ex.c ****     {
1404:Drivers/STM32F4xx_HAL_Driver/Src/stm32f4xx_hal_tim_ex.c ****       /* Set the DMA compare callbacks */
1405:Drivers/STM32F4xx_HAL_Driver/Src/stm32f4xx_hal_tim_ex.c ****       htim->hdma[TIM_DMA_ID_CC2]->XferCpltCallback = TIM_DMADelayPulseNCplt;
 4084              		.loc 1 1405 17
 4085 018e FB68     		ldr	r3, [r7, #12]
 4086 0190 9B6A     		ldr	r3, [r3, #40]
 4087              		.loc 1 1405 52
 4088 0192 4C4A     		ldr	r2, .L288
 4089 0194 DA63     		str	r2, [r3, #60]
1406:Drivers/STM32F4xx_HAL_Driver/Src/stm32f4xx_hal_tim_ex.c ****       htim->hdma[TIM_DMA_ID_CC2]->XferHalfCpltCallback = TIM_DMADelayPulseHalfCplt;
 4090              		.loc 1 1406 17
 4091 0196 FB68     		ldr	r3, [r7, #12]
 4092 0198 9B6A     		ldr	r3, [r3, #40]
 4093              		.loc 1 1406 56
 4094 019a 4B4A     		ldr	r2, .L288+4
 4095 019c 1A64     		str	r2, [r3, #64]
1407:Drivers/STM32F4xx_HAL_Driver/Src/stm32f4xx_hal_tim_ex.c **** 
1408:Drivers/STM32F4xx_HAL_Driver/Src/stm32f4xx_hal_tim_ex.c ****       /* Set the DMA error callback */
ARM GAS  C:\Users\DAELT-~1\AppData\Local\Temp\cc2rhEX6.s 			page 97


1409:Drivers/STM32F4xx_HAL_Driver/Src/stm32f4xx_hal_tim_ex.c ****       htim->hdma[TIM_DMA_ID_CC2]->XferErrorCallback = TIM_DMAErrorCCxN ;
 4096              		.loc 1 1409 17
 4097 019e FB68     		ldr	r3, [r7, #12]
 4098 01a0 9B6A     		ldr	r3, [r3, #40]
 4099              		.loc 1 1409 53
 4100 01a2 4A4A     		ldr	r2, .L288+8
 4101 01a4 DA64     		str	r2, [r3, #76]
1410:Drivers/STM32F4xx_HAL_Driver/Src/stm32f4xx_hal_tim_ex.c **** 
1411:Drivers/STM32F4xx_HAL_Driver/Src/stm32f4xx_hal_tim_ex.c ****       /* Enable the DMA stream */
1412:Drivers/STM32F4xx_HAL_Driver/Src/stm32f4xx_hal_tim_ex.c ****       if (HAL_DMA_Start_IT(htim->hdma[TIM_DMA_ID_CC2], (uint32_t)pData, (uint32_t)&htim->Instance->
 4102              		.loc 1 1412 11
 4103 01a6 FB68     		ldr	r3, [r7, #12]
 4104 01a8 986A     		ldr	r0, [r3, #40]
 4105 01aa 7968     		ldr	r1, [r7, #4]
 4106              		.loc 1 1412 88
 4107 01ac FB68     		ldr	r3, [r7, #12]
 4108 01ae 1B68     		ldr	r3, [r3]
 4109              		.loc 1 1412 83
 4110 01b0 3833     		adds	r3, r3, #56
 4111              		.loc 1 1412 11
 4112 01b2 1A46     		mov	r2, r3
 4113 01b4 7B88     		ldrh	r3, [r7, #2]
 4114 01b6 FFF7FEFF 		bl	HAL_DMA_Start_IT
 4115 01ba 0346     		mov	r3, r0
 4116              		.loc 1 1412 10 discriminator 1
 4117 01bc 002B     		cmp	r3, #0
 4118 01be 01D0     		beq	.L282
1413:Drivers/STM32F4xx_HAL_Driver/Src/stm32f4xx_hal_tim_ex.c ****                            Length) != HAL_OK)
1414:Drivers/STM32F4xx_HAL_Driver/Src/stm32f4xx_hal_tim_ex.c ****       {
1415:Drivers/STM32F4xx_HAL_Driver/Src/stm32f4xx_hal_tim_ex.c ****         /* Return error status */
1416:Drivers/STM32F4xx_HAL_Driver/Src/stm32f4xx_hal_tim_ex.c ****         return HAL_ERROR;
 4119              		.loc 1 1416 16
 4120 01c0 0123     		movs	r3, #1
 4121 01c2 7AE0     		b	.L261
 4122              	.L282:
1417:Drivers/STM32F4xx_HAL_Driver/Src/stm32f4xx_hal_tim_ex.c ****       }
1418:Drivers/STM32F4xx_HAL_Driver/Src/stm32f4xx_hal_tim_ex.c ****       /* Enable the TIM Capture/Compare 2 DMA request */
1419:Drivers/STM32F4xx_HAL_Driver/Src/stm32f4xx_hal_tim_ex.c ****       __HAL_TIM_ENABLE_DMA(htim, TIM_DMA_CC2);
 4123              		.loc 1 1419 7
 4124 01c4 FB68     		ldr	r3, [r7, #12]
 4125 01c6 1B68     		ldr	r3, [r3]
 4126 01c8 DA68     		ldr	r2, [r3, #12]
 4127 01ca FB68     		ldr	r3, [r7, #12]
 4128 01cc 1B68     		ldr	r3, [r3]
 4129 01ce 42F48062 		orr	r2, r2, #1024
 4130 01d2 DA60     		str	r2, [r3, #12]
1420:Drivers/STM32F4xx_HAL_Driver/Src/stm32f4xx_hal_tim_ex.c ****       break;
 4131              		.loc 1 1420 7
 4132 01d4 26E0     		b	.L281
 4133              	.L276:
1421:Drivers/STM32F4xx_HAL_Driver/Src/stm32f4xx_hal_tim_ex.c ****     }
1422:Drivers/STM32F4xx_HAL_Driver/Src/stm32f4xx_hal_tim_ex.c **** 
1423:Drivers/STM32F4xx_HAL_Driver/Src/stm32f4xx_hal_tim_ex.c ****     case TIM_CHANNEL_3:
1424:Drivers/STM32F4xx_HAL_Driver/Src/stm32f4xx_hal_tim_ex.c ****     {
1425:Drivers/STM32F4xx_HAL_Driver/Src/stm32f4xx_hal_tim_ex.c ****       /* Set the DMA compare callbacks */
1426:Drivers/STM32F4xx_HAL_Driver/Src/stm32f4xx_hal_tim_ex.c ****       htim->hdma[TIM_DMA_ID_CC3]->XferCpltCallback = TIM_DMADelayPulseNCplt;
 4134              		.loc 1 1426 17
ARM GAS  C:\Users\DAELT-~1\AppData\Local\Temp\cc2rhEX6.s 			page 98


 4135 01d6 FB68     		ldr	r3, [r7, #12]
 4136 01d8 DB6A     		ldr	r3, [r3, #44]
 4137              		.loc 1 1426 52
 4138 01da 3A4A     		ldr	r2, .L288
 4139 01dc DA63     		str	r2, [r3, #60]
1427:Drivers/STM32F4xx_HAL_Driver/Src/stm32f4xx_hal_tim_ex.c ****       htim->hdma[TIM_DMA_ID_CC3]->XferHalfCpltCallback = TIM_DMADelayPulseHalfCplt;
 4140              		.loc 1 1427 17
 4141 01de FB68     		ldr	r3, [r7, #12]
 4142 01e0 DB6A     		ldr	r3, [r3, #44]
 4143              		.loc 1 1427 56
 4144 01e2 394A     		ldr	r2, .L288+4
 4145 01e4 1A64     		str	r2, [r3, #64]
1428:Drivers/STM32F4xx_HAL_Driver/Src/stm32f4xx_hal_tim_ex.c **** 
1429:Drivers/STM32F4xx_HAL_Driver/Src/stm32f4xx_hal_tim_ex.c ****       /* Set the DMA error callback */
1430:Drivers/STM32F4xx_HAL_Driver/Src/stm32f4xx_hal_tim_ex.c ****       htim->hdma[TIM_DMA_ID_CC3]->XferErrorCallback = TIM_DMAErrorCCxN ;
 4146              		.loc 1 1430 17
 4147 01e6 FB68     		ldr	r3, [r7, #12]
 4148 01e8 DB6A     		ldr	r3, [r3, #44]
 4149              		.loc 1 1430 53
 4150 01ea 384A     		ldr	r2, .L288+8
 4151 01ec DA64     		str	r2, [r3, #76]
1431:Drivers/STM32F4xx_HAL_Driver/Src/stm32f4xx_hal_tim_ex.c **** 
1432:Drivers/STM32F4xx_HAL_Driver/Src/stm32f4xx_hal_tim_ex.c ****       /* Enable the DMA stream */
1433:Drivers/STM32F4xx_HAL_Driver/Src/stm32f4xx_hal_tim_ex.c ****       if (HAL_DMA_Start_IT(htim->hdma[TIM_DMA_ID_CC3], (uint32_t)pData, (uint32_t)&htim->Instance->
 4152              		.loc 1 1433 11
 4153 01ee FB68     		ldr	r3, [r7, #12]
 4154 01f0 D86A     		ldr	r0, [r3, #44]
 4155 01f2 7968     		ldr	r1, [r7, #4]
 4156              		.loc 1 1433 88
 4157 01f4 FB68     		ldr	r3, [r7, #12]
 4158 01f6 1B68     		ldr	r3, [r3]
 4159              		.loc 1 1433 83
 4160 01f8 3C33     		adds	r3, r3, #60
 4161              		.loc 1 1433 11
 4162 01fa 1A46     		mov	r2, r3
 4163 01fc 7B88     		ldrh	r3, [r7, #2]
 4164 01fe FFF7FEFF 		bl	HAL_DMA_Start_IT
 4165 0202 0346     		mov	r3, r0
 4166              		.loc 1 1433 10 discriminator 1
 4167 0204 002B     		cmp	r3, #0
 4168 0206 01D0     		beq	.L283
1434:Drivers/STM32F4xx_HAL_Driver/Src/stm32f4xx_hal_tim_ex.c ****                            Length) != HAL_OK)
1435:Drivers/STM32F4xx_HAL_Driver/Src/stm32f4xx_hal_tim_ex.c ****       {
1436:Drivers/STM32F4xx_HAL_Driver/Src/stm32f4xx_hal_tim_ex.c ****         /* Return error status */
1437:Drivers/STM32F4xx_HAL_Driver/Src/stm32f4xx_hal_tim_ex.c ****         return HAL_ERROR;
 4169              		.loc 1 1437 16
 4170 0208 0123     		movs	r3, #1
 4171 020a 56E0     		b	.L261
 4172              	.L283:
1438:Drivers/STM32F4xx_HAL_Driver/Src/stm32f4xx_hal_tim_ex.c ****       }
1439:Drivers/STM32F4xx_HAL_Driver/Src/stm32f4xx_hal_tim_ex.c ****       /* Enable the TIM Capture/Compare 3 DMA request */
1440:Drivers/STM32F4xx_HAL_Driver/Src/stm32f4xx_hal_tim_ex.c ****       __HAL_TIM_ENABLE_DMA(htim, TIM_DMA_CC3);
 4173              		.loc 1 1440 7
 4174 020c FB68     		ldr	r3, [r7, #12]
 4175 020e 1B68     		ldr	r3, [r3]
 4176 0210 DA68     		ldr	r2, [r3, #12]
 4177 0212 FB68     		ldr	r3, [r7, #12]
ARM GAS  C:\Users\DAELT-~1\AppData\Local\Temp\cc2rhEX6.s 			page 99


 4178 0214 1B68     		ldr	r3, [r3]
 4179 0216 42F40062 		orr	r2, r2, #2048
 4180 021a DA60     		str	r2, [r3, #12]
1441:Drivers/STM32F4xx_HAL_Driver/Src/stm32f4xx_hal_tim_ex.c ****       break;
 4181              		.loc 1 1441 7
 4182 021c 02E0     		b	.L281
 4183              	.L277:
1442:Drivers/STM32F4xx_HAL_Driver/Src/stm32f4xx_hal_tim_ex.c ****     }
1443:Drivers/STM32F4xx_HAL_Driver/Src/stm32f4xx_hal_tim_ex.c **** 
1444:Drivers/STM32F4xx_HAL_Driver/Src/stm32f4xx_hal_tim_ex.c ****     default:
1445:Drivers/STM32F4xx_HAL_Driver/Src/stm32f4xx_hal_tim_ex.c ****       status = HAL_ERROR;
 4184              		.loc 1 1445 14
 4185 021e 0123     		movs	r3, #1
 4186 0220 FB75     		strb	r3, [r7, #23]
1446:Drivers/STM32F4xx_HAL_Driver/Src/stm32f4xx_hal_tim_ex.c ****       break;
 4187              		.loc 1 1446 7
 4188 0222 00BF     		nop
 4189              	.L281:
1447:Drivers/STM32F4xx_HAL_Driver/Src/stm32f4xx_hal_tim_ex.c ****   }
1448:Drivers/STM32F4xx_HAL_Driver/Src/stm32f4xx_hal_tim_ex.c **** 
1449:Drivers/STM32F4xx_HAL_Driver/Src/stm32f4xx_hal_tim_ex.c ****   if (status == HAL_OK)
 4190              		.loc 1 1449 6
 4191 0224 FB7D     		ldrb	r3, [r7, #23]	@ zero_extendqisi2
 4192 0226 002B     		cmp	r3, #0
 4193 0228 46D1     		bne	.L284
1450:Drivers/STM32F4xx_HAL_Driver/Src/stm32f4xx_hal_tim_ex.c ****   {
1451:Drivers/STM32F4xx_HAL_Driver/Src/stm32f4xx_hal_tim_ex.c ****     /* Enable the complementary PWM output  */
1452:Drivers/STM32F4xx_HAL_Driver/Src/stm32f4xx_hal_tim_ex.c ****     TIM_CCxNChannelCmd(htim->Instance, Channel, TIM_CCxN_ENABLE);
 4194              		.loc 1 1452 5
 4195 022a FB68     		ldr	r3, [r7, #12]
 4196 022c 1B68     		ldr	r3, [r3]
 4197 022e 0422     		movs	r2, #4
 4198 0230 B968     		ldr	r1, [r7, #8]
 4199 0232 1846     		mov	r0, r3
 4200 0234 FFF7FEFF 		bl	TIM_CCxNChannelCmd
1453:Drivers/STM32F4xx_HAL_Driver/Src/stm32f4xx_hal_tim_ex.c **** 
1454:Drivers/STM32F4xx_HAL_Driver/Src/stm32f4xx_hal_tim_ex.c ****     /* Enable the Main Output */
1455:Drivers/STM32F4xx_HAL_Driver/Src/stm32f4xx_hal_tim_ex.c ****     __HAL_TIM_MOE_ENABLE(htim);
 4201              		.loc 1 1455 5
 4202 0238 FB68     		ldr	r3, [r7, #12]
 4203 023a 1B68     		ldr	r3, [r3]
 4204 023c 5A6C     		ldr	r2, [r3, #68]
 4205 023e FB68     		ldr	r3, [r7, #12]
 4206 0240 1B68     		ldr	r3, [r3]
 4207 0242 42F40042 		orr	r2, r2, #32768
 4208 0246 5A64     		str	r2, [r3, #68]
1456:Drivers/STM32F4xx_HAL_Driver/Src/stm32f4xx_hal_tim_ex.c **** 
1457:Drivers/STM32F4xx_HAL_Driver/Src/stm32f4xx_hal_tim_ex.c ****     /* Enable the Peripheral, except in trigger mode where enable is automatically done with trigge
1458:Drivers/STM32F4xx_HAL_Driver/Src/stm32f4xx_hal_tim_ex.c ****     if (IS_TIM_SLAVE_INSTANCE(htim->Instance))
 4209              		.loc 1 1458 9
 4210 0248 FB68     		ldr	r3, [r7, #12]
 4211 024a 1B68     		ldr	r3, [r3]
 4212              		.loc 1 1458 8
 4213 024c 204A     		ldr	r2, .L288+12
 4214 024e 9342     		cmp	r3, r2
 4215 0250 18D0     		beq	.L285
 4216              		.loc 1 1458 9 discriminator 1
ARM GAS  C:\Users\DAELT-~1\AppData\Local\Temp\cc2rhEX6.s 			page 100


 4217 0252 FB68     		ldr	r3, [r7, #12]
 4218 0254 1B68     		ldr	r3, [r3]
 4219 0256 B3F1804F 		cmp	r3, #1073741824
 4220 025a 13D0     		beq	.L285
 4221              		.loc 1 1458 9 is_stmt 0 discriminator 2
 4222 025c FB68     		ldr	r3, [r7, #12]
 4223 025e 1B68     		ldr	r3, [r3]
 4224 0260 1C4A     		ldr	r2, .L288+16
 4225 0262 9342     		cmp	r3, r2
 4226 0264 0ED0     		beq	.L285
 4227              		.loc 1 1458 9 discriminator 3
 4228 0266 FB68     		ldr	r3, [r7, #12]
 4229 0268 1B68     		ldr	r3, [r3]
 4230 026a 1B4A     		ldr	r2, .L288+20
 4231 026c 9342     		cmp	r3, r2
 4232 026e 09D0     		beq	.L285
 4233              		.loc 1 1458 9 discriminator 4
 4234 0270 FB68     		ldr	r3, [r7, #12]
 4235 0272 1B68     		ldr	r3, [r3]
 4236 0274 194A     		ldr	r2, .L288+24
 4237 0276 9342     		cmp	r3, r2
 4238 0278 04D0     		beq	.L285
 4239              		.loc 1 1458 9 discriminator 5
 4240 027a FB68     		ldr	r3, [r7, #12]
 4241 027c 1B68     		ldr	r3, [r3]
 4242 027e 184A     		ldr	r2, .L288+28
 4243 0280 9342     		cmp	r3, r2
 4244 0282 11D1     		bne	.L286
 4245              	.L285:
1459:Drivers/STM32F4xx_HAL_Driver/Src/stm32f4xx_hal_tim_ex.c ****     {
1460:Drivers/STM32F4xx_HAL_Driver/Src/stm32f4xx_hal_tim_ex.c ****       tmpsmcr = htim->Instance->SMCR & TIM_SMCR_SMS;
 4246              		.loc 1 1460 21 is_stmt 1
 4247 0284 FB68     		ldr	r3, [r7, #12]
 4248 0286 1B68     		ldr	r3, [r3]
 4249              		.loc 1 1460 31
 4250 0288 9B68     		ldr	r3, [r3, #8]
 4251              		.loc 1 1460 15
 4252 028a 03F00703 		and	r3, r3, #7
 4253 028e 3B61     		str	r3, [r7, #16]
1461:Drivers/STM32F4xx_HAL_Driver/Src/stm32f4xx_hal_tim_ex.c ****       if (!IS_TIM_SLAVEMODE_TRIGGER_ENABLED(tmpsmcr))
 4254              		.loc 1 1461 10
 4255 0290 3B69     		ldr	r3, [r7, #16]
 4256 0292 062B     		cmp	r3, #6
 4257 0294 10D0     		beq	.L284
1462:Drivers/STM32F4xx_HAL_Driver/Src/stm32f4xx_hal_tim_ex.c ****       {
1463:Drivers/STM32F4xx_HAL_Driver/Src/stm32f4xx_hal_tim_ex.c ****         __HAL_TIM_ENABLE(htim);
 4258              		.loc 1 1463 9
 4259 0296 FB68     		ldr	r3, [r7, #12]
 4260 0298 1B68     		ldr	r3, [r3]
 4261 029a 1A68     		ldr	r2, [r3]
 4262 029c FB68     		ldr	r3, [r7, #12]
 4263 029e 1B68     		ldr	r3, [r3]
 4264 02a0 42F00102 		orr	r2, r2, #1
 4265 02a4 1A60     		str	r2, [r3]
1461:Drivers/STM32F4xx_HAL_Driver/Src/stm32f4xx_hal_tim_ex.c ****       if (!IS_TIM_SLAVEMODE_TRIGGER_ENABLED(tmpsmcr))
 4266              		.loc 1 1461 10
 4267 02a6 07E0     		b	.L284
ARM GAS  C:\Users\DAELT-~1\AppData\Local\Temp\cc2rhEX6.s 			page 101


 4268              	.L286:
1464:Drivers/STM32F4xx_HAL_Driver/Src/stm32f4xx_hal_tim_ex.c ****       }
1465:Drivers/STM32F4xx_HAL_Driver/Src/stm32f4xx_hal_tim_ex.c ****     }
1466:Drivers/STM32F4xx_HAL_Driver/Src/stm32f4xx_hal_tim_ex.c ****     else
1467:Drivers/STM32F4xx_HAL_Driver/Src/stm32f4xx_hal_tim_ex.c ****     {
1468:Drivers/STM32F4xx_HAL_Driver/Src/stm32f4xx_hal_tim_ex.c ****       __HAL_TIM_ENABLE(htim);
 4269              		.loc 1 1468 7
 4270 02a8 FB68     		ldr	r3, [r7, #12]
 4271 02aa 1B68     		ldr	r3, [r3]
 4272 02ac 1A68     		ldr	r2, [r3]
 4273 02ae FB68     		ldr	r3, [r7, #12]
 4274 02b0 1B68     		ldr	r3, [r3]
 4275 02b2 42F00102 		orr	r2, r2, #1
 4276 02b6 1A60     		str	r2, [r3]
 4277              	.L284:
1469:Drivers/STM32F4xx_HAL_Driver/Src/stm32f4xx_hal_tim_ex.c ****     }
1470:Drivers/STM32F4xx_HAL_Driver/Src/stm32f4xx_hal_tim_ex.c ****   }
1471:Drivers/STM32F4xx_HAL_Driver/Src/stm32f4xx_hal_tim_ex.c **** 
1472:Drivers/STM32F4xx_HAL_Driver/Src/stm32f4xx_hal_tim_ex.c ****   /* Return function status */
1473:Drivers/STM32F4xx_HAL_Driver/Src/stm32f4xx_hal_tim_ex.c ****   return status;
 4278              		.loc 1 1473 10
 4279 02b8 FB7D     		ldrb	r3, [r7, #23]	@ zero_extendqisi2
 4280              	.L261:
1474:Drivers/STM32F4xx_HAL_Driver/Src/stm32f4xx_hal_tim_ex.c **** }
 4281              		.loc 1 1474 1
 4282 02ba 1846     		mov	r0, r3
 4283 02bc 1837     		adds	r7, r7, #24
 4284              	.LCFI105:
 4285              		.cfi_def_cfa_offset 8
 4286 02be BD46     		mov	sp, r7
 4287              	.LCFI106:
 4288              		.cfi_def_cfa_register 13
 4289              		@ sp needed
 4290 02c0 80BD     		pop	{r7, pc}
 4291              	.L289:
 4292 02c2 00BF     		.align	2
 4293              	.L288:
 4294 02c4 00000000 		.word	TIM_DMADelayPulseNCplt
 4295 02c8 00000000 		.word	TIM_DMADelayPulseHalfCplt
 4296 02cc 00000000 		.word	TIM_DMAErrorCCxN
 4297 02d0 00000140 		.word	1073807360
 4298 02d4 00040040 		.word	1073742848
 4299 02d8 00080040 		.word	1073743872
 4300 02dc 000C0040 		.word	1073744896
 4301 02e0 00400140 		.word	1073823744
 4302              		.cfi_endproc
 4303              	.LFE150:
 4305              		.section	.text.HAL_TIMEx_PWMN_Stop_DMA,"ax",%progbits
 4306              		.align	1
 4307              		.global	HAL_TIMEx_PWMN_Stop_DMA
 4308              		.syntax unified
 4309              		.thumb
 4310              		.thumb_func
 4312              	HAL_TIMEx_PWMN_Stop_DMA:
 4313              	.LFB151:
1475:Drivers/STM32F4xx_HAL_Driver/Src/stm32f4xx_hal_tim_ex.c **** 
1476:Drivers/STM32F4xx_HAL_Driver/Src/stm32f4xx_hal_tim_ex.c **** /**
ARM GAS  C:\Users\DAELT-~1\AppData\Local\Temp\cc2rhEX6.s 			page 102


1477:Drivers/STM32F4xx_HAL_Driver/Src/stm32f4xx_hal_tim_ex.c ****   * @brief  Stops the TIM PWM signal generation in DMA mode on the complementary
1478:Drivers/STM32F4xx_HAL_Driver/Src/stm32f4xx_hal_tim_ex.c ****   *         output
1479:Drivers/STM32F4xx_HAL_Driver/Src/stm32f4xx_hal_tim_ex.c ****   * @param  htim TIM handle
1480:Drivers/STM32F4xx_HAL_Driver/Src/stm32f4xx_hal_tim_ex.c ****   * @param  Channel TIM Channel to be disabled
1481:Drivers/STM32F4xx_HAL_Driver/Src/stm32f4xx_hal_tim_ex.c ****   *          This parameter can be one of the following values:
1482:Drivers/STM32F4xx_HAL_Driver/Src/stm32f4xx_hal_tim_ex.c ****   *            @arg TIM_CHANNEL_1: TIM Channel 1 selected
1483:Drivers/STM32F4xx_HAL_Driver/Src/stm32f4xx_hal_tim_ex.c ****   *            @arg TIM_CHANNEL_2: TIM Channel 2 selected
1484:Drivers/STM32F4xx_HAL_Driver/Src/stm32f4xx_hal_tim_ex.c ****   *            @arg TIM_CHANNEL_3: TIM Channel 3 selected
1485:Drivers/STM32F4xx_HAL_Driver/Src/stm32f4xx_hal_tim_ex.c ****   * @retval HAL status
1486:Drivers/STM32F4xx_HAL_Driver/Src/stm32f4xx_hal_tim_ex.c ****   */
1487:Drivers/STM32F4xx_HAL_Driver/Src/stm32f4xx_hal_tim_ex.c **** HAL_StatusTypeDef HAL_TIMEx_PWMN_Stop_DMA(TIM_HandleTypeDef *htim, uint32_t Channel)
1488:Drivers/STM32F4xx_HAL_Driver/Src/stm32f4xx_hal_tim_ex.c **** {
 4314              		.loc 1 1488 1
 4315              		.cfi_startproc
 4316              		@ args = 0, pretend = 0, frame = 16
 4317              		@ frame_needed = 1, uses_anonymous_args = 0
 4318 0000 80B5     		push	{r7, lr}
 4319              	.LCFI107:
 4320              		.cfi_def_cfa_offset 8
 4321              		.cfi_offset 7, -8
 4322              		.cfi_offset 14, -4
 4323 0002 84B0     		sub	sp, sp, #16
 4324              	.LCFI108:
 4325              		.cfi_def_cfa_offset 24
 4326 0004 00AF     		add	r7, sp, #0
 4327              	.LCFI109:
 4328              		.cfi_def_cfa_register 7
 4329 0006 7860     		str	r0, [r7, #4]
 4330 0008 3960     		str	r1, [r7]
1489:Drivers/STM32F4xx_HAL_Driver/Src/stm32f4xx_hal_tim_ex.c ****   HAL_StatusTypeDef status = HAL_OK;
 4331              		.loc 1 1489 21
 4332 000a 0023     		movs	r3, #0
 4333 000c FB73     		strb	r3, [r7, #15]
1490:Drivers/STM32F4xx_HAL_Driver/Src/stm32f4xx_hal_tim_ex.c **** 
1491:Drivers/STM32F4xx_HAL_Driver/Src/stm32f4xx_hal_tim_ex.c ****   /* Check the parameters */
1492:Drivers/STM32F4xx_HAL_Driver/Src/stm32f4xx_hal_tim_ex.c ****   assert_param(IS_TIM_CCXN_INSTANCE(htim->Instance, Channel));
1493:Drivers/STM32F4xx_HAL_Driver/Src/stm32f4xx_hal_tim_ex.c **** 
1494:Drivers/STM32F4xx_HAL_Driver/Src/stm32f4xx_hal_tim_ex.c ****   switch (Channel)
 4334              		.loc 1 1494 3
 4335 000e 3B68     		ldr	r3, [r7]
 4336 0010 082B     		cmp	r3, #8
 4337 0012 25D0     		beq	.L291
 4338 0014 3B68     		ldr	r3, [r7]
 4339 0016 082B     		cmp	r3, #8
 4340 0018 30D8     		bhi	.L292
 4341 001a 3B68     		ldr	r3, [r7]
 4342 001c 002B     		cmp	r3, #0
 4343 001e 03D0     		beq	.L293
 4344 0020 3B68     		ldr	r3, [r7]
 4345 0022 042B     		cmp	r3, #4
 4346 0024 0ED0     		beq	.L294
 4347 0026 29E0     		b	.L292
 4348              	.L293:
1495:Drivers/STM32F4xx_HAL_Driver/Src/stm32f4xx_hal_tim_ex.c ****   {
1496:Drivers/STM32F4xx_HAL_Driver/Src/stm32f4xx_hal_tim_ex.c ****     case TIM_CHANNEL_1:
1497:Drivers/STM32F4xx_HAL_Driver/Src/stm32f4xx_hal_tim_ex.c ****     {
1498:Drivers/STM32F4xx_HAL_Driver/Src/stm32f4xx_hal_tim_ex.c ****       /* Disable the TIM Capture/Compare 1 DMA request */
ARM GAS  C:\Users\DAELT-~1\AppData\Local\Temp\cc2rhEX6.s 			page 103


1499:Drivers/STM32F4xx_HAL_Driver/Src/stm32f4xx_hal_tim_ex.c ****       __HAL_TIM_DISABLE_DMA(htim, TIM_DMA_CC1);
 4349              		.loc 1 1499 7
 4350 0028 7B68     		ldr	r3, [r7, #4]
 4351 002a 1B68     		ldr	r3, [r3]
 4352 002c DA68     		ldr	r2, [r3, #12]
 4353 002e 7B68     		ldr	r3, [r7, #4]
 4354 0030 1B68     		ldr	r3, [r3]
 4355 0032 22F40072 		bic	r2, r2, #512
 4356 0036 DA60     		str	r2, [r3, #12]
1500:Drivers/STM32F4xx_HAL_Driver/Src/stm32f4xx_hal_tim_ex.c ****       (void)HAL_DMA_Abort_IT(htim->hdma[TIM_DMA_ID_CC1]);
 4357              		.loc 1 1500 13
 4358 0038 7B68     		ldr	r3, [r7, #4]
 4359 003a 5B6A     		ldr	r3, [r3, #36]
 4360 003c 1846     		mov	r0, r3
 4361 003e FFF7FEFF 		bl	HAL_DMA_Abort_IT
1501:Drivers/STM32F4xx_HAL_Driver/Src/stm32f4xx_hal_tim_ex.c ****       break;
 4362              		.loc 1 1501 7
 4363 0042 1EE0     		b	.L295
 4364              	.L294:
1502:Drivers/STM32F4xx_HAL_Driver/Src/stm32f4xx_hal_tim_ex.c ****     }
1503:Drivers/STM32F4xx_HAL_Driver/Src/stm32f4xx_hal_tim_ex.c **** 
1504:Drivers/STM32F4xx_HAL_Driver/Src/stm32f4xx_hal_tim_ex.c ****     case TIM_CHANNEL_2:
1505:Drivers/STM32F4xx_HAL_Driver/Src/stm32f4xx_hal_tim_ex.c ****     {
1506:Drivers/STM32F4xx_HAL_Driver/Src/stm32f4xx_hal_tim_ex.c ****       /* Disable the TIM Capture/Compare 2 DMA request */
1507:Drivers/STM32F4xx_HAL_Driver/Src/stm32f4xx_hal_tim_ex.c ****       __HAL_TIM_DISABLE_DMA(htim, TIM_DMA_CC2);
 4365              		.loc 1 1507 7
 4366 0044 7B68     		ldr	r3, [r7, #4]
 4367 0046 1B68     		ldr	r3, [r3]
 4368 0048 DA68     		ldr	r2, [r3, #12]
 4369 004a 7B68     		ldr	r3, [r7, #4]
 4370 004c 1B68     		ldr	r3, [r3]
 4371 004e 22F48062 		bic	r2, r2, #1024
 4372 0052 DA60     		str	r2, [r3, #12]
1508:Drivers/STM32F4xx_HAL_Driver/Src/stm32f4xx_hal_tim_ex.c ****       (void)HAL_DMA_Abort_IT(htim->hdma[TIM_DMA_ID_CC2]);
 4373              		.loc 1 1508 13
 4374 0054 7B68     		ldr	r3, [r7, #4]
 4375 0056 9B6A     		ldr	r3, [r3, #40]
 4376 0058 1846     		mov	r0, r3
 4377 005a FFF7FEFF 		bl	HAL_DMA_Abort_IT
1509:Drivers/STM32F4xx_HAL_Driver/Src/stm32f4xx_hal_tim_ex.c ****       break;
 4378              		.loc 1 1509 7
 4379 005e 10E0     		b	.L295
 4380              	.L291:
1510:Drivers/STM32F4xx_HAL_Driver/Src/stm32f4xx_hal_tim_ex.c ****     }
1511:Drivers/STM32F4xx_HAL_Driver/Src/stm32f4xx_hal_tim_ex.c **** 
1512:Drivers/STM32F4xx_HAL_Driver/Src/stm32f4xx_hal_tim_ex.c ****     case TIM_CHANNEL_3:
1513:Drivers/STM32F4xx_HAL_Driver/Src/stm32f4xx_hal_tim_ex.c ****     {
1514:Drivers/STM32F4xx_HAL_Driver/Src/stm32f4xx_hal_tim_ex.c ****       /* Disable the TIM Capture/Compare 3 DMA request */
1515:Drivers/STM32F4xx_HAL_Driver/Src/stm32f4xx_hal_tim_ex.c ****       __HAL_TIM_DISABLE_DMA(htim, TIM_DMA_CC3);
 4381              		.loc 1 1515 7
 4382 0060 7B68     		ldr	r3, [r7, #4]
 4383 0062 1B68     		ldr	r3, [r3]
 4384 0064 DA68     		ldr	r2, [r3, #12]
 4385 0066 7B68     		ldr	r3, [r7, #4]
 4386 0068 1B68     		ldr	r3, [r3]
 4387 006a 22F40062 		bic	r2, r2, #2048
 4388 006e DA60     		str	r2, [r3, #12]
ARM GAS  C:\Users\DAELT-~1\AppData\Local\Temp\cc2rhEX6.s 			page 104


1516:Drivers/STM32F4xx_HAL_Driver/Src/stm32f4xx_hal_tim_ex.c ****       (void)HAL_DMA_Abort_IT(htim->hdma[TIM_DMA_ID_CC3]);
 4389              		.loc 1 1516 13
 4390 0070 7B68     		ldr	r3, [r7, #4]
 4391 0072 DB6A     		ldr	r3, [r3, #44]
 4392 0074 1846     		mov	r0, r3
 4393 0076 FFF7FEFF 		bl	HAL_DMA_Abort_IT
1517:Drivers/STM32F4xx_HAL_Driver/Src/stm32f4xx_hal_tim_ex.c ****       break;
 4394              		.loc 1 1517 7
 4395 007a 02E0     		b	.L295
 4396              	.L292:
1518:Drivers/STM32F4xx_HAL_Driver/Src/stm32f4xx_hal_tim_ex.c ****     }
1519:Drivers/STM32F4xx_HAL_Driver/Src/stm32f4xx_hal_tim_ex.c **** 
1520:Drivers/STM32F4xx_HAL_Driver/Src/stm32f4xx_hal_tim_ex.c ****     default:
1521:Drivers/STM32F4xx_HAL_Driver/Src/stm32f4xx_hal_tim_ex.c ****       status = HAL_ERROR;
 4397              		.loc 1 1521 14
 4398 007c 0123     		movs	r3, #1
 4399 007e FB73     		strb	r3, [r7, #15]
1522:Drivers/STM32F4xx_HAL_Driver/Src/stm32f4xx_hal_tim_ex.c ****       break;
 4400              		.loc 1 1522 7
 4401 0080 00BF     		nop
 4402              	.L295:
1523:Drivers/STM32F4xx_HAL_Driver/Src/stm32f4xx_hal_tim_ex.c ****   }
1524:Drivers/STM32F4xx_HAL_Driver/Src/stm32f4xx_hal_tim_ex.c **** 
1525:Drivers/STM32F4xx_HAL_Driver/Src/stm32f4xx_hal_tim_ex.c ****   if (status == HAL_OK)
 4403              		.loc 1 1525 6
 4404 0082 FB7B     		ldrb	r3, [r7, #15]	@ zero_extendqisi2
 4405 0084 002B     		cmp	r3, #0
 4406 0086 52D1     		bne	.L296
1526:Drivers/STM32F4xx_HAL_Driver/Src/stm32f4xx_hal_tim_ex.c ****   {
1527:Drivers/STM32F4xx_HAL_Driver/Src/stm32f4xx_hal_tim_ex.c ****     /* Disable the complementary PWM output */
1528:Drivers/STM32F4xx_HAL_Driver/Src/stm32f4xx_hal_tim_ex.c ****     TIM_CCxNChannelCmd(htim->Instance, Channel, TIM_CCxN_DISABLE);
 4407              		.loc 1 1528 5
 4408 0088 7B68     		ldr	r3, [r7, #4]
 4409 008a 1B68     		ldr	r3, [r3]
 4410 008c 0022     		movs	r2, #0
 4411 008e 3968     		ldr	r1, [r7]
 4412 0090 1846     		mov	r0, r3
 4413 0092 FFF7FEFF 		bl	TIM_CCxNChannelCmd
1529:Drivers/STM32F4xx_HAL_Driver/Src/stm32f4xx_hal_tim_ex.c **** 
1530:Drivers/STM32F4xx_HAL_Driver/Src/stm32f4xx_hal_tim_ex.c ****     /* Disable the Main Output */
1531:Drivers/STM32F4xx_HAL_Driver/Src/stm32f4xx_hal_tim_ex.c ****     __HAL_TIM_MOE_DISABLE(htim);
 4414              		.loc 1 1531 5
 4415 0096 7B68     		ldr	r3, [r7, #4]
 4416 0098 1B68     		ldr	r3, [r3]
 4417 009a 1A6A     		ldr	r2, [r3, #32]
 4418 009c 41F21113 		movw	r3, #4369
 4419 00a0 1340     		ands	r3, r3, r2
 4420 00a2 002B     		cmp	r3, #0
 4421 00a4 0FD1     		bne	.L297
 4422              		.loc 1 1531 5 is_stmt 0 discriminator 1
 4423 00a6 7B68     		ldr	r3, [r7, #4]
 4424 00a8 1B68     		ldr	r3, [r3]
 4425 00aa 1A6A     		ldr	r2, [r3, #32]
 4426 00ac 40F24443 		movw	r3, #1092
 4427 00b0 1340     		ands	r3, r3, r2
 4428 00b2 002B     		cmp	r3, #0
 4429 00b4 07D1     		bne	.L297
ARM GAS  C:\Users\DAELT-~1\AppData\Local\Temp\cc2rhEX6.s 			page 105


 4430              		.loc 1 1531 5 discriminator 2
 4431 00b6 7B68     		ldr	r3, [r7, #4]
 4432 00b8 1B68     		ldr	r3, [r3]
 4433 00ba 5A6C     		ldr	r2, [r3, #68]
 4434 00bc 7B68     		ldr	r3, [r7, #4]
 4435 00be 1B68     		ldr	r3, [r3]
 4436 00c0 22F40042 		bic	r2, r2, #32768
 4437 00c4 5A64     		str	r2, [r3, #68]
 4438              	.L297:
1532:Drivers/STM32F4xx_HAL_Driver/Src/stm32f4xx_hal_tim_ex.c **** 
1533:Drivers/STM32F4xx_HAL_Driver/Src/stm32f4xx_hal_tim_ex.c ****     /* Disable the Peripheral */
1534:Drivers/STM32F4xx_HAL_Driver/Src/stm32f4xx_hal_tim_ex.c ****     __HAL_TIM_DISABLE(htim);
 4439              		.loc 1 1534 5 is_stmt 1
 4440 00c6 7B68     		ldr	r3, [r7, #4]
 4441 00c8 1B68     		ldr	r3, [r3]
 4442 00ca 1A6A     		ldr	r2, [r3, #32]
 4443 00cc 41F21113 		movw	r3, #4369
 4444 00d0 1340     		ands	r3, r3, r2
 4445 00d2 002B     		cmp	r3, #0
 4446 00d4 0FD1     		bne	.L298
 4447              		.loc 1 1534 5 is_stmt 0 discriminator 1
 4448 00d6 7B68     		ldr	r3, [r7, #4]
 4449 00d8 1B68     		ldr	r3, [r3]
 4450 00da 1A6A     		ldr	r2, [r3, #32]
 4451 00dc 40F24443 		movw	r3, #1092
 4452 00e0 1340     		ands	r3, r3, r2
 4453 00e2 002B     		cmp	r3, #0
 4454 00e4 07D1     		bne	.L298
 4455              		.loc 1 1534 5 discriminator 2
 4456 00e6 7B68     		ldr	r3, [r7, #4]
 4457 00e8 1B68     		ldr	r3, [r3]
 4458 00ea 1A68     		ldr	r2, [r3]
 4459 00ec 7B68     		ldr	r3, [r7, #4]
 4460 00ee 1B68     		ldr	r3, [r3]
 4461 00f0 22F00102 		bic	r2, r2, #1
 4462 00f4 1A60     		str	r2, [r3]
 4463              	.L298:
1535:Drivers/STM32F4xx_HAL_Driver/Src/stm32f4xx_hal_tim_ex.c **** 
1536:Drivers/STM32F4xx_HAL_Driver/Src/stm32f4xx_hal_tim_ex.c ****     /* Set the TIM complementary channel state */
1537:Drivers/STM32F4xx_HAL_Driver/Src/stm32f4xx_hal_tim_ex.c ****     TIM_CHANNEL_N_STATE_SET(htim, Channel, HAL_TIM_CHANNEL_STATE_READY);
 4464              		.loc 1 1537 5 is_stmt 1
 4465 00f6 3B68     		ldr	r3, [r7]
 4466 00f8 002B     		cmp	r3, #0
 4467 00fa 04D1     		bne	.L299
 4468              		.loc 1 1537 5 is_stmt 0 discriminator 1
 4469 00fc 7B68     		ldr	r3, [r7, #4]
 4470 00fe 0122     		movs	r2, #1
 4471 0100 83F84220 		strb	r2, [r3, #66]
 4472 0104 13E0     		b	.L296
 4473              	.L299:
 4474              		.loc 1 1537 5 discriminator 2
 4475 0106 3B68     		ldr	r3, [r7]
 4476 0108 042B     		cmp	r3, #4
 4477 010a 04D1     		bne	.L300
 4478              		.loc 1 1537 5 discriminator 3
 4479 010c 7B68     		ldr	r3, [r7, #4]
 4480 010e 0122     		movs	r2, #1
ARM GAS  C:\Users\DAELT-~1\AppData\Local\Temp\cc2rhEX6.s 			page 106


 4481 0110 83F84320 		strb	r2, [r3, #67]
 4482 0114 0BE0     		b	.L296
 4483              	.L300:
 4484              		.loc 1 1537 5 discriminator 4
 4485 0116 3B68     		ldr	r3, [r7]
 4486 0118 082B     		cmp	r3, #8
 4487 011a 04D1     		bne	.L302
 4488              		.loc 1 1537 5 discriminator 6
 4489 011c 7B68     		ldr	r3, [r7, #4]
 4490 011e 0122     		movs	r2, #1
 4491 0120 83F84420 		strb	r2, [r3, #68]
 4492 0124 03E0     		b	.L296
 4493              	.L302:
 4494              		.loc 1 1537 5 discriminator 7
 4495 0126 7B68     		ldr	r3, [r7, #4]
 4496 0128 0122     		movs	r2, #1
 4497 012a 83F84520 		strb	r2, [r3, #69]
 4498              	.L296:
1538:Drivers/STM32F4xx_HAL_Driver/Src/stm32f4xx_hal_tim_ex.c ****   }
1539:Drivers/STM32F4xx_HAL_Driver/Src/stm32f4xx_hal_tim_ex.c **** 
1540:Drivers/STM32F4xx_HAL_Driver/Src/stm32f4xx_hal_tim_ex.c ****   /* Return function status */
1541:Drivers/STM32F4xx_HAL_Driver/Src/stm32f4xx_hal_tim_ex.c ****   return status;
 4499              		.loc 1 1541 10 is_stmt 1
 4500 012e FB7B     		ldrb	r3, [r7, #15]	@ zero_extendqisi2
1542:Drivers/STM32F4xx_HAL_Driver/Src/stm32f4xx_hal_tim_ex.c **** }
 4501              		.loc 1 1542 1
 4502 0130 1846     		mov	r0, r3
 4503 0132 1037     		adds	r7, r7, #16
 4504              	.LCFI110:
 4505              		.cfi_def_cfa_offset 8
 4506 0134 BD46     		mov	sp, r7
 4507              	.LCFI111:
 4508              		.cfi_def_cfa_register 13
 4509              		@ sp needed
 4510 0136 80BD     		pop	{r7, pc}
 4511              		.cfi_endproc
 4512              	.LFE151:
 4514              		.section	.text.HAL_TIMEx_OnePulseN_Start,"ax",%progbits
 4515              		.align	1
 4516              		.global	HAL_TIMEx_OnePulseN_Start
 4517              		.syntax unified
 4518              		.thumb
 4519              		.thumb_func
 4521              	HAL_TIMEx_OnePulseN_Start:
 4522              	.LFB152:
1543:Drivers/STM32F4xx_HAL_Driver/Src/stm32f4xx_hal_tim_ex.c **** 
1544:Drivers/STM32F4xx_HAL_Driver/Src/stm32f4xx_hal_tim_ex.c **** /**
1545:Drivers/STM32F4xx_HAL_Driver/Src/stm32f4xx_hal_tim_ex.c ****   * @}
1546:Drivers/STM32F4xx_HAL_Driver/Src/stm32f4xx_hal_tim_ex.c ****   */
1547:Drivers/STM32F4xx_HAL_Driver/Src/stm32f4xx_hal_tim_ex.c **** 
1548:Drivers/STM32F4xx_HAL_Driver/Src/stm32f4xx_hal_tim_ex.c **** /** @defgroup TIMEx_Exported_Functions_Group4 Extended Timer Complementary One Pulse functions
1549:Drivers/STM32F4xx_HAL_Driver/Src/stm32f4xx_hal_tim_ex.c ****   * @brief    Timer Complementary One Pulse functions
1550:Drivers/STM32F4xx_HAL_Driver/Src/stm32f4xx_hal_tim_ex.c ****   *
1551:Drivers/STM32F4xx_HAL_Driver/Src/stm32f4xx_hal_tim_ex.c **** @verbatim
1552:Drivers/STM32F4xx_HAL_Driver/Src/stm32f4xx_hal_tim_ex.c ****   ==============================================================================
1553:Drivers/STM32F4xx_HAL_Driver/Src/stm32f4xx_hal_tim_ex.c ****                 ##### Timer Complementary One Pulse functions #####
1554:Drivers/STM32F4xx_HAL_Driver/Src/stm32f4xx_hal_tim_ex.c ****   ==============================================================================
ARM GAS  C:\Users\DAELT-~1\AppData\Local\Temp\cc2rhEX6.s 			page 107


1555:Drivers/STM32F4xx_HAL_Driver/Src/stm32f4xx_hal_tim_ex.c ****   [..]
1556:Drivers/STM32F4xx_HAL_Driver/Src/stm32f4xx_hal_tim_ex.c ****     This section provides functions allowing to:
1557:Drivers/STM32F4xx_HAL_Driver/Src/stm32f4xx_hal_tim_ex.c ****     (+) Start the Complementary One Pulse generation.
1558:Drivers/STM32F4xx_HAL_Driver/Src/stm32f4xx_hal_tim_ex.c ****     (+) Stop the Complementary One Pulse.
1559:Drivers/STM32F4xx_HAL_Driver/Src/stm32f4xx_hal_tim_ex.c ****     (+) Start the Complementary One Pulse and enable interrupts.
1560:Drivers/STM32F4xx_HAL_Driver/Src/stm32f4xx_hal_tim_ex.c ****     (+) Stop the Complementary One Pulse and disable interrupts.
1561:Drivers/STM32F4xx_HAL_Driver/Src/stm32f4xx_hal_tim_ex.c **** 
1562:Drivers/STM32F4xx_HAL_Driver/Src/stm32f4xx_hal_tim_ex.c **** @endverbatim
1563:Drivers/STM32F4xx_HAL_Driver/Src/stm32f4xx_hal_tim_ex.c ****   * @{
1564:Drivers/STM32F4xx_HAL_Driver/Src/stm32f4xx_hal_tim_ex.c ****   */
1565:Drivers/STM32F4xx_HAL_Driver/Src/stm32f4xx_hal_tim_ex.c **** 
1566:Drivers/STM32F4xx_HAL_Driver/Src/stm32f4xx_hal_tim_ex.c **** /**
1567:Drivers/STM32F4xx_HAL_Driver/Src/stm32f4xx_hal_tim_ex.c ****   * @brief  Starts the TIM One Pulse signal generation on the complementary
1568:Drivers/STM32F4xx_HAL_Driver/Src/stm32f4xx_hal_tim_ex.c ****   *         output.
1569:Drivers/STM32F4xx_HAL_Driver/Src/stm32f4xx_hal_tim_ex.c ****   * @note OutputChannel must match the pulse output channel chosen when calling
1570:Drivers/STM32F4xx_HAL_Driver/Src/stm32f4xx_hal_tim_ex.c ****   *       @ref HAL_TIM_OnePulse_ConfigChannel().
1571:Drivers/STM32F4xx_HAL_Driver/Src/stm32f4xx_hal_tim_ex.c ****   * @param  htim TIM One Pulse handle
1572:Drivers/STM32F4xx_HAL_Driver/Src/stm32f4xx_hal_tim_ex.c ****   * @param  OutputChannel pulse output channel to enable
1573:Drivers/STM32F4xx_HAL_Driver/Src/stm32f4xx_hal_tim_ex.c ****   *          This parameter can be one of the following values:
1574:Drivers/STM32F4xx_HAL_Driver/Src/stm32f4xx_hal_tim_ex.c ****   *            @arg TIM_CHANNEL_1: TIM Channel 1 selected
1575:Drivers/STM32F4xx_HAL_Driver/Src/stm32f4xx_hal_tim_ex.c ****   *            @arg TIM_CHANNEL_2: TIM Channel 2 selected
1576:Drivers/STM32F4xx_HAL_Driver/Src/stm32f4xx_hal_tim_ex.c ****   * @retval HAL status
1577:Drivers/STM32F4xx_HAL_Driver/Src/stm32f4xx_hal_tim_ex.c ****   */
1578:Drivers/STM32F4xx_HAL_Driver/Src/stm32f4xx_hal_tim_ex.c **** HAL_StatusTypeDef HAL_TIMEx_OnePulseN_Start(TIM_HandleTypeDef *htim, uint32_t OutputChannel)
1579:Drivers/STM32F4xx_HAL_Driver/Src/stm32f4xx_hal_tim_ex.c **** {
 4523              		.loc 1 1579 1
 4524              		.cfi_startproc
 4525              		@ args = 0, pretend = 0, frame = 16
 4526              		@ frame_needed = 1, uses_anonymous_args = 0
 4527 0000 80B5     		push	{r7, lr}
 4528              	.LCFI112:
 4529              		.cfi_def_cfa_offset 8
 4530              		.cfi_offset 7, -8
 4531              		.cfi_offset 14, -4
 4532 0002 84B0     		sub	sp, sp, #16
 4533              	.LCFI113:
 4534              		.cfi_def_cfa_offset 24
 4535 0004 00AF     		add	r7, sp, #0
 4536              	.LCFI114:
 4537              		.cfi_def_cfa_register 7
 4538 0006 7860     		str	r0, [r7, #4]
 4539 0008 3960     		str	r1, [r7]
1580:Drivers/STM32F4xx_HAL_Driver/Src/stm32f4xx_hal_tim_ex.c ****   uint32_t input_channel = (OutputChannel == TIM_CHANNEL_1) ? TIM_CHANNEL_2 : TIM_CHANNEL_1;
 4540              		.loc 1 1580 77
 4541 000a 3B68     		ldr	r3, [r7]
 4542 000c 002B     		cmp	r3, #0
 4543 000e 01D1     		bne	.L306
 4544              		.loc 1 1580 77 is_stmt 0 discriminator 1
 4545 0010 0423     		movs	r3, #4
 4546 0012 00E0     		b	.L307
 4547              	.L306:
 4548              		.loc 1 1580 77 discriminator 2
 4549 0014 0023     		movs	r3, #0
 4550              	.L307:
 4551              		.loc 1 1580 12 is_stmt 1 discriminator 4
 4552 0016 FB60     		str	r3, [r7, #12]
1581:Drivers/STM32F4xx_HAL_Driver/Src/stm32f4xx_hal_tim_ex.c ****   HAL_TIM_ChannelStateTypeDef channel_1_state = TIM_CHANNEL_STATE_GET(htim, TIM_CHANNEL_1);
ARM GAS  C:\Users\DAELT-~1\AppData\Local\Temp\cc2rhEX6.s 			page 108


 4553              		.loc 1 1581 31
 4554 0018 7B68     		ldr	r3, [r7, #4]
 4555 001a 93F83E30 		ldrb	r3, [r3, #62]
 4556 001e FB72     		strb	r3, [r7, #11]
1582:Drivers/STM32F4xx_HAL_Driver/Src/stm32f4xx_hal_tim_ex.c ****   HAL_TIM_ChannelStateTypeDef channel_2_state = TIM_CHANNEL_STATE_GET(htim, TIM_CHANNEL_2);
 4557              		.loc 1 1582 31
 4558 0020 7B68     		ldr	r3, [r7, #4]
 4559 0022 93F83F30 		ldrb	r3, [r3, #63]
 4560 0026 BB72     		strb	r3, [r7, #10]
1583:Drivers/STM32F4xx_HAL_Driver/Src/stm32f4xx_hal_tim_ex.c ****   HAL_TIM_ChannelStateTypeDef complementary_channel_1_state = TIM_CHANNEL_N_STATE_GET(htim, TIM_CHA
 4561              		.loc 1 1583 31
 4562 0028 7B68     		ldr	r3, [r7, #4]
 4563 002a 93F84230 		ldrb	r3, [r3, #66]
 4564 002e 7B72     		strb	r3, [r7, #9]
1584:Drivers/STM32F4xx_HAL_Driver/Src/stm32f4xx_hal_tim_ex.c ****   HAL_TIM_ChannelStateTypeDef complementary_channel_2_state = TIM_CHANNEL_N_STATE_GET(htim, TIM_CHA
 4565              		.loc 1 1584 31
 4566 0030 7B68     		ldr	r3, [r7, #4]
 4567 0032 93F84330 		ldrb	r3, [r3, #67]
 4568 0036 3B72     		strb	r3, [r7, #8]
1585:Drivers/STM32F4xx_HAL_Driver/Src/stm32f4xx_hal_tim_ex.c **** 
1586:Drivers/STM32F4xx_HAL_Driver/Src/stm32f4xx_hal_tim_ex.c ****   /* Check the parameters */
1587:Drivers/STM32F4xx_HAL_Driver/Src/stm32f4xx_hal_tim_ex.c ****   assert_param(IS_TIM_CCXN_INSTANCE(htim->Instance, OutputChannel));
1588:Drivers/STM32F4xx_HAL_Driver/Src/stm32f4xx_hal_tim_ex.c **** 
1589:Drivers/STM32F4xx_HAL_Driver/Src/stm32f4xx_hal_tim_ex.c ****   /* Check the TIM channels state */
1590:Drivers/STM32F4xx_HAL_Driver/Src/stm32f4xx_hal_tim_ex.c ****   if ((channel_1_state != HAL_TIM_CHANNEL_STATE_READY)
 4569              		.loc 1 1590 6
 4570 0038 FB7A     		ldrb	r3, [r7, #11]	@ zero_extendqisi2
 4571 003a 012B     		cmp	r3, #1
 4572 003c 08D1     		bne	.L308
1591:Drivers/STM32F4xx_HAL_Driver/Src/stm32f4xx_hal_tim_ex.c ****       || (channel_2_state != HAL_TIM_CHANNEL_STATE_READY)
 4573              		.loc 1 1591 7
 4574 003e BB7A     		ldrb	r3, [r7, #10]	@ zero_extendqisi2
 4575 0040 012B     		cmp	r3, #1
 4576 0042 05D1     		bne	.L308
1592:Drivers/STM32F4xx_HAL_Driver/Src/stm32f4xx_hal_tim_ex.c ****       || (complementary_channel_1_state != HAL_TIM_CHANNEL_STATE_READY)
 4577              		.loc 1 1592 7
 4578 0044 7B7A     		ldrb	r3, [r7, #9]	@ zero_extendqisi2
 4579 0046 012B     		cmp	r3, #1
 4580 0048 02D1     		bne	.L308
1593:Drivers/STM32F4xx_HAL_Driver/Src/stm32f4xx_hal_tim_ex.c ****       || (complementary_channel_2_state != HAL_TIM_CHANNEL_STATE_READY))
 4581              		.loc 1 1593 7
 4582 004a 3B7A     		ldrb	r3, [r7, #8]	@ zero_extendqisi2
 4583 004c 012B     		cmp	r3, #1
 4584 004e 01D0     		beq	.L309
 4585              	.L308:
1594:Drivers/STM32F4xx_HAL_Driver/Src/stm32f4xx_hal_tim_ex.c ****   {
1595:Drivers/STM32F4xx_HAL_Driver/Src/stm32f4xx_hal_tim_ex.c ****     return HAL_ERROR;
 4586              		.loc 1 1595 12
 4587 0050 0123     		movs	r3, #1
 4588 0052 26E0     		b	.L310
 4589              	.L309:
1596:Drivers/STM32F4xx_HAL_Driver/Src/stm32f4xx_hal_tim_ex.c ****   }
1597:Drivers/STM32F4xx_HAL_Driver/Src/stm32f4xx_hal_tim_ex.c **** 
1598:Drivers/STM32F4xx_HAL_Driver/Src/stm32f4xx_hal_tim_ex.c ****   /* Set the TIM channels state */
1599:Drivers/STM32F4xx_HAL_Driver/Src/stm32f4xx_hal_tim_ex.c ****   TIM_CHANNEL_STATE_SET(htim, TIM_CHANNEL_1, HAL_TIM_CHANNEL_STATE_BUSY);
 4590              		.loc 1 1599 3
 4591 0054 7B68     		ldr	r3, [r7, #4]
ARM GAS  C:\Users\DAELT-~1\AppData\Local\Temp\cc2rhEX6.s 			page 109


 4592 0056 0222     		movs	r2, #2
 4593 0058 83F83E20 		strb	r2, [r3, #62]
1600:Drivers/STM32F4xx_HAL_Driver/Src/stm32f4xx_hal_tim_ex.c ****   TIM_CHANNEL_STATE_SET(htim, TIM_CHANNEL_2, HAL_TIM_CHANNEL_STATE_BUSY);
 4594              		.loc 1 1600 3
 4595 005c 7B68     		ldr	r3, [r7, #4]
 4596 005e 0222     		movs	r2, #2
 4597 0060 83F83F20 		strb	r2, [r3, #63]
1601:Drivers/STM32F4xx_HAL_Driver/Src/stm32f4xx_hal_tim_ex.c ****   TIM_CHANNEL_N_STATE_SET(htim, TIM_CHANNEL_1, HAL_TIM_CHANNEL_STATE_BUSY);
 4598              		.loc 1 1601 3
 4599 0064 7B68     		ldr	r3, [r7, #4]
 4600 0066 0222     		movs	r2, #2
 4601 0068 83F84220 		strb	r2, [r3, #66]
1602:Drivers/STM32F4xx_HAL_Driver/Src/stm32f4xx_hal_tim_ex.c ****   TIM_CHANNEL_N_STATE_SET(htim, TIM_CHANNEL_2, HAL_TIM_CHANNEL_STATE_BUSY);
 4602              		.loc 1 1602 3
 4603 006c 7B68     		ldr	r3, [r7, #4]
 4604 006e 0222     		movs	r2, #2
 4605 0070 83F84320 		strb	r2, [r3, #67]
1603:Drivers/STM32F4xx_HAL_Driver/Src/stm32f4xx_hal_tim_ex.c **** 
1604:Drivers/STM32F4xx_HAL_Driver/Src/stm32f4xx_hal_tim_ex.c ****   /* Enable the complementary One Pulse output channel and the Input Capture channel */
1605:Drivers/STM32F4xx_HAL_Driver/Src/stm32f4xx_hal_tim_ex.c ****   TIM_CCxNChannelCmd(htim->Instance, OutputChannel, TIM_CCxN_ENABLE);
 4606              		.loc 1 1605 3
 4607 0074 7B68     		ldr	r3, [r7, #4]
 4608 0076 1B68     		ldr	r3, [r3]
 4609 0078 0422     		movs	r2, #4
 4610 007a 3968     		ldr	r1, [r7]
 4611 007c 1846     		mov	r0, r3
 4612 007e FFF7FEFF 		bl	TIM_CCxNChannelCmd
1606:Drivers/STM32F4xx_HAL_Driver/Src/stm32f4xx_hal_tim_ex.c ****   TIM_CCxChannelCmd(htim->Instance, input_channel, TIM_CCx_ENABLE);
 4613              		.loc 1 1606 3
 4614 0082 7B68     		ldr	r3, [r7, #4]
 4615 0084 1B68     		ldr	r3, [r3]
 4616 0086 0122     		movs	r2, #1
 4617 0088 F968     		ldr	r1, [r7, #12]
 4618 008a 1846     		mov	r0, r3
 4619 008c FFF7FEFF 		bl	TIM_CCxChannelCmd
1607:Drivers/STM32F4xx_HAL_Driver/Src/stm32f4xx_hal_tim_ex.c **** 
1608:Drivers/STM32F4xx_HAL_Driver/Src/stm32f4xx_hal_tim_ex.c ****   /* Enable the Main Output */
1609:Drivers/STM32F4xx_HAL_Driver/Src/stm32f4xx_hal_tim_ex.c ****   __HAL_TIM_MOE_ENABLE(htim);
 4620              		.loc 1 1609 3
 4621 0090 7B68     		ldr	r3, [r7, #4]
 4622 0092 1B68     		ldr	r3, [r3]
 4623 0094 5A6C     		ldr	r2, [r3, #68]
 4624 0096 7B68     		ldr	r3, [r7, #4]
 4625 0098 1B68     		ldr	r3, [r3]
 4626 009a 42F40042 		orr	r2, r2, #32768
 4627 009e 5A64     		str	r2, [r3, #68]
1610:Drivers/STM32F4xx_HAL_Driver/Src/stm32f4xx_hal_tim_ex.c **** 
1611:Drivers/STM32F4xx_HAL_Driver/Src/stm32f4xx_hal_tim_ex.c ****   /* Return function status */
1612:Drivers/STM32F4xx_HAL_Driver/Src/stm32f4xx_hal_tim_ex.c ****   return HAL_OK;
 4628              		.loc 1 1612 10
 4629 00a0 0023     		movs	r3, #0
 4630              	.L310:
1613:Drivers/STM32F4xx_HAL_Driver/Src/stm32f4xx_hal_tim_ex.c **** }
 4631              		.loc 1 1613 1
 4632 00a2 1846     		mov	r0, r3
 4633 00a4 1037     		adds	r7, r7, #16
 4634              	.LCFI115:
ARM GAS  C:\Users\DAELT-~1\AppData\Local\Temp\cc2rhEX6.s 			page 110


 4635              		.cfi_def_cfa_offset 8
 4636 00a6 BD46     		mov	sp, r7
 4637              	.LCFI116:
 4638              		.cfi_def_cfa_register 13
 4639              		@ sp needed
 4640 00a8 80BD     		pop	{r7, pc}
 4641              		.cfi_endproc
 4642              	.LFE152:
 4644              		.section	.text.HAL_TIMEx_OnePulseN_Stop,"ax",%progbits
 4645              		.align	1
 4646              		.global	HAL_TIMEx_OnePulseN_Stop
 4647              		.syntax unified
 4648              		.thumb
 4649              		.thumb_func
 4651              	HAL_TIMEx_OnePulseN_Stop:
 4652              	.LFB153:
1614:Drivers/STM32F4xx_HAL_Driver/Src/stm32f4xx_hal_tim_ex.c **** 
1615:Drivers/STM32F4xx_HAL_Driver/Src/stm32f4xx_hal_tim_ex.c **** /**
1616:Drivers/STM32F4xx_HAL_Driver/Src/stm32f4xx_hal_tim_ex.c ****   * @brief  Stops the TIM One Pulse signal generation on the complementary
1617:Drivers/STM32F4xx_HAL_Driver/Src/stm32f4xx_hal_tim_ex.c ****   *         output.
1618:Drivers/STM32F4xx_HAL_Driver/Src/stm32f4xx_hal_tim_ex.c ****   * @note OutputChannel must match the pulse output channel chosen when calling
1619:Drivers/STM32F4xx_HAL_Driver/Src/stm32f4xx_hal_tim_ex.c ****   *       @ref HAL_TIM_OnePulse_ConfigChannel().
1620:Drivers/STM32F4xx_HAL_Driver/Src/stm32f4xx_hal_tim_ex.c ****   * @param  htim TIM One Pulse handle
1621:Drivers/STM32F4xx_HAL_Driver/Src/stm32f4xx_hal_tim_ex.c ****   * @param  OutputChannel pulse output channel to disable
1622:Drivers/STM32F4xx_HAL_Driver/Src/stm32f4xx_hal_tim_ex.c ****   *          This parameter can be one of the following values:
1623:Drivers/STM32F4xx_HAL_Driver/Src/stm32f4xx_hal_tim_ex.c ****   *            @arg TIM_CHANNEL_1: TIM Channel 1 selected
1624:Drivers/STM32F4xx_HAL_Driver/Src/stm32f4xx_hal_tim_ex.c ****   *            @arg TIM_CHANNEL_2: TIM Channel 2 selected
1625:Drivers/STM32F4xx_HAL_Driver/Src/stm32f4xx_hal_tim_ex.c ****   * @retval HAL status
1626:Drivers/STM32F4xx_HAL_Driver/Src/stm32f4xx_hal_tim_ex.c ****   */
1627:Drivers/STM32F4xx_HAL_Driver/Src/stm32f4xx_hal_tim_ex.c **** HAL_StatusTypeDef HAL_TIMEx_OnePulseN_Stop(TIM_HandleTypeDef *htim, uint32_t OutputChannel)
1628:Drivers/STM32F4xx_HAL_Driver/Src/stm32f4xx_hal_tim_ex.c **** {
 4653              		.loc 1 1628 1
 4654              		.cfi_startproc
 4655              		@ args = 0, pretend = 0, frame = 16
 4656              		@ frame_needed = 1, uses_anonymous_args = 0
 4657 0000 80B5     		push	{r7, lr}
 4658              	.LCFI117:
 4659              		.cfi_def_cfa_offset 8
 4660              		.cfi_offset 7, -8
 4661              		.cfi_offset 14, -4
 4662 0002 84B0     		sub	sp, sp, #16
 4663              	.LCFI118:
 4664              		.cfi_def_cfa_offset 24
 4665 0004 00AF     		add	r7, sp, #0
 4666              	.LCFI119:
 4667              		.cfi_def_cfa_register 7
 4668 0006 7860     		str	r0, [r7, #4]
 4669 0008 3960     		str	r1, [r7]
1629:Drivers/STM32F4xx_HAL_Driver/Src/stm32f4xx_hal_tim_ex.c ****   uint32_t input_channel = (OutputChannel == TIM_CHANNEL_1) ? TIM_CHANNEL_2 : TIM_CHANNEL_1;
 4670              		.loc 1 1629 77
 4671 000a 3B68     		ldr	r3, [r7]
 4672 000c 002B     		cmp	r3, #0
 4673 000e 01D1     		bne	.L312
 4674              		.loc 1 1629 77 is_stmt 0 discriminator 1
 4675 0010 0423     		movs	r3, #4
 4676 0012 00E0     		b	.L313
 4677              	.L312:
ARM GAS  C:\Users\DAELT-~1\AppData\Local\Temp\cc2rhEX6.s 			page 111


 4678              		.loc 1 1629 77 discriminator 2
 4679 0014 0023     		movs	r3, #0
 4680              	.L313:
 4681              		.loc 1 1629 12 is_stmt 1 discriminator 4
 4682 0016 FB60     		str	r3, [r7, #12]
1630:Drivers/STM32F4xx_HAL_Driver/Src/stm32f4xx_hal_tim_ex.c **** 
1631:Drivers/STM32F4xx_HAL_Driver/Src/stm32f4xx_hal_tim_ex.c ****   /* Check the parameters */
1632:Drivers/STM32F4xx_HAL_Driver/Src/stm32f4xx_hal_tim_ex.c ****   assert_param(IS_TIM_CCXN_INSTANCE(htim->Instance, OutputChannel));
1633:Drivers/STM32F4xx_HAL_Driver/Src/stm32f4xx_hal_tim_ex.c **** 
1634:Drivers/STM32F4xx_HAL_Driver/Src/stm32f4xx_hal_tim_ex.c ****   /* Disable the complementary One Pulse output channel and the Input Capture channel */
1635:Drivers/STM32F4xx_HAL_Driver/Src/stm32f4xx_hal_tim_ex.c ****   TIM_CCxNChannelCmd(htim->Instance, OutputChannel, TIM_CCxN_DISABLE);
 4683              		.loc 1 1635 3
 4684 0018 7B68     		ldr	r3, [r7, #4]
 4685 001a 1B68     		ldr	r3, [r3]
 4686 001c 0022     		movs	r2, #0
 4687 001e 3968     		ldr	r1, [r7]
 4688 0020 1846     		mov	r0, r3
 4689 0022 FFF7FEFF 		bl	TIM_CCxNChannelCmd
1636:Drivers/STM32F4xx_HAL_Driver/Src/stm32f4xx_hal_tim_ex.c ****   TIM_CCxChannelCmd(htim->Instance, input_channel, TIM_CCx_DISABLE);
 4690              		.loc 1 1636 3
 4691 0026 7B68     		ldr	r3, [r7, #4]
 4692 0028 1B68     		ldr	r3, [r3]
 4693 002a 0022     		movs	r2, #0
 4694 002c F968     		ldr	r1, [r7, #12]
 4695 002e 1846     		mov	r0, r3
 4696 0030 FFF7FEFF 		bl	TIM_CCxChannelCmd
1637:Drivers/STM32F4xx_HAL_Driver/Src/stm32f4xx_hal_tim_ex.c **** 
1638:Drivers/STM32F4xx_HAL_Driver/Src/stm32f4xx_hal_tim_ex.c ****   /* Disable the Main Output */
1639:Drivers/STM32F4xx_HAL_Driver/Src/stm32f4xx_hal_tim_ex.c ****   __HAL_TIM_MOE_DISABLE(htim);
 4697              		.loc 1 1639 3
 4698 0034 7B68     		ldr	r3, [r7, #4]
 4699 0036 1B68     		ldr	r3, [r3]
 4700 0038 1A6A     		ldr	r2, [r3, #32]
 4701 003a 41F21113 		movw	r3, #4369
 4702 003e 1340     		ands	r3, r3, r2
 4703 0040 002B     		cmp	r3, #0
 4704 0042 0FD1     		bne	.L314
 4705              		.loc 1 1639 3 is_stmt 0 discriminator 1
 4706 0044 7B68     		ldr	r3, [r7, #4]
 4707 0046 1B68     		ldr	r3, [r3]
 4708 0048 1A6A     		ldr	r2, [r3, #32]
 4709 004a 40F24443 		movw	r3, #1092
 4710 004e 1340     		ands	r3, r3, r2
 4711 0050 002B     		cmp	r3, #0
 4712 0052 07D1     		bne	.L314
 4713              		.loc 1 1639 3 discriminator 2
 4714 0054 7B68     		ldr	r3, [r7, #4]
 4715 0056 1B68     		ldr	r3, [r3]
 4716 0058 5A6C     		ldr	r2, [r3, #68]
 4717 005a 7B68     		ldr	r3, [r7, #4]
 4718 005c 1B68     		ldr	r3, [r3]
 4719 005e 22F40042 		bic	r2, r2, #32768
 4720 0062 5A64     		str	r2, [r3, #68]
 4721              	.L314:
1640:Drivers/STM32F4xx_HAL_Driver/Src/stm32f4xx_hal_tim_ex.c **** 
1641:Drivers/STM32F4xx_HAL_Driver/Src/stm32f4xx_hal_tim_ex.c ****   /* Disable the Peripheral */
1642:Drivers/STM32F4xx_HAL_Driver/Src/stm32f4xx_hal_tim_ex.c ****   __HAL_TIM_DISABLE(htim);
ARM GAS  C:\Users\DAELT-~1\AppData\Local\Temp\cc2rhEX6.s 			page 112


 4722              		.loc 1 1642 3 is_stmt 1
 4723 0064 7B68     		ldr	r3, [r7, #4]
 4724 0066 1B68     		ldr	r3, [r3]
 4725 0068 1A6A     		ldr	r2, [r3, #32]
 4726 006a 41F21113 		movw	r3, #4369
 4727 006e 1340     		ands	r3, r3, r2
 4728 0070 002B     		cmp	r3, #0
 4729 0072 0FD1     		bne	.L315
 4730              		.loc 1 1642 3 is_stmt 0 discriminator 1
 4731 0074 7B68     		ldr	r3, [r7, #4]
 4732 0076 1B68     		ldr	r3, [r3]
 4733 0078 1A6A     		ldr	r2, [r3, #32]
 4734 007a 40F24443 		movw	r3, #1092
 4735 007e 1340     		ands	r3, r3, r2
 4736 0080 002B     		cmp	r3, #0
 4737 0082 07D1     		bne	.L315
 4738              		.loc 1 1642 3 discriminator 2
 4739 0084 7B68     		ldr	r3, [r7, #4]
 4740 0086 1B68     		ldr	r3, [r3]
 4741 0088 1A68     		ldr	r2, [r3]
 4742 008a 7B68     		ldr	r3, [r7, #4]
 4743 008c 1B68     		ldr	r3, [r3]
 4744 008e 22F00102 		bic	r2, r2, #1
 4745 0092 1A60     		str	r2, [r3]
 4746              	.L315:
1643:Drivers/STM32F4xx_HAL_Driver/Src/stm32f4xx_hal_tim_ex.c **** 
1644:Drivers/STM32F4xx_HAL_Driver/Src/stm32f4xx_hal_tim_ex.c ****   /* Set the TIM  channels state */
1645:Drivers/STM32F4xx_HAL_Driver/Src/stm32f4xx_hal_tim_ex.c ****   TIM_CHANNEL_STATE_SET(htim, TIM_CHANNEL_1, HAL_TIM_CHANNEL_STATE_READY);
 4747              		.loc 1 1645 3 is_stmt 1
 4748 0094 7B68     		ldr	r3, [r7, #4]
 4749 0096 0122     		movs	r2, #1
 4750 0098 83F83E20 		strb	r2, [r3, #62]
1646:Drivers/STM32F4xx_HAL_Driver/Src/stm32f4xx_hal_tim_ex.c ****   TIM_CHANNEL_STATE_SET(htim, TIM_CHANNEL_2, HAL_TIM_CHANNEL_STATE_READY);
 4751              		.loc 1 1646 3
 4752 009c 7B68     		ldr	r3, [r7, #4]
 4753 009e 0122     		movs	r2, #1
 4754 00a0 83F83F20 		strb	r2, [r3, #63]
1647:Drivers/STM32F4xx_HAL_Driver/Src/stm32f4xx_hal_tim_ex.c ****   TIM_CHANNEL_N_STATE_SET(htim, TIM_CHANNEL_1, HAL_TIM_CHANNEL_STATE_READY);
 4755              		.loc 1 1647 3
 4756 00a4 7B68     		ldr	r3, [r7, #4]
 4757 00a6 0122     		movs	r2, #1
 4758 00a8 83F84220 		strb	r2, [r3, #66]
1648:Drivers/STM32F4xx_HAL_Driver/Src/stm32f4xx_hal_tim_ex.c ****   TIM_CHANNEL_N_STATE_SET(htim, TIM_CHANNEL_2, HAL_TIM_CHANNEL_STATE_READY);
 4759              		.loc 1 1648 3
 4760 00ac 7B68     		ldr	r3, [r7, #4]
 4761 00ae 0122     		movs	r2, #1
 4762 00b0 83F84320 		strb	r2, [r3, #67]
1649:Drivers/STM32F4xx_HAL_Driver/Src/stm32f4xx_hal_tim_ex.c **** 
1650:Drivers/STM32F4xx_HAL_Driver/Src/stm32f4xx_hal_tim_ex.c ****   /* Return function status */
1651:Drivers/STM32F4xx_HAL_Driver/Src/stm32f4xx_hal_tim_ex.c ****   return HAL_OK;
 4763              		.loc 1 1651 10
 4764 00b4 0023     		movs	r3, #0
1652:Drivers/STM32F4xx_HAL_Driver/Src/stm32f4xx_hal_tim_ex.c **** }
 4765              		.loc 1 1652 1
 4766 00b6 1846     		mov	r0, r3
 4767 00b8 1037     		adds	r7, r7, #16
 4768              	.LCFI120:
ARM GAS  C:\Users\DAELT-~1\AppData\Local\Temp\cc2rhEX6.s 			page 113


 4769              		.cfi_def_cfa_offset 8
 4770 00ba BD46     		mov	sp, r7
 4771              	.LCFI121:
 4772              		.cfi_def_cfa_register 13
 4773              		@ sp needed
 4774 00bc 80BD     		pop	{r7, pc}
 4775              		.cfi_endproc
 4776              	.LFE153:
 4778              		.section	.text.HAL_TIMEx_OnePulseN_Start_IT,"ax",%progbits
 4779              		.align	1
 4780              		.global	HAL_TIMEx_OnePulseN_Start_IT
 4781              		.syntax unified
 4782              		.thumb
 4783              		.thumb_func
 4785              	HAL_TIMEx_OnePulseN_Start_IT:
 4786              	.LFB154:
1653:Drivers/STM32F4xx_HAL_Driver/Src/stm32f4xx_hal_tim_ex.c **** 
1654:Drivers/STM32F4xx_HAL_Driver/Src/stm32f4xx_hal_tim_ex.c **** /**
1655:Drivers/STM32F4xx_HAL_Driver/Src/stm32f4xx_hal_tim_ex.c ****   * @brief  Starts the TIM One Pulse signal generation in interrupt mode on the
1656:Drivers/STM32F4xx_HAL_Driver/Src/stm32f4xx_hal_tim_ex.c ****   *         complementary channel.
1657:Drivers/STM32F4xx_HAL_Driver/Src/stm32f4xx_hal_tim_ex.c ****   * @note OutputChannel must match the pulse output channel chosen when calling
1658:Drivers/STM32F4xx_HAL_Driver/Src/stm32f4xx_hal_tim_ex.c ****   *       @ref HAL_TIM_OnePulse_ConfigChannel().
1659:Drivers/STM32F4xx_HAL_Driver/Src/stm32f4xx_hal_tim_ex.c ****   * @param  htim TIM One Pulse handle
1660:Drivers/STM32F4xx_HAL_Driver/Src/stm32f4xx_hal_tim_ex.c ****   * @param  OutputChannel pulse output channel to enable
1661:Drivers/STM32F4xx_HAL_Driver/Src/stm32f4xx_hal_tim_ex.c ****   *          This parameter can be one of the following values:
1662:Drivers/STM32F4xx_HAL_Driver/Src/stm32f4xx_hal_tim_ex.c ****   *            @arg TIM_CHANNEL_1: TIM Channel 1 selected
1663:Drivers/STM32F4xx_HAL_Driver/Src/stm32f4xx_hal_tim_ex.c ****   *            @arg TIM_CHANNEL_2: TIM Channel 2 selected
1664:Drivers/STM32F4xx_HAL_Driver/Src/stm32f4xx_hal_tim_ex.c ****   * @retval HAL status
1665:Drivers/STM32F4xx_HAL_Driver/Src/stm32f4xx_hal_tim_ex.c ****   */
1666:Drivers/STM32F4xx_HAL_Driver/Src/stm32f4xx_hal_tim_ex.c **** HAL_StatusTypeDef HAL_TIMEx_OnePulseN_Start_IT(TIM_HandleTypeDef *htim, uint32_t OutputChannel)
1667:Drivers/STM32F4xx_HAL_Driver/Src/stm32f4xx_hal_tim_ex.c **** {
 4787              		.loc 1 1667 1
 4788              		.cfi_startproc
 4789              		@ args = 0, pretend = 0, frame = 16
 4790              		@ frame_needed = 1, uses_anonymous_args = 0
 4791 0000 80B5     		push	{r7, lr}
 4792              	.LCFI122:
 4793              		.cfi_def_cfa_offset 8
 4794              		.cfi_offset 7, -8
 4795              		.cfi_offset 14, -4
 4796 0002 84B0     		sub	sp, sp, #16
 4797              	.LCFI123:
 4798              		.cfi_def_cfa_offset 24
 4799 0004 00AF     		add	r7, sp, #0
 4800              	.LCFI124:
 4801              		.cfi_def_cfa_register 7
 4802 0006 7860     		str	r0, [r7, #4]
 4803 0008 3960     		str	r1, [r7]
1668:Drivers/STM32F4xx_HAL_Driver/Src/stm32f4xx_hal_tim_ex.c ****   uint32_t input_channel = (OutputChannel == TIM_CHANNEL_1) ? TIM_CHANNEL_2 : TIM_CHANNEL_1;
 4804              		.loc 1 1668 77
 4805 000a 3B68     		ldr	r3, [r7]
 4806 000c 002B     		cmp	r3, #0
 4807 000e 01D1     		bne	.L318
 4808              		.loc 1 1668 77 is_stmt 0 discriminator 1
 4809 0010 0423     		movs	r3, #4
 4810 0012 00E0     		b	.L319
 4811              	.L318:
ARM GAS  C:\Users\DAELT-~1\AppData\Local\Temp\cc2rhEX6.s 			page 114


 4812              		.loc 1 1668 77 discriminator 2
 4813 0014 0023     		movs	r3, #0
 4814              	.L319:
 4815              		.loc 1 1668 12 is_stmt 1 discriminator 4
 4816 0016 FB60     		str	r3, [r7, #12]
1669:Drivers/STM32F4xx_HAL_Driver/Src/stm32f4xx_hal_tim_ex.c ****   HAL_TIM_ChannelStateTypeDef channel_1_state = TIM_CHANNEL_STATE_GET(htim, TIM_CHANNEL_1);
 4817              		.loc 1 1669 31
 4818 0018 7B68     		ldr	r3, [r7, #4]
 4819 001a 93F83E30 		ldrb	r3, [r3, #62]
 4820 001e FB72     		strb	r3, [r7, #11]
1670:Drivers/STM32F4xx_HAL_Driver/Src/stm32f4xx_hal_tim_ex.c ****   HAL_TIM_ChannelStateTypeDef channel_2_state = TIM_CHANNEL_STATE_GET(htim, TIM_CHANNEL_2);
 4821              		.loc 1 1670 31
 4822 0020 7B68     		ldr	r3, [r7, #4]
 4823 0022 93F83F30 		ldrb	r3, [r3, #63]
 4824 0026 BB72     		strb	r3, [r7, #10]
1671:Drivers/STM32F4xx_HAL_Driver/Src/stm32f4xx_hal_tim_ex.c ****   HAL_TIM_ChannelStateTypeDef complementary_channel_1_state = TIM_CHANNEL_N_STATE_GET(htim, TIM_CHA
 4825              		.loc 1 1671 31
 4826 0028 7B68     		ldr	r3, [r7, #4]
 4827 002a 93F84230 		ldrb	r3, [r3, #66]
 4828 002e 7B72     		strb	r3, [r7, #9]
1672:Drivers/STM32F4xx_HAL_Driver/Src/stm32f4xx_hal_tim_ex.c ****   HAL_TIM_ChannelStateTypeDef complementary_channel_2_state = TIM_CHANNEL_N_STATE_GET(htim, TIM_CHA
 4829              		.loc 1 1672 31
 4830 0030 7B68     		ldr	r3, [r7, #4]
 4831 0032 93F84330 		ldrb	r3, [r3, #67]
 4832 0036 3B72     		strb	r3, [r7, #8]
1673:Drivers/STM32F4xx_HAL_Driver/Src/stm32f4xx_hal_tim_ex.c **** 
1674:Drivers/STM32F4xx_HAL_Driver/Src/stm32f4xx_hal_tim_ex.c ****   /* Check the parameters */
1675:Drivers/STM32F4xx_HAL_Driver/Src/stm32f4xx_hal_tim_ex.c ****   assert_param(IS_TIM_CCXN_INSTANCE(htim->Instance, OutputChannel));
1676:Drivers/STM32F4xx_HAL_Driver/Src/stm32f4xx_hal_tim_ex.c **** 
1677:Drivers/STM32F4xx_HAL_Driver/Src/stm32f4xx_hal_tim_ex.c ****   /* Check the TIM channels state */
1678:Drivers/STM32F4xx_HAL_Driver/Src/stm32f4xx_hal_tim_ex.c ****   if ((channel_1_state != HAL_TIM_CHANNEL_STATE_READY)
 4833              		.loc 1 1678 6
 4834 0038 FB7A     		ldrb	r3, [r7, #11]	@ zero_extendqisi2
 4835 003a 012B     		cmp	r3, #1
 4836 003c 08D1     		bne	.L320
1679:Drivers/STM32F4xx_HAL_Driver/Src/stm32f4xx_hal_tim_ex.c ****       || (channel_2_state != HAL_TIM_CHANNEL_STATE_READY)
 4837              		.loc 1 1679 7
 4838 003e BB7A     		ldrb	r3, [r7, #10]	@ zero_extendqisi2
 4839 0040 012B     		cmp	r3, #1
 4840 0042 05D1     		bne	.L320
1680:Drivers/STM32F4xx_HAL_Driver/Src/stm32f4xx_hal_tim_ex.c ****       || (complementary_channel_1_state != HAL_TIM_CHANNEL_STATE_READY)
 4841              		.loc 1 1680 7
 4842 0044 7B7A     		ldrb	r3, [r7, #9]	@ zero_extendqisi2
 4843 0046 012B     		cmp	r3, #1
 4844 0048 02D1     		bne	.L320
1681:Drivers/STM32F4xx_HAL_Driver/Src/stm32f4xx_hal_tim_ex.c ****       || (complementary_channel_2_state != HAL_TIM_CHANNEL_STATE_READY))
 4845              		.loc 1 1681 7
 4846 004a 3B7A     		ldrb	r3, [r7, #8]	@ zero_extendqisi2
 4847 004c 012B     		cmp	r3, #1
 4848 004e 01D0     		beq	.L321
 4849              	.L320:
1682:Drivers/STM32F4xx_HAL_Driver/Src/stm32f4xx_hal_tim_ex.c ****   {
1683:Drivers/STM32F4xx_HAL_Driver/Src/stm32f4xx_hal_tim_ex.c ****     return HAL_ERROR;
 4850              		.loc 1 1683 12
 4851 0050 0123     		movs	r3, #1
 4852 0052 36E0     		b	.L322
 4853              	.L321:
ARM GAS  C:\Users\DAELT-~1\AppData\Local\Temp\cc2rhEX6.s 			page 115


1684:Drivers/STM32F4xx_HAL_Driver/Src/stm32f4xx_hal_tim_ex.c ****   }
1685:Drivers/STM32F4xx_HAL_Driver/Src/stm32f4xx_hal_tim_ex.c **** 
1686:Drivers/STM32F4xx_HAL_Driver/Src/stm32f4xx_hal_tim_ex.c ****   /* Set the TIM channels state */
1687:Drivers/STM32F4xx_HAL_Driver/Src/stm32f4xx_hal_tim_ex.c ****   TIM_CHANNEL_STATE_SET(htim, TIM_CHANNEL_1, HAL_TIM_CHANNEL_STATE_BUSY);
 4854              		.loc 1 1687 3
 4855 0054 7B68     		ldr	r3, [r7, #4]
 4856 0056 0222     		movs	r2, #2
 4857 0058 83F83E20 		strb	r2, [r3, #62]
1688:Drivers/STM32F4xx_HAL_Driver/Src/stm32f4xx_hal_tim_ex.c ****   TIM_CHANNEL_STATE_SET(htim, TIM_CHANNEL_2, HAL_TIM_CHANNEL_STATE_BUSY);
 4858              		.loc 1 1688 3
 4859 005c 7B68     		ldr	r3, [r7, #4]
 4860 005e 0222     		movs	r2, #2
 4861 0060 83F83F20 		strb	r2, [r3, #63]
1689:Drivers/STM32F4xx_HAL_Driver/Src/stm32f4xx_hal_tim_ex.c ****   TIM_CHANNEL_N_STATE_SET(htim, TIM_CHANNEL_1, HAL_TIM_CHANNEL_STATE_BUSY);
 4862              		.loc 1 1689 3
 4863 0064 7B68     		ldr	r3, [r7, #4]
 4864 0066 0222     		movs	r2, #2
 4865 0068 83F84220 		strb	r2, [r3, #66]
1690:Drivers/STM32F4xx_HAL_Driver/Src/stm32f4xx_hal_tim_ex.c ****   TIM_CHANNEL_N_STATE_SET(htim, TIM_CHANNEL_2, HAL_TIM_CHANNEL_STATE_BUSY);
 4866              		.loc 1 1690 3
 4867 006c 7B68     		ldr	r3, [r7, #4]
 4868 006e 0222     		movs	r2, #2
 4869 0070 83F84320 		strb	r2, [r3, #67]
1691:Drivers/STM32F4xx_HAL_Driver/Src/stm32f4xx_hal_tim_ex.c **** 
1692:Drivers/STM32F4xx_HAL_Driver/Src/stm32f4xx_hal_tim_ex.c ****   /* Enable the TIM Capture/Compare 1 interrupt */
1693:Drivers/STM32F4xx_HAL_Driver/Src/stm32f4xx_hal_tim_ex.c ****   __HAL_TIM_ENABLE_IT(htim, TIM_IT_CC1);
 4870              		.loc 1 1693 3
 4871 0074 7B68     		ldr	r3, [r7, #4]
 4872 0076 1B68     		ldr	r3, [r3]
 4873 0078 DA68     		ldr	r2, [r3, #12]
 4874 007a 7B68     		ldr	r3, [r7, #4]
 4875 007c 1B68     		ldr	r3, [r3]
 4876 007e 42F00202 		orr	r2, r2, #2
 4877 0082 DA60     		str	r2, [r3, #12]
1694:Drivers/STM32F4xx_HAL_Driver/Src/stm32f4xx_hal_tim_ex.c **** 
1695:Drivers/STM32F4xx_HAL_Driver/Src/stm32f4xx_hal_tim_ex.c ****   /* Enable the TIM Capture/Compare 2 interrupt */
1696:Drivers/STM32F4xx_HAL_Driver/Src/stm32f4xx_hal_tim_ex.c ****   __HAL_TIM_ENABLE_IT(htim, TIM_IT_CC2);
 4878              		.loc 1 1696 3
 4879 0084 7B68     		ldr	r3, [r7, #4]
 4880 0086 1B68     		ldr	r3, [r3]
 4881 0088 DA68     		ldr	r2, [r3, #12]
 4882 008a 7B68     		ldr	r3, [r7, #4]
 4883 008c 1B68     		ldr	r3, [r3]
 4884 008e 42F00402 		orr	r2, r2, #4
 4885 0092 DA60     		str	r2, [r3, #12]
1697:Drivers/STM32F4xx_HAL_Driver/Src/stm32f4xx_hal_tim_ex.c **** 
1698:Drivers/STM32F4xx_HAL_Driver/Src/stm32f4xx_hal_tim_ex.c ****   /* Enable the complementary One Pulse output channel and the Input Capture channel */
1699:Drivers/STM32F4xx_HAL_Driver/Src/stm32f4xx_hal_tim_ex.c ****   TIM_CCxNChannelCmd(htim->Instance, OutputChannel, TIM_CCxN_ENABLE);
 4886              		.loc 1 1699 3
 4887 0094 7B68     		ldr	r3, [r7, #4]
 4888 0096 1B68     		ldr	r3, [r3]
 4889 0098 0422     		movs	r2, #4
 4890 009a 3968     		ldr	r1, [r7]
 4891 009c 1846     		mov	r0, r3
 4892 009e FFF7FEFF 		bl	TIM_CCxNChannelCmd
1700:Drivers/STM32F4xx_HAL_Driver/Src/stm32f4xx_hal_tim_ex.c ****   TIM_CCxChannelCmd(htim->Instance, input_channel, TIM_CCx_ENABLE);
 4893              		.loc 1 1700 3
ARM GAS  C:\Users\DAELT-~1\AppData\Local\Temp\cc2rhEX6.s 			page 116


 4894 00a2 7B68     		ldr	r3, [r7, #4]
 4895 00a4 1B68     		ldr	r3, [r3]
 4896 00a6 0122     		movs	r2, #1
 4897 00a8 F968     		ldr	r1, [r7, #12]
 4898 00aa 1846     		mov	r0, r3
 4899 00ac FFF7FEFF 		bl	TIM_CCxChannelCmd
1701:Drivers/STM32F4xx_HAL_Driver/Src/stm32f4xx_hal_tim_ex.c **** 
1702:Drivers/STM32F4xx_HAL_Driver/Src/stm32f4xx_hal_tim_ex.c ****   /* Enable the Main Output */
1703:Drivers/STM32F4xx_HAL_Driver/Src/stm32f4xx_hal_tim_ex.c ****   __HAL_TIM_MOE_ENABLE(htim);
 4900              		.loc 1 1703 3
 4901 00b0 7B68     		ldr	r3, [r7, #4]
 4902 00b2 1B68     		ldr	r3, [r3]
 4903 00b4 5A6C     		ldr	r2, [r3, #68]
 4904 00b6 7B68     		ldr	r3, [r7, #4]
 4905 00b8 1B68     		ldr	r3, [r3]
 4906 00ba 42F40042 		orr	r2, r2, #32768
 4907 00be 5A64     		str	r2, [r3, #68]
1704:Drivers/STM32F4xx_HAL_Driver/Src/stm32f4xx_hal_tim_ex.c **** 
1705:Drivers/STM32F4xx_HAL_Driver/Src/stm32f4xx_hal_tim_ex.c ****   /* Return function status */
1706:Drivers/STM32F4xx_HAL_Driver/Src/stm32f4xx_hal_tim_ex.c ****   return HAL_OK;
 4908              		.loc 1 1706 10
 4909 00c0 0023     		movs	r3, #0
 4910              	.L322:
1707:Drivers/STM32F4xx_HAL_Driver/Src/stm32f4xx_hal_tim_ex.c **** }
 4911              		.loc 1 1707 1
 4912 00c2 1846     		mov	r0, r3
 4913 00c4 1037     		adds	r7, r7, #16
 4914              	.LCFI125:
 4915              		.cfi_def_cfa_offset 8
 4916 00c6 BD46     		mov	sp, r7
 4917              	.LCFI126:
 4918              		.cfi_def_cfa_register 13
 4919              		@ sp needed
 4920 00c8 80BD     		pop	{r7, pc}
 4921              		.cfi_endproc
 4922              	.LFE154:
 4924              		.section	.text.HAL_TIMEx_OnePulseN_Stop_IT,"ax",%progbits
 4925              		.align	1
 4926              		.global	HAL_TIMEx_OnePulseN_Stop_IT
 4927              		.syntax unified
 4928              		.thumb
 4929              		.thumb_func
 4931              	HAL_TIMEx_OnePulseN_Stop_IT:
 4932              	.LFB155:
1708:Drivers/STM32F4xx_HAL_Driver/Src/stm32f4xx_hal_tim_ex.c **** 
1709:Drivers/STM32F4xx_HAL_Driver/Src/stm32f4xx_hal_tim_ex.c **** /**
1710:Drivers/STM32F4xx_HAL_Driver/Src/stm32f4xx_hal_tim_ex.c ****   * @brief  Stops the TIM One Pulse signal generation in interrupt mode on the
1711:Drivers/STM32F4xx_HAL_Driver/Src/stm32f4xx_hal_tim_ex.c ****   *         complementary channel.
1712:Drivers/STM32F4xx_HAL_Driver/Src/stm32f4xx_hal_tim_ex.c ****   * @note OutputChannel must match the pulse output channel chosen when calling
1713:Drivers/STM32F4xx_HAL_Driver/Src/stm32f4xx_hal_tim_ex.c ****   *       @ref HAL_TIM_OnePulse_ConfigChannel().
1714:Drivers/STM32F4xx_HAL_Driver/Src/stm32f4xx_hal_tim_ex.c ****   * @param  htim TIM One Pulse handle
1715:Drivers/STM32F4xx_HAL_Driver/Src/stm32f4xx_hal_tim_ex.c ****   * @param  OutputChannel pulse output channel to disable
1716:Drivers/STM32F4xx_HAL_Driver/Src/stm32f4xx_hal_tim_ex.c ****   *          This parameter can be one of the following values:
1717:Drivers/STM32F4xx_HAL_Driver/Src/stm32f4xx_hal_tim_ex.c ****   *            @arg TIM_CHANNEL_1: TIM Channel 1 selected
1718:Drivers/STM32F4xx_HAL_Driver/Src/stm32f4xx_hal_tim_ex.c ****   *            @arg TIM_CHANNEL_2: TIM Channel 2 selected
1719:Drivers/STM32F4xx_HAL_Driver/Src/stm32f4xx_hal_tim_ex.c ****   * @retval HAL status
1720:Drivers/STM32F4xx_HAL_Driver/Src/stm32f4xx_hal_tim_ex.c ****   */
ARM GAS  C:\Users\DAELT-~1\AppData\Local\Temp\cc2rhEX6.s 			page 117


1721:Drivers/STM32F4xx_HAL_Driver/Src/stm32f4xx_hal_tim_ex.c **** HAL_StatusTypeDef HAL_TIMEx_OnePulseN_Stop_IT(TIM_HandleTypeDef *htim, uint32_t OutputChannel)
1722:Drivers/STM32F4xx_HAL_Driver/Src/stm32f4xx_hal_tim_ex.c **** {
 4933              		.loc 1 1722 1
 4934              		.cfi_startproc
 4935              		@ args = 0, pretend = 0, frame = 16
 4936              		@ frame_needed = 1, uses_anonymous_args = 0
 4937 0000 80B5     		push	{r7, lr}
 4938              	.LCFI127:
 4939              		.cfi_def_cfa_offset 8
 4940              		.cfi_offset 7, -8
 4941              		.cfi_offset 14, -4
 4942 0002 84B0     		sub	sp, sp, #16
 4943              	.LCFI128:
 4944              		.cfi_def_cfa_offset 24
 4945 0004 00AF     		add	r7, sp, #0
 4946              	.LCFI129:
 4947              		.cfi_def_cfa_register 7
 4948 0006 7860     		str	r0, [r7, #4]
 4949 0008 3960     		str	r1, [r7]
1723:Drivers/STM32F4xx_HAL_Driver/Src/stm32f4xx_hal_tim_ex.c ****   uint32_t input_channel = (OutputChannel == TIM_CHANNEL_1) ? TIM_CHANNEL_2 : TIM_CHANNEL_1;
 4950              		.loc 1 1723 77
 4951 000a 3B68     		ldr	r3, [r7]
 4952 000c 002B     		cmp	r3, #0
 4953 000e 01D1     		bne	.L324
 4954              		.loc 1 1723 77 is_stmt 0 discriminator 1
 4955 0010 0423     		movs	r3, #4
 4956 0012 00E0     		b	.L325
 4957              	.L324:
 4958              		.loc 1 1723 77 discriminator 2
 4959 0014 0023     		movs	r3, #0
 4960              	.L325:
 4961              		.loc 1 1723 12 is_stmt 1 discriminator 4
 4962 0016 FB60     		str	r3, [r7, #12]
1724:Drivers/STM32F4xx_HAL_Driver/Src/stm32f4xx_hal_tim_ex.c **** 
1725:Drivers/STM32F4xx_HAL_Driver/Src/stm32f4xx_hal_tim_ex.c ****   /* Check the parameters */
1726:Drivers/STM32F4xx_HAL_Driver/Src/stm32f4xx_hal_tim_ex.c ****   assert_param(IS_TIM_CCXN_INSTANCE(htim->Instance, OutputChannel));
1727:Drivers/STM32F4xx_HAL_Driver/Src/stm32f4xx_hal_tim_ex.c **** 
1728:Drivers/STM32F4xx_HAL_Driver/Src/stm32f4xx_hal_tim_ex.c ****   /* Disable the TIM Capture/Compare 1 interrupt */
1729:Drivers/STM32F4xx_HAL_Driver/Src/stm32f4xx_hal_tim_ex.c ****   __HAL_TIM_DISABLE_IT(htim, TIM_IT_CC1);
 4963              		.loc 1 1729 3
 4964 0018 7B68     		ldr	r3, [r7, #4]
 4965 001a 1B68     		ldr	r3, [r3]
 4966 001c DA68     		ldr	r2, [r3, #12]
 4967 001e 7B68     		ldr	r3, [r7, #4]
 4968 0020 1B68     		ldr	r3, [r3]
 4969 0022 22F00202 		bic	r2, r2, #2
 4970 0026 DA60     		str	r2, [r3, #12]
1730:Drivers/STM32F4xx_HAL_Driver/Src/stm32f4xx_hal_tim_ex.c **** 
1731:Drivers/STM32F4xx_HAL_Driver/Src/stm32f4xx_hal_tim_ex.c ****   /* Disable the TIM Capture/Compare 2 interrupt */
1732:Drivers/STM32F4xx_HAL_Driver/Src/stm32f4xx_hal_tim_ex.c ****   __HAL_TIM_DISABLE_IT(htim, TIM_IT_CC2);
 4971              		.loc 1 1732 3
 4972 0028 7B68     		ldr	r3, [r7, #4]
 4973 002a 1B68     		ldr	r3, [r3]
 4974 002c DA68     		ldr	r2, [r3, #12]
 4975 002e 7B68     		ldr	r3, [r7, #4]
 4976 0030 1B68     		ldr	r3, [r3]
 4977 0032 22F00402 		bic	r2, r2, #4
ARM GAS  C:\Users\DAELT-~1\AppData\Local\Temp\cc2rhEX6.s 			page 118


 4978 0036 DA60     		str	r2, [r3, #12]
1733:Drivers/STM32F4xx_HAL_Driver/Src/stm32f4xx_hal_tim_ex.c **** 
1734:Drivers/STM32F4xx_HAL_Driver/Src/stm32f4xx_hal_tim_ex.c ****   /* Disable the complementary One Pulse output channel and the Input Capture channel */
1735:Drivers/STM32F4xx_HAL_Driver/Src/stm32f4xx_hal_tim_ex.c ****   TIM_CCxNChannelCmd(htim->Instance, OutputChannel, TIM_CCxN_DISABLE);
 4979              		.loc 1 1735 3
 4980 0038 7B68     		ldr	r3, [r7, #4]
 4981 003a 1B68     		ldr	r3, [r3]
 4982 003c 0022     		movs	r2, #0
 4983 003e 3968     		ldr	r1, [r7]
 4984 0040 1846     		mov	r0, r3
 4985 0042 FFF7FEFF 		bl	TIM_CCxNChannelCmd
1736:Drivers/STM32F4xx_HAL_Driver/Src/stm32f4xx_hal_tim_ex.c ****   TIM_CCxChannelCmd(htim->Instance, input_channel, TIM_CCx_DISABLE);
 4986              		.loc 1 1736 3
 4987 0046 7B68     		ldr	r3, [r7, #4]
 4988 0048 1B68     		ldr	r3, [r3]
 4989 004a 0022     		movs	r2, #0
 4990 004c F968     		ldr	r1, [r7, #12]
 4991 004e 1846     		mov	r0, r3
 4992 0050 FFF7FEFF 		bl	TIM_CCxChannelCmd
1737:Drivers/STM32F4xx_HAL_Driver/Src/stm32f4xx_hal_tim_ex.c **** 
1738:Drivers/STM32F4xx_HAL_Driver/Src/stm32f4xx_hal_tim_ex.c ****   /* Disable the Main Output */
1739:Drivers/STM32F4xx_HAL_Driver/Src/stm32f4xx_hal_tim_ex.c ****   __HAL_TIM_MOE_DISABLE(htim);
 4993              		.loc 1 1739 3
 4994 0054 7B68     		ldr	r3, [r7, #4]
 4995 0056 1B68     		ldr	r3, [r3]
 4996 0058 1A6A     		ldr	r2, [r3, #32]
 4997 005a 41F21113 		movw	r3, #4369
 4998 005e 1340     		ands	r3, r3, r2
 4999 0060 002B     		cmp	r3, #0
 5000 0062 0FD1     		bne	.L326
 5001              		.loc 1 1739 3 is_stmt 0 discriminator 1
 5002 0064 7B68     		ldr	r3, [r7, #4]
 5003 0066 1B68     		ldr	r3, [r3]
 5004 0068 1A6A     		ldr	r2, [r3, #32]
 5005 006a 40F24443 		movw	r3, #1092
 5006 006e 1340     		ands	r3, r3, r2
 5007 0070 002B     		cmp	r3, #0
 5008 0072 07D1     		bne	.L326
 5009              		.loc 1 1739 3 discriminator 2
 5010 0074 7B68     		ldr	r3, [r7, #4]
 5011 0076 1B68     		ldr	r3, [r3]
 5012 0078 5A6C     		ldr	r2, [r3, #68]
 5013 007a 7B68     		ldr	r3, [r7, #4]
 5014 007c 1B68     		ldr	r3, [r3]
 5015 007e 22F40042 		bic	r2, r2, #32768
 5016 0082 5A64     		str	r2, [r3, #68]
 5017              	.L326:
1740:Drivers/STM32F4xx_HAL_Driver/Src/stm32f4xx_hal_tim_ex.c **** 
1741:Drivers/STM32F4xx_HAL_Driver/Src/stm32f4xx_hal_tim_ex.c ****   /* Disable the Peripheral */
1742:Drivers/STM32F4xx_HAL_Driver/Src/stm32f4xx_hal_tim_ex.c ****   __HAL_TIM_DISABLE(htim);
 5018              		.loc 1 1742 3 is_stmt 1
 5019 0084 7B68     		ldr	r3, [r7, #4]
 5020 0086 1B68     		ldr	r3, [r3]
 5021 0088 1A6A     		ldr	r2, [r3, #32]
 5022 008a 41F21113 		movw	r3, #4369
 5023 008e 1340     		ands	r3, r3, r2
 5024 0090 002B     		cmp	r3, #0
ARM GAS  C:\Users\DAELT-~1\AppData\Local\Temp\cc2rhEX6.s 			page 119


 5025 0092 0FD1     		bne	.L327
 5026              		.loc 1 1742 3 is_stmt 0 discriminator 1
 5027 0094 7B68     		ldr	r3, [r7, #4]
 5028 0096 1B68     		ldr	r3, [r3]
 5029 0098 1A6A     		ldr	r2, [r3, #32]
 5030 009a 40F24443 		movw	r3, #1092
 5031 009e 1340     		ands	r3, r3, r2
 5032 00a0 002B     		cmp	r3, #0
 5033 00a2 07D1     		bne	.L327
 5034              		.loc 1 1742 3 discriminator 2
 5035 00a4 7B68     		ldr	r3, [r7, #4]
 5036 00a6 1B68     		ldr	r3, [r3]
 5037 00a8 1A68     		ldr	r2, [r3]
 5038 00aa 7B68     		ldr	r3, [r7, #4]
 5039 00ac 1B68     		ldr	r3, [r3]
 5040 00ae 22F00102 		bic	r2, r2, #1
 5041 00b2 1A60     		str	r2, [r3]
 5042              	.L327:
1743:Drivers/STM32F4xx_HAL_Driver/Src/stm32f4xx_hal_tim_ex.c **** 
1744:Drivers/STM32F4xx_HAL_Driver/Src/stm32f4xx_hal_tim_ex.c ****   /* Set the TIM  channels state */
1745:Drivers/STM32F4xx_HAL_Driver/Src/stm32f4xx_hal_tim_ex.c ****   TIM_CHANNEL_STATE_SET(htim, TIM_CHANNEL_1, HAL_TIM_CHANNEL_STATE_READY);
 5043              		.loc 1 1745 3 is_stmt 1
 5044 00b4 7B68     		ldr	r3, [r7, #4]
 5045 00b6 0122     		movs	r2, #1
 5046 00b8 83F83E20 		strb	r2, [r3, #62]
1746:Drivers/STM32F4xx_HAL_Driver/Src/stm32f4xx_hal_tim_ex.c ****   TIM_CHANNEL_STATE_SET(htim, TIM_CHANNEL_2, HAL_TIM_CHANNEL_STATE_READY);
 5047              		.loc 1 1746 3
 5048 00bc 7B68     		ldr	r3, [r7, #4]
 5049 00be 0122     		movs	r2, #1
 5050 00c0 83F83F20 		strb	r2, [r3, #63]
1747:Drivers/STM32F4xx_HAL_Driver/Src/stm32f4xx_hal_tim_ex.c ****   TIM_CHANNEL_N_STATE_SET(htim, TIM_CHANNEL_1, HAL_TIM_CHANNEL_STATE_READY);
 5051              		.loc 1 1747 3
 5052 00c4 7B68     		ldr	r3, [r7, #4]
 5053 00c6 0122     		movs	r2, #1
 5054 00c8 83F84220 		strb	r2, [r3, #66]
1748:Drivers/STM32F4xx_HAL_Driver/Src/stm32f4xx_hal_tim_ex.c ****   TIM_CHANNEL_N_STATE_SET(htim, TIM_CHANNEL_2, HAL_TIM_CHANNEL_STATE_READY);
 5055              		.loc 1 1748 3
 5056 00cc 7B68     		ldr	r3, [r7, #4]
 5057 00ce 0122     		movs	r2, #1
 5058 00d0 83F84320 		strb	r2, [r3, #67]
1749:Drivers/STM32F4xx_HAL_Driver/Src/stm32f4xx_hal_tim_ex.c **** 
1750:Drivers/STM32F4xx_HAL_Driver/Src/stm32f4xx_hal_tim_ex.c ****   /* Return function status */
1751:Drivers/STM32F4xx_HAL_Driver/Src/stm32f4xx_hal_tim_ex.c ****   return HAL_OK;
 5059              		.loc 1 1751 10
 5060 00d4 0023     		movs	r3, #0
1752:Drivers/STM32F4xx_HAL_Driver/Src/stm32f4xx_hal_tim_ex.c **** }
 5061              		.loc 1 1752 1
 5062 00d6 1846     		mov	r0, r3
 5063 00d8 1037     		adds	r7, r7, #16
 5064              	.LCFI130:
 5065              		.cfi_def_cfa_offset 8
 5066 00da BD46     		mov	sp, r7
 5067              	.LCFI131:
 5068              		.cfi_def_cfa_register 13
 5069              		@ sp needed
 5070 00dc 80BD     		pop	{r7, pc}
 5071              		.cfi_endproc
ARM GAS  C:\Users\DAELT-~1\AppData\Local\Temp\cc2rhEX6.s 			page 120


 5072              	.LFE155:
 5074              		.section	.text.HAL_TIMEx_ConfigCommutEvent,"ax",%progbits
 5075              		.align	1
 5076              		.global	HAL_TIMEx_ConfigCommutEvent
 5077              		.syntax unified
 5078              		.thumb
 5079              		.thumb_func
 5081              	HAL_TIMEx_ConfigCommutEvent:
 5082              	.LFB156:
1753:Drivers/STM32F4xx_HAL_Driver/Src/stm32f4xx_hal_tim_ex.c **** 
1754:Drivers/STM32F4xx_HAL_Driver/Src/stm32f4xx_hal_tim_ex.c **** /**
1755:Drivers/STM32F4xx_HAL_Driver/Src/stm32f4xx_hal_tim_ex.c ****   * @}
1756:Drivers/STM32F4xx_HAL_Driver/Src/stm32f4xx_hal_tim_ex.c ****   */
1757:Drivers/STM32F4xx_HAL_Driver/Src/stm32f4xx_hal_tim_ex.c **** 
1758:Drivers/STM32F4xx_HAL_Driver/Src/stm32f4xx_hal_tim_ex.c **** /** @defgroup TIMEx_Exported_Functions_Group5 Extended Peripheral Control functions
1759:Drivers/STM32F4xx_HAL_Driver/Src/stm32f4xx_hal_tim_ex.c ****   * @brief    Peripheral Control functions
1760:Drivers/STM32F4xx_HAL_Driver/Src/stm32f4xx_hal_tim_ex.c ****   *
1761:Drivers/STM32F4xx_HAL_Driver/Src/stm32f4xx_hal_tim_ex.c **** @verbatim
1762:Drivers/STM32F4xx_HAL_Driver/Src/stm32f4xx_hal_tim_ex.c ****   ==============================================================================
1763:Drivers/STM32F4xx_HAL_Driver/Src/stm32f4xx_hal_tim_ex.c ****                     ##### Peripheral Control functions #####
1764:Drivers/STM32F4xx_HAL_Driver/Src/stm32f4xx_hal_tim_ex.c ****   ==============================================================================
1765:Drivers/STM32F4xx_HAL_Driver/Src/stm32f4xx_hal_tim_ex.c ****   [..]
1766:Drivers/STM32F4xx_HAL_Driver/Src/stm32f4xx_hal_tim_ex.c ****     This section provides functions allowing to:
1767:Drivers/STM32F4xx_HAL_Driver/Src/stm32f4xx_hal_tim_ex.c ****       (+) Configure the commutation event in case of use of the Hall sensor interface.
1768:Drivers/STM32F4xx_HAL_Driver/Src/stm32f4xx_hal_tim_ex.c ****       (+) Configure Output channels for OC and PWM mode.
1769:Drivers/STM32F4xx_HAL_Driver/Src/stm32f4xx_hal_tim_ex.c **** 
1770:Drivers/STM32F4xx_HAL_Driver/Src/stm32f4xx_hal_tim_ex.c ****       (+) Configure Complementary channels, break features and dead time.
1771:Drivers/STM32F4xx_HAL_Driver/Src/stm32f4xx_hal_tim_ex.c ****       (+) Configure Master synchronization.
1772:Drivers/STM32F4xx_HAL_Driver/Src/stm32f4xx_hal_tim_ex.c ****       (+) Configure timer remapping capabilities.
1773:Drivers/STM32F4xx_HAL_Driver/Src/stm32f4xx_hal_tim_ex.c **** 
1774:Drivers/STM32F4xx_HAL_Driver/Src/stm32f4xx_hal_tim_ex.c **** @endverbatim
1775:Drivers/STM32F4xx_HAL_Driver/Src/stm32f4xx_hal_tim_ex.c ****   * @{
1776:Drivers/STM32F4xx_HAL_Driver/Src/stm32f4xx_hal_tim_ex.c ****   */
1777:Drivers/STM32F4xx_HAL_Driver/Src/stm32f4xx_hal_tim_ex.c **** 
1778:Drivers/STM32F4xx_HAL_Driver/Src/stm32f4xx_hal_tim_ex.c **** /**
1779:Drivers/STM32F4xx_HAL_Driver/Src/stm32f4xx_hal_tim_ex.c ****   * @brief  Configure the TIM commutation event sequence.
1780:Drivers/STM32F4xx_HAL_Driver/Src/stm32f4xx_hal_tim_ex.c ****   * @note  This function is mandatory to use the commutation event in order to
1781:Drivers/STM32F4xx_HAL_Driver/Src/stm32f4xx_hal_tim_ex.c ****   *        update the configuration at each commutation detection on the TRGI input of the Timer,
1782:Drivers/STM32F4xx_HAL_Driver/Src/stm32f4xx_hal_tim_ex.c ****   *        the typical use of this feature is with the use of another Timer(interface Timer)
1783:Drivers/STM32F4xx_HAL_Driver/Src/stm32f4xx_hal_tim_ex.c ****   *        configured in Hall sensor interface, this interface Timer will generate the
1784:Drivers/STM32F4xx_HAL_Driver/Src/stm32f4xx_hal_tim_ex.c ****   *        commutation at its TRGO output (connected to Timer used in this function) each time
1785:Drivers/STM32F4xx_HAL_Driver/Src/stm32f4xx_hal_tim_ex.c ****   *        the TI1 of the Interface Timer detect a commutation at its input TI1.
1786:Drivers/STM32F4xx_HAL_Driver/Src/stm32f4xx_hal_tim_ex.c ****   * @param  htim TIM handle
1787:Drivers/STM32F4xx_HAL_Driver/Src/stm32f4xx_hal_tim_ex.c ****   * @param  InputTrigger the Internal trigger corresponding to the Timer Interfacing with the Hall 
1788:Drivers/STM32F4xx_HAL_Driver/Src/stm32f4xx_hal_tim_ex.c ****   *          This parameter can be one of the following values:
1789:Drivers/STM32F4xx_HAL_Driver/Src/stm32f4xx_hal_tim_ex.c ****   *            @arg TIM_TS_ITR0: Internal trigger 0 selected
1790:Drivers/STM32F4xx_HAL_Driver/Src/stm32f4xx_hal_tim_ex.c ****   *            @arg TIM_TS_ITR1: Internal trigger 1 selected
1791:Drivers/STM32F4xx_HAL_Driver/Src/stm32f4xx_hal_tim_ex.c ****   *            @arg TIM_TS_ITR2: Internal trigger 2 selected
1792:Drivers/STM32F4xx_HAL_Driver/Src/stm32f4xx_hal_tim_ex.c ****   *            @arg TIM_TS_ITR3: Internal trigger 3 selected
1793:Drivers/STM32F4xx_HAL_Driver/Src/stm32f4xx_hal_tim_ex.c ****   *            @arg TIM_TS_NONE: No trigger is needed
1794:Drivers/STM32F4xx_HAL_Driver/Src/stm32f4xx_hal_tim_ex.c ****   * @param  CommutationSource the Commutation Event source
1795:Drivers/STM32F4xx_HAL_Driver/Src/stm32f4xx_hal_tim_ex.c ****   *          This parameter can be one of the following values:
1796:Drivers/STM32F4xx_HAL_Driver/Src/stm32f4xx_hal_tim_ex.c ****   *            @arg TIM_COMMUTATION_TRGI: Commutation source is the TRGI of the Interface Timer
1797:Drivers/STM32F4xx_HAL_Driver/Src/stm32f4xx_hal_tim_ex.c ****   *            @arg TIM_COMMUTATION_SOFTWARE:  Commutation source is set by software using the COMG
1798:Drivers/STM32F4xx_HAL_Driver/Src/stm32f4xx_hal_tim_ex.c ****   * @retval HAL status
1799:Drivers/STM32F4xx_HAL_Driver/Src/stm32f4xx_hal_tim_ex.c ****   */
1800:Drivers/STM32F4xx_HAL_Driver/Src/stm32f4xx_hal_tim_ex.c **** HAL_StatusTypeDef HAL_TIMEx_ConfigCommutEvent(TIM_HandleTypeDef *htim, uint32_t  InputTrigger,
ARM GAS  C:\Users\DAELT-~1\AppData\Local\Temp\cc2rhEX6.s 			page 121


1801:Drivers/STM32F4xx_HAL_Driver/Src/stm32f4xx_hal_tim_ex.c ****                                               uint32_t  CommutationSource)
1802:Drivers/STM32F4xx_HAL_Driver/Src/stm32f4xx_hal_tim_ex.c **** {
 5083              		.loc 1 1802 1
 5084              		.cfi_startproc
 5085              		@ args = 0, pretend = 0, frame = 16
 5086              		@ frame_needed = 1, uses_anonymous_args = 0
 5087              		@ link register save eliminated.
 5088 0000 80B4     		push	{r7}
 5089              	.LCFI132:
 5090              		.cfi_def_cfa_offset 4
 5091              		.cfi_offset 7, -4
 5092 0002 85B0     		sub	sp, sp, #20
 5093              	.LCFI133:
 5094              		.cfi_def_cfa_offset 24
 5095 0004 00AF     		add	r7, sp, #0
 5096              	.LCFI134:
 5097              		.cfi_def_cfa_register 7
 5098 0006 F860     		str	r0, [r7, #12]
 5099 0008 B960     		str	r1, [r7, #8]
 5100 000a 7A60     		str	r2, [r7, #4]
1803:Drivers/STM32F4xx_HAL_Driver/Src/stm32f4xx_hal_tim_ex.c ****   /* Check the parameters */
1804:Drivers/STM32F4xx_HAL_Driver/Src/stm32f4xx_hal_tim_ex.c ****   assert_param(IS_TIM_COMMUTATION_EVENT_INSTANCE(htim->Instance));
1805:Drivers/STM32F4xx_HAL_Driver/Src/stm32f4xx_hal_tim_ex.c ****   assert_param(IS_TIM_INTERNAL_TRIGGEREVENT_SELECTION(InputTrigger));
1806:Drivers/STM32F4xx_HAL_Driver/Src/stm32f4xx_hal_tim_ex.c **** 
1807:Drivers/STM32F4xx_HAL_Driver/Src/stm32f4xx_hal_tim_ex.c ****   __HAL_LOCK(htim);
 5101              		.loc 1 1807 3
 5102 000c FB68     		ldr	r3, [r7, #12]
 5103 000e 93F83C30 		ldrb	r3, [r3, #60]	@ zero_extendqisi2
 5104 0012 012B     		cmp	r3, #1
 5105 0014 01D1     		bne	.L330
 5106              		.loc 1 1807 3 is_stmt 0 discriminator 1
 5107 0016 0223     		movs	r3, #2
 5108              		.loc 1 1807 3
 5109 0018 4CE0     		b	.L331
 5110              	.L330:
 5111              		.loc 1 1807 3 discriminator 2
 5112 001a FB68     		ldr	r3, [r7, #12]
 5113 001c 0122     		movs	r2, #1
 5114 001e 83F83C20 		strb	r2, [r3, #60]
1808:Drivers/STM32F4xx_HAL_Driver/Src/stm32f4xx_hal_tim_ex.c **** 
1809:Drivers/STM32F4xx_HAL_Driver/Src/stm32f4xx_hal_tim_ex.c ****   if ((InputTrigger == TIM_TS_ITR0) || (InputTrigger == TIM_TS_ITR1) ||
 5115              		.loc 1 1809 6 is_stmt 1
 5116 0022 BB68     		ldr	r3, [r7, #8]
 5117 0024 002B     		cmp	r3, #0
 5118 0026 08D0     		beq	.L332
 5119              		.loc 1 1809 37 discriminator 1
 5120 0028 BB68     		ldr	r3, [r7, #8]
 5121 002a 102B     		cmp	r3, #16
 5122 002c 05D0     		beq	.L332
 5123              		.loc 1 1809 70 discriminator 2
 5124 002e BB68     		ldr	r3, [r7, #8]
 5125 0030 202B     		cmp	r3, #32
 5126 0032 02D0     		beq	.L332
1810:Drivers/STM32F4xx_HAL_Driver/Src/stm32f4xx_hal_tim_ex.c ****       (InputTrigger == TIM_TS_ITR2) || (InputTrigger == TIM_TS_ITR3))
 5127              		.loc 1 1810 37
 5128 0034 BB68     		ldr	r3, [r7, #8]
 5129 0036 302B     		cmp	r3, #48
ARM GAS  C:\Users\DAELT-~1\AppData\Local\Temp\cc2rhEX6.s 			page 122


 5130 0038 0FD1     		bne	.L333
 5131              	.L332:
1811:Drivers/STM32F4xx_HAL_Driver/Src/stm32f4xx_hal_tim_ex.c ****   {
1812:Drivers/STM32F4xx_HAL_Driver/Src/stm32f4xx_hal_tim_ex.c ****     /* Select the Input trigger */
1813:Drivers/STM32F4xx_HAL_Driver/Src/stm32f4xx_hal_tim_ex.c ****     htim->Instance->SMCR &= ~TIM_SMCR_TS;
 5132              		.loc 1 1813 9
 5133 003a FB68     		ldr	r3, [r7, #12]
 5134 003c 1B68     		ldr	r3, [r3]
 5135              		.loc 1 1813 19
 5136 003e 9A68     		ldr	r2, [r3, #8]
 5137              		.loc 1 1813 9
 5138 0040 FB68     		ldr	r3, [r7, #12]
 5139 0042 1B68     		ldr	r3, [r3]
 5140              		.loc 1 1813 26
 5141 0044 22F07002 		bic	r2, r2, #112
 5142 0048 9A60     		str	r2, [r3, #8]
1814:Drivers/STM32F4xx_HAL_Driver/Src/stm32f4xx_hal_tim_ex.c ****     htim->Instance->SMCR |= InputTrigger;
 5143              		.loc 1 1814 9
 5144 004a FB68     		ldr	r3, [r7, #12]
 5145 004c 1B68     		ldr	r3, [r3]
 5146              		.loc 1 1814 19
 5147 004e 9968     		ldr	r1, [r3, #8]
 5148              		.loc 1 1814 9
 5149 0050 FB68     		ldr	r3, [r7, #12]
 5150 0052 1B68     		ldr	r3, [r3]
 5151              		.loc 1 1814 26
 5152 0054 BA68     		ldr	r2, [r7, #8]
 5153 0056 0A43     		orrs	r2, r2, r1
 5154 0058 9A60     		str	r2, [r3, #8]
 5155              	.L333:
1815:Drivers/STM32F4xx_HAL_Driver/Src/stm32f4xx_hal_tim_ex.c ****   }
1816:Drivers/STM32F4xx_HAL_Driver/Src/stm32f4xx_hal_tim_ex.c **** 
1817:Drivers/STM32F4xx_HAL_Driver/Src/stm32f4xx_hal_tim_ex.c ****   /* Select the Capture Compare preload feature */
1818:Drivers/STM32F4xx_HAL_Driver/Src/stm32f4xx_hal_tim_ex.c ****   htim->Instance->CR2 |= TIM_CR2_CCPC;
 5156              		.loc 1 1818 7
 5157 005a FB68     		ldr	r3, [r7, #12]
 5158 005c 1B68     		ldr	r3, [r3]
 5159              		.loc 1 1818 17
 5160 005e 5A68     		ldr	r2, [r3, #4]
 5161              		.loc 1 1818 7
 5162 0060 FB68     		ldr	r3, [r7, #12]
 5163 0062 1B68     		ldr	r3, [r3]
 5164              		.loc 1 1818 23
 5165 0064 42F00102 		orr	r2, r2, #1
 5166 0068 5A60     		str	r2, [r3, #4]
1819:Drivers/STM32F4xx_HAL_Driver/Src/stm32f4xx_hal_tim_ex.c ****   /* Select the Commutation event source */
1820:Drivers/STM32F4xx_HAL_Driver/Src/stm32f4xx_hal_tim_ex.c ****   htim->Instance->CR2 &= ~TIM_CR2_CCUS;
 5167              		.loc 1 1820 7
 5168 006a FB68     		ldr	r3, [r7, #12]
 5169 006c 1B68     		ldr	r3, [r3]
 5170              		.loc 1 1820 17
 5171 006e 5A68     		ldr	r2, [r3, #4]
 5172              		.loc 1 1820 7
 5173 0070 FB68     		ldr	r3, [r7, #12]
 5174 0072 1B68     		ldr	r3, [r3]
 5175              		.loc 1 1820 23
 5176 0074 22F00402 		bic	r2, r2, #4
ARM GAS  C:\Users\DAELT-~1\AppData\Local\Temp\cc2rhEX6.s 			page 123


 5177 0078 5A60     		str	r2, [r3, #4]
1821:Drivers/STM32F4xx_HAL_Driver/Src/stm32f4xx_hal_tim_ex.c ****   htim->Instance->CR2 |= CommutationSource;
 5178              		.loc 1 1821 7
 5179 007a FB68     		ldr	r3, [r7, #12]
 5180 007c 1B68     		ldr	r3, [r3]
 5181              		.loc 1 1821 17
 5182 007e 5968     		ldr	r1, [r3, #4]
 5183              		.loc 1 1821 7
 5184 0080 FB68     		ldr	r3, [r7, #12]
 5185 0082 1B68     		ldr	r3, [r3]
 5186              		.loc 1 1821 23
 5187 0084 7A68     		ldr	r2, [r7, #4]
 5188 0086 0A43     		orrs	r2, r2, r1
 5189 0088 5A60     		str	r2, [r3, #4]
1822:Drivers/STM32F4xx_HAL_Driver/Src/stm32f4xx_hal_tim_ex.c **** 
1823:Drivers/STM32F4xx_HAL_Driver/Src/stm32f4xx_hal_tim_ex.c ****   /* Disable Commutation Interrupt */
1824:Drivers/STM32F4xx_HAL_Driver/Src/stm32f4xx_hal_tim_ex.c ****   __HAL_TIM_DISABLE_IT(htim, TIM_IT_COM);
 5190              		.loc 1 1824 3
 5191 008a FB68     		ldr	r3, [r7, #12]
 5192 008c 1B68     		ldr	r3, [r3]
 5193 008e DA68     		ldr	r2, [r3, #12]
 5194 0090 FB68     		ldr	r3, [r7, #12]
 5195 0092 1B68     		ldr	r3, [r3]
 5196 0094 22F02002 		bic	r2, r2, #32
 5197 0098 DA60     		str	r2, [r3, #12]
1825:Drivers/STM32F4xx_HAL_Driver/Src/stm32f4xx_hal_tim_ex.c **** 
1826:Drivers/STM32F4xx_HAL_Driver/Src/stm32f4xx_hal_tim_ex.c ****   /* Disable Commutation DMA request */
1827:Drivers/STM32F4xx_HAL_Driver/Src/stm32f4xx_hal_tim_ex.c ****   __HAL_TIM_DISABLE_DMA(htim, TIM_DMA_COM);
 5198              		.loc 1 1827 3
 5199 009a FB68     		ldr	r3, [r7, #12]
 5200 009c 1B68     		ldr	r3, [r3]
 5201 009e DA68     		ldr	r2, [r3, #12]
 5202 00a0 FB68     		ldr	r3, [r7, #12]
 5203 00a2 1B68     		ldr	r3, [r3]
 5204 00a4 22F40052 		bic	r2, r2, #8192
 5205 00a8 DA60     		str	r2, [r3, #12]
1828:Drivers/STM32F4xx_HAL_Driver/Src/stm32f4xx_hal_tim_ex.c **** 
1829:Drivers/STM32F4xx_HAL_Driver/Src/stm32f4xx_hal_tim_ex.c ****   __HAL_UNLOCK(htim);
 5206              		.loc 1 1829 3
 5207 00aa FB68     		ldr	r3, [r7, #12]
 5208 00ac 0022     		movs	r2, #0
 5209 00ae 83F83C20 		strb	r2, [r3, #60]
1830:Drivers/STM32F4xx_HAL_Driver/Src/stm32f4xx_hal_tim_ex.c **** 
1831:Drivers/STM32F4xx_HAL_Driver/Src/stm32f4xx_hal_tim_ex.c ****   return HAL_OK;
 5210              		.loc 1 1831 10
 5211 00b2 0023     		movs	r3, #0
 5212              	.L331:
1832:Drivers/STM32F4xx_HAL_Driver/Src/stm32f4xx_hal_tim_ex.c **** }
 5213              		.loc 1 1832 1
 5214 00b4 1846     		mov	r0, r3
 5215 00b6 1437     		adds	r7, r7, #20
 5216              	.LCFI135:
 5217              		.cfi_def_cfa_offset 4
 5218 00b8 BD46     		mov	sp, r7
 5219              	.LCFI136:
 5220              		.cfi_def_cfa_register 13
 5221              		@ sp needed
ARM GAS  C:\Users\DAELT-~1\AppData\Local\Temp\cc2rhEX6.s 			page 124


 5222 00ba 5DF8047B 		ldr	r7, [sp], #4
 5223              	.LCFI137:
 5224              		.cfi_restore 7
 5225              		.cfi_def_cfa_offset 0
 5226 00be 7047     		bx	lr
 5227              		.cfi_endproc
 5228              	.LFE156:
 5230              		.section	.text.HAL_TIMEx_ConfigCommutEvent_IT,"ax",%progbits
 5231              		.align	1
 5232              		.global	HAL_TIMEx_ConfigCommutEvent_IT
 5233              		.syntax unified
 5234              		.thumb
 5235              		.thumb_func
 5237              	HAL_TIMEx_ConfigCommutEvent_IT:
 5238              	.LFB157:
1833:Drivers/STM32F4xx_HAL_Driver/Src/stm32f4xx_hal_tim_ex.c **** 
1834:Drivers/STM32F4xx_HAL_Driver/Src/stm32f4xx_hal_tim_ex.c **** /**
1835:Drivers/STM32F4xx_HAL_Driver/Src/stm32f4xx_hal_tim_ex.c ****   * @brief  Configure the TIM commutation event sequence with interrupt.
1836:Drivers/STM32F4xx_HAL_Driver/Src/stm32f4xx_hal_tim_ex.c ****   * @note  This function is mandatory to use the commutation event in order to
1837:Drivers/STM32F4xx_HAL_Driver/Src/stm32f4xx_hal_tim_ex.c ****   *        update the configuration at each commutation detection on the TRGI input of the Timer,
1838:Drivers/STM32F4xx_HAL_Driver/Src/stm32f4xx_hal_tim_ex.c ****   *        the typical use of this feature is with the use of another Timer(interface Timer)
1839:Drivers/STM32F4xx_HAL_Driver/Src/stm32f4xx_hal_tim_ex.c ****   *        configured in Hall sensor interface, this interface Timer will generate the
1840:Drivers/STM32F4xx_HAL_Driver/Src/stm32f4xx_hal_tim_ex.c ****   *        commutation at its TRGO output (connected to Timer used in this function) each time
1841:Drivers/STM32F4xx_HAL_Driver/Src/stm32f4xx_hal_tim_ex.c ****   *        the TI1 of the Interface Timer detect a commutation at its input TI1.
1842:Drivers/STM32F4xx_HAL_Driver/Src/stm32f4xx_hal_tim_ex.c ****   * @param  htim TIM handle
1843:Drivers/STM32F4xx_HAL_Driver/Src/stm32f4xx_hal_tim_ex.c ****   * @param  InputTrigger the Internal trigger corresponding to the Timer Interfacing with the Hall 
1844:Drivers/STM32F4xx_HAL_Driver/Src/stm32f4xx_hal_tim_ex.c ****   *          This parameter can be one of the following values:
1845:Drivers/STM32F4xx_HAL_Driver/Src/stm32f4xx_hal_tim_ex.c ****   *            @arg TIM_TS_ITR0: Internal trigger 0 selected
1846:Drivers/STM32F4xx_HAL_Driver/Src/stm32f4xx_hal_tim_ex.c ****   *            @arg TIM_TS_ITR1: Internal trigger 1 selected
1847:Drivers/STM32F4xx_HAL_Driver/Src/stm32f4xx_hal_tim_ex.c ****   *            @arg TIM_TS_ITR2: Internal trigger 2 selected
1848:Drivers/STM32F4xx_HAL_Driver/Src/stm32f4xx_hal_tim_ex.c ****   *            @arg TIM_TS_ITR3: Internal trigger 3 selected
1849:Drivers/STM32F4xx_HAL_Driver/Src/stm32f4xx_hal_tim_ex.c ****   *            @arg TIM_TS_NONE: No trigger is needed
1850:Drivers/STM32F4xx_HAL_Driver/Src/stm32f4xx_hal_tim_ex.c ****   * @param  CommutationSource the Commutation Event source
1851:Drivers/STM32F4xx_HAL_Driver/Src/stm32f4xx_hal_tim_ex.c ****   *          This parameter can be one of the following values:
1852:Drivers/STM32F4xx_HAL_Driver/Src/stm32f4xx_hal_tim_ex.c ****   *            @arg TIM_COMMUTATION_TRGI: Commutation source is the TRGI of the Interface Timer
1853:Drivers/STM32F4xx_HAL_Driver/Src/stm32f4xx_hal_tim_ex.c ****   *            @arg TIM_COMMUTATION_SOFTWARE:  Commutation source is set by software using the COMG
1854:Drivers/STM32F4xx_HAL_Driver/Src/stm32f4xx_hal_tim_ex.c ****   * @retval HAL status
1855:Drivers/STM32F4xx_HAL_Driver/Src/stm32f4xx_hal_tim_ex.c ****   */
1856:Drivers/STM32F4xx_HAL_Driver/Src/stm32f4xx_hal_tim_ex.c **** HAL_StatusTypeDef HAL_TIMEx_ConfigCommutEvent_IT(TIM_HandleTypeDef *htim, uint32_t  InputTrigger,
1857:Drivers/STM32F4xx_HAL_Driver/Src/stm32f4xx_hal_tim_ex.c ****                                                  uint32_t  CommutationSource)
1858:Drivers/STM32F4xx_HAL_Driver/Src/stm32f4xx_hal_tim_ex.c **** {
 5239              		.loc 1 1858 1
 5240              		.cfi_startproc
 5241              		@ args = 0, pretend = 0, frame = 16
 5242              		@ frame_needed = 1, uses_anonymous_args = 0
 5243              		@ link register save eliminated.
 5244 0000 80B4     		push	{r7}
 5245              	.LCFI138:
 5246              		.cfi_def_cfa_offset 4
 5247              		.cfi_offset 7, -4
 5248 0002 85B0     		sub	sp, sp, #20
 5249              	.LCFI139:
 5250              		.cfi_def_cfa_offset 24
 5251 0004 00AF     		add	r7, sp, #0
 5252              	.LCFI140:
 5253              		.cfi_def_cfa_register 7
 5254 0006 F860     		str	r0, [r7, #12]
ARM GAS  C:\Users\DAELT-~1\AppData\Local\Temp\cc2rhEX6.s 			page 125


 5255 0008 B960     		str	r1, [r7, #8]
 5256 000a 7A60     		str	r2, [r7, #4]
1859:Drivers/STM32F4xx_HAL_Driver/Src/stm32f4xx_hal_tim_ex.c ****   /* Check the parameters */
1860:Drivers/STM32F4xx_HAL_Driver/Src/stm32f4xx_hal_tim_ex.c ****   assert_param(IS_TIM_COMMUTATION_EVENT_INSTANCE(htim->Instance));
1861:Drivers/STM32F4xx_HAL_Driver/Src/stm32f4xx_hal_tim_ex.c ****   assert_param(IS_TIM_INTERNAL_TRIGGEREVENT_SELECTION(InputTrigger));
1862:Drivers/STM32F4xx_HAL_Driver/Src/stm32f4xx_hal_tim_ex.c **** 
1863:Drivers/STM32F4xx_HAL_Driver/Src/stm32f4xx_hal_tim_ex.c ****   __HAL_LOCK(htim);
 5257              		.loc 1 1863 3
 5258 000c FB68     		ldr	r3, [r7, #12]
 5259 000e 93F83C30 		ldrb	r3, [r3, #60]	@ zero_extendqisi2
 5260 0012 012B     		cmp	r3, #1
 5261 0014 01D1     		bne	.L335
 5262              		.loc 1 1863 3 is_stmt 0 discriminator 1
 5263 0016 0223     		movs	r3, #2
 5264              		.loc 1 1863 3
 5265 0018 4CE0     		b	.L336
 5266              	.L335:
 5267              		.loc 1 1863 3 discriminator 2
 5268 001a FB68     		ldr	r3, [r7, #12]
 5269 001c 0122     		movs	r2, #1
 5270 001e 83F83C20 		strb	r2, [r3, #60]
1864:Drivers/STM32F4xx_HAL_Driver/Src/stm32f4xx_hal_tim_ex.c **** 
1865:Drivers/STM32F4xx_HAL_Driver/Src/stm32f4xx_hal_tim_ex.c ****   if ((InputTrigger == TIM_TS_ITR0) || (InputTrigger == TIM_TS_ITR1) ||
 5271              		.loc 1 1865 6 is_stmt 1
 5272 0022 BB68     		ldr	r3, [r7, #8]
 5273 0024 002B     		cmp	r3, #0
 5274 0026 08D0     		beq	.L337
 5275              		.loc 1 1865 37 discriminator 1
 5276 0028 BB68     		ldr	r3, [r7, #8]
 5277 002a 102B     		cmp	r3, #16
 5278 002c 05D0     		beq	.L337
 5279              		.loc 1 1865 70 discriminator 2
 5280 002e BB68     		ldr	r3, [r7, #8]
 5281 0030 202B     		cmp	r3, #32
 5282 0032 02D0     		beq	.L337
1866:Drivers/STM32F4xx_HAL_Driver/Src/stm32f4xx_hal_tim_ex.c ****       (InputTrigger == TIM_TS_ITR2) || (InputTrigger == TIM_TS_ITR3))
 5283              		.loc 1 1866 37
 5284 0034 BB68     		ldr	r3, [r7, #8]
 5285 0036 302B     		cmp	r3, #48
 5286 0038 0FD1     		bne	.L338
 5287              	.L337:
1867:Drivers/STM32F4xx_HAL_Driver/Src/stm32f4xx_hal_tim_ex.c ****   {
1868:Drivers/STM32F4xx_HAL_Driver/Src/stm32f4xx_hal_tim_ex.c ****     /* Select the Input trigger */
1869:Drivers/STM32F4xx_HAL_Driver/Src/stm32f4xx_hal_tim_ex.c ****     htim->Instance->SMCR &= ~TIM_SMCR_TS;
 5288              		.loc 1 1869 9
 5289 003a FB68     		ldr	r3, [r7, #12]
 5290 003c 1B68     		ldr	r3, [r3]
 5291              		.loc 1 1869 19
 5292 003e 9A68     		ldr	r2, [r3, #8]
 5293              		.loc 1 1869 9
 5294 0040 FB68     		ldr	r3, [r7, #12]
 5295 0042 1B68     		ldr	r3, [r3]
 5296              		.loc 1 1869 26
 5297 0044 22F07002 		bic	r2, r2, #112
 5298 0048 9A60     		str	r2, [r3, #8]
1870:Drivers/STM32F4xx_HAL_Driver/Src/stm32f4xx_hal_tim_ex.c ****     htim->Instance->SMCR |= InputTrigger;
 5299              		.loc 1 1870 9
ARM GAS  C:\Users\DAELT-~1\AppData\Local\Temp\cc2rhEX6.s 			page 126


 5300 004a FB68     		ldr	r3, [r7, #12]
 5301 004c 1B68     		ldr	r3, [r3]
 5302              		.loc 1 1870 19
 5303 004e 9968     		ldr	r1, [r3, #8]
 5304              		.loc 1 1870 9
 5305 0050 FB68     		ldr	r3, [r7, #12]
 5306 0052 1B68     		ldr	r3, [r3]
 5307              		.loc 1 1870 26
 5308 0054 BA68     		ldr	r2, [r7, #8]
 5309 0056 0A43     		orrs	r2, r2, r1
 5310 0058 9A60     		str	r2, [r3, #8]
 5311              	.L338:
1871:Drivers/STM32F4xx_HAL_Driver/Src/stm32f4xx_hal_tim_ex.c ****   }
1872:Drivers/STM32F4xx_HAL_Driver/Src/stm32f4xx_hal_tim_ex.c **** 
1873:Drivers/STM32F4xx_HAL_Driver/Src/stm32f4xx_hal_tim_ex.c ****   /* Select the Capture Compare preload feature */
1874:Drivers/STM32F4xx_HAL_Driver/Src/stm32f4xx_hal_tim_ex.c ****   htim->Instance->CR2 |= TIM_CR2_CCPC;
 5312              		.loc 1 1874 7
 5313 005a FB68     		ldr	r3, [r7, #12]
 5314 005c 1B68     		ldr	r3, [r3]
 5315              		.loc 1 1874 17
 5316 005e 5A68     		ldr	r2, [r3, #4]
 5317              		.loc 1 1874 7
 5318 0060 FB68     		ldr	r3, [r7, #12]
 5319 0062 1B68     		ldr	r3, [r3]
 5320              		.loc 1 1874 23
 5321 0064 42F00102 		orr	r2, r2, #1
 5322 0068 5A60     		str	r2, [r3, #4]
1875:Drivers/STM32F4xx_HAL_Driver/Src/stm32f4xx_hal_tim_ex.c ****   /* Select the Commutation event source */
1876:Drivers/STM32F4xx_HAL_Driver/Src/stm32f4xx_hal_tim_ex.c ****   htim->Instance->CR2 &= ~TIM_CR2_CCUS;
 5323              		.loc 1 1876 7
 5324 006a FB68     		ldr	r3, [r7, #12]
 5325 006c 1B68     		ldr	r3, [r3]
 5326              		.loc 1 1876 17
 5327 006e 5A68     		ldr	r2, [r3, #4]
 5328              		.loc 1 1876 7
 5329 0070 FB68     		ldr	r3, [r7, #12]
 5330 0072 1B68     		ldr	r3, [r3]
 5331              		.loc 1 1876 23
 5332 0074 22F00402 		bic	r2, r2, #4
 5333 0078 5A60     		str	r2, [r3, #4]
1877:Drivers/STM32F4xx_HAL_Driver/Src/stm32f4xx_hal_tim_ex.c ****   htim->Instance->CR2 |= CommutationSource;
 5334              		.loc 1 1877 7
 5335 007a FB68     		ldr	r3, [r7, #12]
 5336 007c 1B68     		ldr	r3, [r3]
 5337              		.loc 1 1877 17
 5338 007e 5968     		ldr	r1, [r3, #4]
 5339              		.loc 1 1877 7
 5340 0080 FB68     		ldr	r3, [r7, #12]
 5341 0082 1B68     		ldr	r3, [r3]
 5342              		.loc 1 1877 23
 5343 0084 7A68     		ldr	r2, [r7, #4]
 5344 0086 0A43     		orrs	r2, r2, r1
 5345 0088 5A60     		str	r2, [r3, #4]
1878:Drivers/STM32F4xx_HAL_Driver/Src/stm32f4xx_hal_tim_ex.c **** 
1879:Drivers/STM32F4xx_HAL_Driver/Src/stm32f4xx_hal_tim_ex.c ****   /* Disable Commutation DMA request */
1880:Drivers/STM32F4xx_HAL_Driver/Src/stm32f4xx_hal_tim_ex.c ****   __HAL_TIM_DISABLE_DMA(htim, TIM_DMA_COM);
 5346              		.loc 1 1880 3
ARM GAS  C:\Users\DAELT-~1\AppData\Local\Temp\cc2rhEX6.s 			page 127


 5347 008a FB68     		ldr	r3, [r7, #12]
 5348 008c 1B68     		ldr	r3, [r3]
 5349 008e DA68     		ldr	r2, [r3, #12]
 5350 0090 FB68     		ldr	r3, [r7, #12]
 5351 0092 1B68     		ldr	r3, [r3]
 5352 0094 22F40052 		bic	r2, r2, #8192
 5353 0098 DA60     		str	r2, [r3, #12]
1881:Drivers/STM32F4xx_HAL_Driver/Src/stm32f4xx_hal_tim_ex.c **** 
1882:Drivers/STM32F4xx_HAL_Driver/Src/stm32f4xx_hal_tim_ex.c ****   /* Enable the Commutation Interrupt */
1883:Drivers/STM32F4xx_HAL_Driver/Src/stm32f4xx_hal_tim_ex.c ****   __HAL_TIM_ENABLE_IT(htim, TIM_IT_COM);
 5354              		.loc 1 1883 3
 5355 009a FB68     		ldr	r3, [r7, #12]
 5356 009c 1B68     		ldr	r3, [r3]
 5357 009e DA68     		ldr	r2, [r3, #12]
 5358 00a0 FB68     		ldr	r3, [r7, #12]
 5359 00a2 1B68     		ldr	r3, [r3]
 5360 00a4 42F02002 		orr	r2, r2, #32
 5361 00a8 DA60     		str	r2, [r3, #12]
1884:Drivers/STM32F4xx_HAL_Driver/Src/stm32f4xx_hal_tim_ex.c **** 
1885:Drivers/STM32F4xx_HAL_Driver/Src/stm32f4xx_hal_tim_ex.c ****   __HAL_UNLOCK(htim);
 5362              		.loc 1 1885 3
 5363 00aa FB68     		ldr	r3, [r7, #12]
 5364 00ac 0022     		movs	r2, #0
 5365 00ae 83F83C20 		strb	r2, [r3, #60]
1886:Drivers/STM32F4xx_HAL_Driver/Src/stm32f4xx_hal_tim_ex.c **** 
1887:Drivers/STM32F4xx_HAL_Driver/Src/stm32f4xx_hal_tim_ex.c ****   return HAL_OK;
 5366              		.loc 1 1887 10
 5367 00b2 0023     		movs	r3, #0
 5368              	.L336:
1888:Drivers/STM32F4xx_HAL_Driver/Src/stm32f4xx_hal_tim_ex.c **** }
 5369              		.loc 1 1888 1
 5370 00b4 1846     		mov	r0, r3
 5371 00b6 1437     		adds	r7, r7, #20
 5372              	.LCFI141:
 5373              		.cfi_def_cfa_offset 4
 5374 00b8 BD46     		mov	sp, r7
 5375              	.LCFI142:
 5376              		.cfi_def_cfa_register 13
 5377              		@ sp needed
 5378 00ba 5DF8047B 		ldr	r7, [sp], #4
 5379              	.LCFI143:
 5380              		.cfi_restore 7
 5381              		.cfi_def_cfa_offset 0
 5382 00be 7047     		bx	lr
 5383              		.cfi_endproc
 5384              	.LFE157:
 5386              		.section	.text.HAL_TIMEx_ConfigCommutEvent_DMA,"ax",%progbits
 5387              		.align	1
 5388              		.global	HAL_TIMEx_ConfigCommutEvent_DMA
 5389              		.syntax unified
 5390              		.thumb
 5391              		.thumb_func
 5393              	HAL_TIMEx_ConfigCommutEvent_DMA:
 5394              	.LFB158:
1889:Drivers/STM32F4xx_HAL_Driver/Src/stm32f4xx_hal_tim_ex.c **** 
1890:Drivers/STM32F4xx_HAL_Driver/Src/stm32f4xx_hal_tim_ex.c **** /**
1891:Drivers/STM32F4xx_HAL_Driver/Src/stm32f4xx_hal_tim_ex.c ****   * @brief  Configure the TIM commutation event sequence with DMA.
ARM GAS  C:\Users\DAELT-~1\AppData\Local\Temp\cc2rhEX6.s 			page 128


1892:Drivers/STM32F4xx_HAL_Driver/Src/stm32f4xx_hal_tim_ex.c ****   * @note  This function is mandatory to use the commutation event in order to
1893:Drivers/STM32F4xx_HAL_Driver/Src/stm32f4xx_hal_tim_ex.c ****   *        update the configuration at each commutation detection on the TRGI input of the Timer,
1894:Drivers/STM32F4xx_HAL_Driver/Src/stm32f4xx_hal_tim_ex.c ****   *        the typical use of this feature is with the use of another Timer(interface Timer)
1895:Drivers/STM32F4xx_HAL_Driver/Src/stm32f4xx_hal_tim_ex.c ****   *        configured in Hall sensor interface, this interface Timer will generate the
1896:Drivers/STM32F4xx_HAL_Driver/Src/stm32f4xx_hal_tim_ex.c ****   *        commutation at its TRGO output (connected to Timer used in this function) each time
1897:Drivers/STM32F4xx_HAL_Driver/Src/stm32f4xx_hal_tim_ex.c ****   *        the TI1 of the Interface Timer detect a commutation at its input TI1.
1898:Drivers/STM32F4xx_HAL_Driver/Src/stm32f4xx_hal_tim_ex.c ****   * @note  The user should configure the DMA in his own software, in This function only the COMDE b
1899:Drivers/STM32F4xx_HAL_Driver/Src/stm32f4xx_hal_tim_ex.c ****   * @param  htim TIM handle
1900:Drivers/STM32F4xx_HAL_Driver/Src/stm32f4xx_hal_tim_ex.c ****   * @param  InputTrigger the Internal trigger corresponding to the Timer Interfacing with the Hall 
1901:Drivers/STM32F4xx_HAL_Driver/Src/stm32f4xx_hal_tim_ex.c ****   *          This parameter can be one of the following values:
1902:Drivers/STM32F4xx_HAL_Driver/Src/stm32f4xx_hal_tim_ex.c ****   *            @arg TIM_TS_ITR0: Internal trigger 0 selected
1903:Drivers/STM32F4xx_HAL_Driver/Src/stm32f4xx_hal_tim_ex.c ****   *            @arg TIM_TS_ITR1: Internal trigger 1 selected
1904:Drivers/STM32F4xx_HAL_Driver/Src/stm32f4xx_hal_tim_ex.c ****   *            @arg TIM_TS_ITR2: Internal trigger 2 selected
1905:Drivers/STM32F4xx_HAL_Driver/Src/stm32f4xx_hal_tim_ex.c ****   *            @arg TIM_TS_ITR3: Internal trigger 3 selected
1906:Drivers/STM32F4xx_HAL_Driver/Src/stm32f4xx_hal_tim_ex.c ****   *            @arg TIM_TS_NONE: No trigger is needed
1907:Drivers/STM32F4xx_HAL_Driver/Src/stm32f4xx_hal_tim_ex.c ****   * @param  CommutationSource the Commutation Event source
1908:Drivers/STM32F4xx_HAL_Driver/Src/stm32f4xx_hal_tim_ex.c ****   *          This parameter can be one of the following values:
1909:Drivers/STM32F4xx_HAL_Driver/Src/stm32f4xx_hal_tim_ex.c ****   *            @arg TIM_COMMUTATION_TRGI: Commutation source is the TRGI of the Interface Timer
1910:Drivers/STM32F4xx_HAL_Driver/Src/stm32f4xx_hal_tim_ex.c ****   *            @arg TIM_COMMUTATION_SOFTWARE:  Commutation source is set by software using the COMG
1911:Drivers/STM32F4xx_HAL_Driver/Src/stm32f4xx_hal_tim_ex.c ****   * @retval HAL status
1912:Drivers/STM32F4xx_HAL_Driver/Src/stm32f4xx_hal_tim_ex.c ****   */
1913:Drivers/STM32F4xx_HAL_Driver/Src/stm32f4xx_hal_tim_ex.c **** HAL_StatusTypeDef HAL_TIMEx_ConfigCommutEvent_DMA(TIM_HandleTypeDef *htim, uint32_t  InputTrigger,
1914:Drivers/STM32F4xx_HAL_Driver/Src/stm32f4xx_hal_tim_ex.c ****                                                   uint32_t  CommutationSource)
1915:Drivers/STM32F4xx_HAL_Driver/Src/stm32f4xx_hal_tim_ex.c **** {
 5395              		.loc 1 1915 1
 5396              		.cfi_startproc
 5397              		@ args = 0, pretend = 0, frame = 16
 5398              		@ frame_needed = 1, uses_anonymous_args = 0
 5399              		@ link register save eliminated.
 5400 0000 80B4     		push	{r7}
 5401              	.LCFI144:
 5402              		.cfi_def_cfa_offset 4
 5403              		.cfi_offset 7, -4
 5404 0002 85B0     		sub	sp, sp, #20
 5405              	.LCFI145:
 5406              		.cfi_def_cfa_offset 24
 5407 0004 00AF     		add	r7, sp, #0
 5408              	.LCFI146:
 5409              		.cfi_def_cfa_register 7
 5410 0006 F860     		str	r0, [r7, #12]
 5411 0008 B960     		str	r1, [r7, #8]
 5412 000a 7A60     		str	r2, [r7, #4]
1916:Drivers/STM32F4xx_HAL_Driver/Src/stm32f4xx_hal_tim_ex.c ****   /* Check the parameters */
1917:Drivers/STM32F4xx_HAL_Driver/Src/stm32f4xx_hal_tim_ex.c ****   assert_param(IS_TIM_COMMUTATION_EVENT_INSTANCE(htim->Instance));
1918:Drivers/STM32F4xx_HAL_Driver/Src/stm32f4xx_hal_tim_ex.c ****   assert_param(IS_TIM_INTERNAL_TRIGGEREVENT_SELECTION(InputTrigger));
1919:Drivers/STM32F4xx_HAL_Driver/Src/stm32f4xx_hal_tim_ex.c **** 
1920:Drivers/STM32F4xx_HAL_Driver/Src/stm32f4xx_hal_tim_ex.c ****   __HAL_LOCK(htim);
 5413              		.loc 1 1920 3
 5414 000c FB68     		ldr	r3, [r7, #12]
 5415 000e 93F83C30 		ldrb	r3, [r3, #60]	@ zero_extendqisi2
 5416 0012 012B     		cmp	r3, #1
 5417 0014 01D1     		bne	.L340
 5418              		.loc 1 1920 3 is_stmt 0 discriminator 1
 5419 0016 0223     		movs	r3, #2
 5420              		.loc 1 1920 3
 5421 0018 58E0     		b	.L341
 5422              	.L340:
ARM GAS  C:\Users\DAELT-~1\AppData\Local\Temp\cc2rhEX6.s 			page 129


 5423              		.loc 1 1920 3 discriminator 2
 5424 001a FB68     		ldr	r3, [r7, #12]
 5425 001c 0122     		movs	r2, #1
 5426 001e 83F83C20 		strb	r2, [r3, #60]
1921:Drivers/STM32F4xx_HAL_Driver/Src/stm32f4xx_hal_tim_ex.c **** 
1922:Drivers/STM32F4xx_HAL_Driver/Src/stm32f4xx_hal_tim_ex.c ****   if ((InputTrigger == TIM_TS_ITR0) || (InputTrigger == TIM_TS_ITR1) ||
 5427              		.loc 1 1922 6 is_stmt 1
 5428 0022 BB68     		ldr	r3, [r7, #8]
 5429 0024 002B     		cmp	r3, #0
 5430 0026 08D0     		beq	.L342
 5431              		.loc 1 1922 37 discriminator 1
 5432 0028 BB68     		ldr	r3, [r7, #8]
 5433 002a 102B     		cmp	r3, #16
 5434 002c 05D0     		beq	.L342
 5435              		.loc 1 1922 70 discriminator 2
 5436 002e BB68     		ldr	r3, [r7, #8]
 5437 0030 202B     		cmp	r3, #32
 5438 0032 02D0     		beq	.L342
1923:Drivers/STM32F4xx_HAL_Driver/Src/stm32f4xx_hal_tim_ex.c ****       (InputTrigger == TIM_TS_ITR2) || (InputTrigger == TIM_TS_ITR3))
 5439              		.loc 1 1923 37
 5440 0034 BB68     		ldr	r3, [r7, #8]
 5441 0036 302B     		cmp	r3, #48
 5442 0038 0FD1     		bne	.L343
 5443              	.L342:
1924:Drivers/STM32F4xx_HAL_Driver/Src/stm32f4xx_hal_tim_ex.c ****   {
1925:Drivers/STM32F4xx_HAL_Driver/Src/stm32f4xx_hal_tim_ex.c ****     /* Select the Input trigger */
1926:Drivers/STM32F4xx_HAL_Driver/Src/stm32f4xx_hal_tim_ex.c ****     htim->Instance->SMCR &= ~TIM_SMCR_TS;
 5444              		.loc 1 1926 9
 5445 003a FB68     		ldr	r3, [r7, #12]
 5446 003c 1B68     		ldr	r3, [r3]
 5447              		.loc 1 1926 19
 5448 003e 9A68     		ldr	r2, [r3, #8]
 5449              		.loc 1 1926 9
 5450 0040 FB68     		ldr	r3, [r7, #12]
 5451 0042 1B68     		ldr	r3, [r3]
 5452              		.loc 1 1926 26
 5453 0044 22F07002 		bic	r2, r2, #112
 5454 0048 9A60     		str	r2, [r3, #8]
1927:Drivers/STM32F4xx_HAL_Driver/Src/stm32f4xx_hal_tim_ex.c ****     htim->Instance->SMCR |= InputTrigger;
 5455              		.loc 1 1927 9
 5456 004a FB68     		ldr	r3, [r7, #12]
 5457 004c 1B68     		ldr	r3, [r3]
 5458              		.loc 1 1927 19
 5459 004e 9968     		ldr	r1, [r3, #8]
 5460              		.loc 1 1927 9
 5461 0050 FB68     		ldr	r3, [r7, #12]
 5462 0052 1B68     		ldr	r3, [r3]
 5463              		.loc 1 1927 26
 5464 0054 BA68     		ldr	r2, [r7, #8]
 5465 0056 0A43     		orrs	r2, r2, r1
 5466 0058 9A60     		str	r2, [r3, #8]
 5467              	.L343:
1928:Drivers/STM32F4xx_HAL_Driver/Src/stm32f4xx_hal_tim_ex.c ****   }
1929:Drivers/STM32F4xx_HAL_Driver/Src/stm32f4xx_hal_tim_ex.c **** 
1930:Drivers/STM32F4xx_HAL_Driver/Src/stm32f4xx_hal_tim_ex.c ****   /* Select the Capture Compare preload feature */
1931:Drivers/STM32F4xx_HAL_Driver/Src/stm32f4xx_hal_tim_ex.c ****   htim->Instance->CR2 |= TIM_CR2_CCPC;
 5468              		.loc 1 1931 7
ARM GAS  C:\Users\DAELT-~1\AppData\Local\Temp\cc2rhEX6.s 			page 130


 5469 005a FB68     		ldr	r3, [r7, #12]
 5470 005c 1B68     		ldr	r3, [r3]
 5471              		.loc 1 1931 17
 5472 005e 5A68     		ldr	r2, [r3, #4]
 5473              		.loc 1 1931 7
 5474 0060 FB68     		ldr	r3, [r7, #12]
 5475 0062 1B68     		ldr	r3, [r3]
 5476              		.loc 1 1931 23
 5477 0064 42F00102 		orr	r2, r2, #1
 5478 0068 5A60     		str	r2, [r3, #4]
1932:Drivers/STM32F4xx_HAL_Driver/Src/stm32f4xx_hal_tim_ex.c ****   /* Select the Commutation event source */
1933:Drivers/STM32F4xx_HAL_Driver/Src/stm32f4xx_hal_tim_ex.c ****   htim->Instance->CR2 &= ~TIM_CR2_CCUS;
 5479              		.loc 1 1933 7
 5480 006a FB68     		ldr	r3, [r7, #12]
 5481 006c 1B68     		ldr	r3, [r3]
 5482              		.loc 1 1933 17
 5483 006e 5A68     		ldr	r2, [r3, #4]
 5484              		.loc 1 1933 7
 5485 0070 FB68     		ldr	r3, [r7, #12]
 5486 0072 1B68     		ldr	r3, [r3]
 5487              		.loc 1 1933 23
 5488 0074 22F00402 		bic	r2, r2, #4
 5489 0078 5A60     		str	r2, [r3, #4]
1934:Drivers/STM32F4xx_HAL_Driver/Src/stm32f4xx_hal_tim_ex.c ****   htim->Instance->CR2 |= CommutationSource;
 5490              		.loc 1 1934 7
 5491 007a FB68     		ldr	r3, [r7, #12]
 5492 007c 1B68     		ldr	r3, [r3]
 5493              		.loc 1 1934 17
 5494 007e 5968     		ldr	r1, [r3, #4]
 5495              		.loc 1 1934 7
 5496 0080 FB68     		ldr	r3, [r7, #12]
 5497 0082 1B68     		ldr	r3, [r3]
 5498              		.loc 1 1934 23
 5499 0084 7A68     		ldr	r2, [r7, #4]
 5500 0086 0A43     		orrs	r2, r2, r1
 5501 0088 5A60     		str	r2, [r3, #4]
1935:Drivers/STM32F4xx_HAL_Driver/Src/stm32f4xx_hal_tim_ex.c **** 
1936:Drivers/STM32F4xx_HAL_Driver/Src/stm32f4xx_hal_tim_ex.c ****   /* Enable the Commutation DMA Request */
1937:Drivers/STM32F4xx_HAL_Driver/Src/stm32f4xx_hal_tim_ex.c ****   /* Set the DMA Commutation Callback */
1938:Drivers/STM32F4xx_HAL_Driver/Src/stm32f4xx_hal_tim_ex.c ****   htim->hdma[TIM_DMA_ID_COMMUTATION]->XferCpltCallback = TIMEx_DMACommutationCplt;
 5502              		.loc 1 1938 13
 5503 008a FB68     		ldr	r3, [r7, #12]
 5504 008c 5B6B     		ldr	r3, [r3, #52]
 5505              		.loc 1 1938 56
 5506 008e 124A     		ldr	r2, .L344
 5507 0090 DA63     		str	r2, [r3, #60]
1939:Drivers/STM32F4xx_HAL_Driver/Src/stm32f4xx_hal_tim_ex.c ****   htim->hdma[TIM_DMA_ID_COMMUTATION]->XferHalfCpltCallback = TIMEx_DMACommutationHalfCplt;
 5508              		.loc 1 1939 13
 5509 0092 FB68     		ldr	r3, [r7, #12]
 5510 0094 5B6B     		ldr	r3, [r3, #52]
 5511              		.loc 1 1939 60
 5512 0096 114A     		ldr	r2, .L344+4
 5513 0098 1A64     		str	r2, [r3, #64]
1940:Drivers/STM32F4xx_HAL_Driver/Src/stm32f4xx_hal_tim_ex.c ****   /* Set the DMA error callback */
1941:Drivers/STM32F4xx_HAL_Driver/Src/stm32f4xx_hal_tim_ex.c ****   htim->hdma[TIM_DMA_ID_COMMUTATION]->XferErrorCallback = TIM_DMAError;
 5514              		.loc 1 1941 13
 5515 009a FB68     		ldr	r3, [r7, #12]
ARM GAS  C:\Users\DAELT-~1\AppData\Local\Temp\cc2rhEX6.s 			page 131


 5516 009c 5B6B     		ldr	r3, [r3, #52]
 5517              		.loc 1 1941 57
 5518 009e 104A     		ldr	r2, .L344+8
 5519 00a0 DA64     		str	r2, [r3, #76]
1942:Drivers/STM32F4xx_HAL_Driver/Src/stm32f4xx_hal_tim_ex.c **** 
1943:Drivers/STM32F4xx_HAL_Driver/Src/stm32f4xx_hal_tim_ex.c ****   /* Disable Commutation Interrupt */
1944:Drivers/STM32F4xx_HAL_Driver/Src/stm32f4xx_hal_tim_ex.c ****   __HAL_TIM_DISABLE_IT(htim, TIM_IT_COM);
 5520              		.loc 1 1944 3
 5521 00a2 FB68     		ldr	r3, [r7, #12]
 5522 00a4 1B68     		ldr	r3, [r3]
 5523 00a6 DA68     		ldr	r2, [r3, #12]
 5524 00a8 FB68     		ldr	r3, [r7, #12]
 5525 00aa 1B68     		ldr	r3, [r3]
 5526 00ac 22F02002 		bic	r2, r2, #32
 5527 00b0 DA60     		str	r2, [r3, #12]
1945:Drivers/STM32F4xx_HAL_Driver/Src/stm32f4xx_hal_tim_ex.c **** 
1946:Drivers/STM32F4xx_HAL_Driver/Src/stm32f4xx_hal_tim_ex.c ****   /* Enable the Commutation DMA Request */
1947:Drivers/STM32F4xx_HAL_Driver/Src/stm32f4xx_hal_tim_ex.c ****   __HAL_TIM_ENABLE_DMA(htim, TIM_DMA_COM);
 5528              		.loc 1 1947 3
 5529 00b2 FB68     		ldr	r3, [r7, #12]
 5530 00b4 1B68     		ldr	r3, [r3]
 5531 00b6 DA68     		ldr	r2, [r3, #12]
 5532 00b8 FB68     		ldr	r3, [r7, #12]
 5533 00ba 1B68     		ldr	r3, [r3]
 5534 00bc 42F40052 		orr	r2, r2, #8192
 5535 00c0 DA60     		str	r2, [r3, #12]
1948:Drivers/STM32F4xx_HAL_Driver/Src/stm32f4xx_hal_tim_ex.c **** 
1949:Drivers/STM32F4xx_HAL_Driver/Src/stm32f4xx_hal_tim_ex.c ****   __HAL_UNLOCK(htim);
 5536              		.loc 1 1949 3
 5537 00c2 FB68     		ldr	r3, [r7, #12]
 5538 00c4 0022     		movs	r2, #0
 5539 00c6 83F83C20 		strb	r2, [r3, #60]
1950:Drivers/STM32F4xx_HAL_Driver/Src/stm32f4xx_hal_tim_ex.c **** 
1951:Drivers/STM32F4xx_HAL_Driver/Src/stm32f4xx_hal_tim_ex.c ****   return HAL_OK;
 5540              		.loc 1 1951 10
 5541 00ca 0023     		movs	r3, #0
 5542              	.L341:
1952:Drivers/STM32F4xx_HAL_Driver/Src/stm32f4xx_hal_tim_ex.c **** }
 5543              		.loc 1 1952 1
 5544 00cc 1846     		mov	r0, r3
 5545 00ce 1437     		adds	r7, r7, #20
 5546              	.LCFI147:
 5547              		.cfi_def_cfa_offset 4
 5548 00d0 BD46     		mov	sp, r7
 5549              	.LCFI148:
 5550              		.cfi_def_cfa_register 13
 5551              		@ sp needed
 5552 00d2 5DF8047B 		ldr	r7, [sp], #4
 5553              	.LCFI149:
 5554              		.cfi_restore 7
 5555              		.cfi_def_cfa_offset 0
 5556 00d6 7047     		bx	lr
 5557              	.L345:
 5558              		.align	2
 5559              	.L344:
 5560 00d8 00000000 		.word	TIMEx_DMACommutationCplt
 5561 00dc 00000000 		.word	TIMEx_DMACommutationHalfCplt
ARM GAS  C:\Users\DAELT-~1\AppData\Local\Temp\cc2rhEX6.s 			page 132


 5562 00e0 00000000 		.word	TIM_DMAError
 5563              		.cfi_endproc
 5564              	.LFE158:
 5566              		.section	.text.HAL_TIMEx_MasterConfigSynchronization,"ax",%progbits
 5567              		.align	1
 5568              		.global	HAL_TIMEx_MasterConfigSynchronization
 5569              		.syntax unified
 5570              		.thumb
 5571              		.thumb_func
 5573              	HAL_TIMEx_MasterConfigSynchronization:
 5574              	.LFB159:
1953:Drivers/STM32F4xx_HAL_Driver/Src/stm32f4xx_hal_tim_ex.c **** 
1954:Drivers/STM32F4xx_HAL_Driver/Src/stm32f4xx_hal_tim_ex.c **** /**
1955:Drivers/STM32F4xx_HAL_Driver/Src/stm32f4xx_hal_tim_ex.c ****   * @brief  Configures the TIM in master mode.
1956:Drivers/STM32F4xx_HAL_Driver/Src/stm32f4xx_hal_tim_ex.c ****   * @param  htim TIM handle.
1957:Drivers/STM32F4xx_HAL_Driver/Src/stm32f4xx_hal_tim_ex.c ****   * @param  sMasterConfig pointer to a TIM_MasterConfigTypeDef structure that
1958:Drivers/STM32F4xx_HAL_Driver/Src/stm32f4xx_hal_tim_ex.c ****   *         contains the selected trigger output (TRGO) and the Master/Slave
1959:Drivers/STM32F4xx_HAL_Driver/Src/stm32f4xx_hal_tim_ex.c ****   *         mode.
1960:Drivers/STM32F4xx_HAL_Driver/Src/stm32f4xx_hal_tim_ex.c ****   * @retval HAL status
1961:Drivers/STM32F4xx_HAL_Driver/Src/stm32f4xx_hal_tim_ex.c ****   */
1962:Drivers/STM32F4xx_HAL_Driver/Src/stm32f4xx_hal_tim_ex.c **** HAL_StatusTypeDef HAL_TIMEx_MasterConfigSynchronization(TIM_HandleTypeDef *htim,
1963:Drivers/STM32F4xx_HAL_Driver/Src/stm32f4xx_hal_tim_ex.c ****                                                         TIM_MasterConfigTypeDef *sMasterConfig)
1964:Drivers/STM32F4xx_HAL_Driver/Src/stm32f4xx_hal_tim_ex.c **** {
 5575              		.loc 1 1964 1
 5576              		.cfi_startproc
 5577              		@ args = 0, pretend = 0, frame = 16
 5578              		@ frame_needed = 1, uses_anonymous_args = 0
 5579              		@ link register save eliminated.
 5580 0000 80B4     		push	{r7}
 5581              	.LCFI150:
 5582              		.cfi_def_cfa_offset 4
 5583              		.cfi_offset 7, -4
 5584 0002 85B0     		sub	sp, sp, #20
 5585              	.LCFI151:
 5586              		.cfi_def_cfa_offset 24
 5587 0004 00AF     		add	r7, sp, #0
 5588              	.LCFI152:
 5589              		.cfi_def_cfa_register 7
 5590 0006 7860     		str	r0, [r7, #4]
 5591 0008 3960     		str	r1, [r7]
1965:Drivers/STM32F4xx_HAL_Driver/Src/stm32f4xx_hal_tim_ex.c ****   uint32_t tmpcr2;
1966:Drivers/STM32F4xx_HAL_Driver/Src/stm32f4xx_hal_tim_ex.c ****   uint32_t tmpsmcr;
1967:Drivers/STM32F4xx_HAL_Driver/Src/stm32f4xx_hal_tim_ex.c **** 
1968:Drivers/STM32F4xx_HAL_Driver/Src/stm32f4xx_hal_tim_ex.c ****   /* Check the parameters */
1969:Drivers/STM32F4xx_HAL_Driver/Src/stm32f4xx_hal_tim_ex.c ****   assert_param(IS_TIM_MASTER_INSTANCE(htim->Instance));
1970:Drivers/STM32F4xx_HAL_Driver/Src/stm32f4xx_hal_tim_ex.c ****   assert_param(IS_TIM_TRGO_SOURCE(sMasterConfig->MasterOutputTrigger));
1971:Drivers/STM32F4xx_HAL_Driver/Src/stm32f4xx_hal_tim_ex.c ****   assert_param(IS_TIM_MSM_STATE(sMasterConfig->MasterSlaveMode));
1972:Drivers/STM32F4xx_HAL_Driver/Src/stm32f4xx_hal_tim_ex.c **** 
1973:Drivers/STM32F4xx_HAL_Driver/Src/stm32f4xx_hal_tim_ex.c ****   /* Check input state */
1974:Drivers/STM32F4xx_HAL_Driver/Src/stm32f4xx_hal_tim_ex.c ****   __HAL_LOCK(htim);
 5592              		.loc 1 1974 3
 5593 000a 7B68     		ldr	r3, [r7, #4]
 5594 000c 93F83C30 		ldrb	r3, [r3, #60]	@ zero_extendqisi2
 5595 0010 012B     		cmp	r3, #1
 5596 0012 01D1     		bne	.L347
 5597              		.loc 1 1974 3 is_stmt 0 discriminator 1
 5598 0014 0223     		movs	r3, #2
ARM GAS  C:\Users\DAELT-~1\AppData\Local\Temp\cc2rhEX6.s 			page 133


 5599              		.loc 1 1974 3
 5600 0016 50E0     		b	.L348
 5601              	.L347:
 5602              		.loc 1 1974 3 discriminator 2
 5603 0018 7B68     		ldr	r3, [r7, #4]
 5604 001a 0122     		movs	r2, #1
 5605 001c 83F83C20 		strb	r2, [r3, #60]
1975:Drivers/STM32F4xx_HAL_Driver/Src/stm32f4xx_hal_tim_ex.c **** 
1976:Drivers/STM32F4xx_HAL_Driver/Src/stm32f4xx_hal_tim_ex.c ****   /* Change the handler state */
1977:Drivers/STM32F4xx_HAL_Driver/Src/stm32f4xx_hal_tim_ex.c ****   htim->State = HAL_TIM_STATE_BUSY;
 5606              		.loc 1 1977 15 is_stmt 1
 5607 0020 7B68     		ldr	r3, [r7, #4]
 5608 0022 0222     		movs	r2, #2
 5609 0024 83F83D20 		strb	r2, [r3, #61]
1978:Drivers/STM32F4xx_HAL_Driver/Src/stm32f4xx_hal_tim_ex.c **** 
1979:Drivers/STM32F4xx_HAL_Driver/Src/stm32f4xx_hal_tim_ex.c ****   /* Get the TIMx CR2 register value */
1980:Drivers/STM32F4xx_HAL_Driver/Src/stm32f4xx_hal_tim_ex.c ****   tmpcr2 = htim->Instance->CR2;
 5610              		.loc 1 1980 16
 5611 0028 7B68     		ldr	r3, [r7, #4]
 5612 002a 1B68     		ldr	r3, [r3]
 5613              		.loc 1 1980 10
 5614 002c 5B68     		ldr	r3, [r3, #4]
 5615 002e FB60     		str	r3, [r7, #12]
1981:Drivers/STM32F4xx_HAL_Driver/Src/stm32f4xx_hal_tim_ex.c **** 
1982:Drivers/STM32F4xx_HAL_Driver/Src/stm32f4xx_hal_tim_ex.c ****   /* Get the TIMx SMCR register value */
1983:Drivers/STM32F4xx_HAL_Driver/Src/stm32f4xx_hal_tim_ex.c ****   tmpsmcr = htim->Instance->SMCR;
 5616              		.loc 1 1983 17
 5617 0030 7B68     		ldr	r3, [r7, #4]
 5618 0032 1B68     		ldr	r3, [r3]
 5619              		.loc 1 1983 11
 5620 0034 9B68     		ldr	r3, [r3, #8]
 5621 0036 BB60     		str	r3, [r7, #8]
1984:Drivers/STM32F4xx_HAL_Driver/Src/stm32f4xx_hal_tim_ex.c **** 
1985:Drivers/STM32F4xx_HAL_Driver/Src/stm32f4xx_hal_tim_ex.c ****   /* Reset the MMS Bits */
1986:Drivers/STM32F4xx_HAL_Driver/Src/stm32f4xx_hal_tim_ex.c ****   tmpcr2 &= ~TIM_CR2_MMS;
 5622              		.loc 1 1986 10
 5623 0038 FB68     		ldr	r3, [r7, #12]
 5624 003a 23F07003 		bic	r3, r3, #112
 5625 003e FB60     		str	r3, [r7, #12]
1987:Drivers/STM32F4xx_HAL_Driver/Src/stm32f4xx_hal_tim_ex.c ****   /* Select the TRGO source */
1988:Drivers/STM32F4xx_HAL_Driver/Src/stm32f4xx_hal_tim_ex.c ****   tmpcr2 |=  sMasterConfig->MasterOutputTrigger;
 5626              		.loc 1 1988 27
 5627 0040 3B68     		ldr	r3, [r7]
 5628 0042 1B68     		ldr	r3, [r3]
 5629              		.loc 1 1988 10
 5630 0044 FA68     		ldr	r2, [r7, #12]
 5631 0046 1343     		orrs	r3, r3, r2
 5632 0048 FB60     		str	r3, [r7, #12]
1989:Drivers/STM32F4xx_HAL_Driver/Src/stm32f4xx_hal_tim_ex.c **** 
1990:Drivers/STM32F4xx_HAL_Driver/Src/stm32f4xx_hal_tim_ex.c ****   /* Update TIMx CR2 */
1991:Drivers/STM32F4xx_HAL_Driver/Src/stm32f4xx_hal_tim_ex.c ****   htim->Instance->CR2 = tmpcr2;
 5633              		.loc 1 1991 7
 5634 004a 7B68     		ldr	r3, [r7, #4]
 5635 004c 1B68     		ldr	r3, [r3]
 5636              		.loc 1 1991 23
 5637 004e FA68     		ldr	r2, [r7, #12]
 5638 0050 5A60     		str	r2, [r3, #4]
ARM GAS  C:\Users\DAELT-~1\AppData\Local\Temp\cc2rhEX6.s 			page 134


1992:Drivers/STM32F4xx_HAL_Driver/Src/stm32f4xx_hal_tim_ex.c **** 
1993:Drivers/STM32F4xx_HAL_Driver/Src/stm32f4xx_hal_tim_ex.c ****   if (IS_TIM_SLAVE_INSTANCE(htim->Instance))
 5639              		.loc 1 1993 7
 5640 0052 7B68     		ldr	r3, [r7, #4]
 5641 0054 1B68     		ldr	r3, [r3]
 5642              		.loc 1 1993 6
 5643 0056 1C4A     		ldr	r2, .L351
 5644 0058 9342     		cmp	r3, r2
 5645 005a 18D0     		beq	.L349
 5646              		.loc 1 1993 7 discriminator 1
 5647 005c 7B68     		ldr	r3, [r7, #4]
 5648 005e 1B68     		ldr	r3, [r3]
 5649 0060 B3F1804F 		cmp	r3, #1073741824
 5650 0064 13D0     		beq	.L349
 5651              		.loc 1 1993 7 is_stmt 0 discriminator 2
 5652 0066 7B68     		ldr	r3, [r7, #4]
 5653 0068 1B68     		ldr	r3, [r3]
 5654 006a 184A     		ldr	r2, .L351+4
 5655 006c 9342     		cmp	r3, r2
 5656 006e 0ED0     		beq	.L349
 5657              		.loc 1 1993 7 discriminator 3
 5658 0070 7B68     		ldr	r3, [r7, #4]
 5659 0072 1B68     		ldr	r3, [r3]
 5660 0074 164A     		ldr	r2, .L351+8
 5661 0076 9342     		cmp	r3, r2
 5662 0078 09D0     		beq	.L349
 5663              		.loc 1 1993 7 discriminator 4
 5664 007a 7B68     		ldr	r3, [r7, #4]
 5665 007c 1B68     		ldr	r3, [r3]
 5666 007e 154A     		ldr	r2, .L351+12
 5667 0080 9342     		cmp	r3, r2
 5668 0082 04D0     		beq	.L349
 5669              		.loc 1 1993 7 discriminator 5
 5670 0084 7B68     		ldr	r3, [r7, #4]
 5671 0086 1B68     		ldr	r3, [r3]
 5672 0088 134A     		ldr	r2, .L351+16
 5673 008a 9342     		cmp	r3, r2
 5674 008c 0CD1     		bne	.L350
 5675              	.L349:
1994:Drivers/STM32F4xx_HAL_Driver/Src/stm32f4xx_hal_tim_ex.c ****   {
1995:Drivers/STM32F4xx_HAL_Driver/Src/stm32f4xx_hal_tim_ex.c ****     /* Reset the MSM Bit */
1996:Drivers/STM32F4xx_HAL_Driver/Src/stm32f4xx_hal_tim_ex.c ****     tmpsmcr &= ~TIM_SMCR_MSM;
 5676              		.loc 1 1996 13 is_stmt 1
 5677 008e BB68     		ldr	r3, [r7, #8]
 5678 0090 23F08003 		bic	r3, r3, #128
 5679 0094 BB60     		str	r3, [r7, #8]
1997:Drivers/STM32F4xx_HAL_Driver/Src/stm32f4xx_hal_tim_ex.c ****     /* Set master mode */
1998:Drivers/STM32F4xx_HAL_Driver/Src/stm32f4xx_hal_tim_ex.c ****     tmpsmcr |= sMasterConfig->MasterSlaveMode;
 5680              		.loc 1 1998 29
 5681 0096 3B68     		ldr	r3, [r7]
 5682 0098 5B68     		ldr	r3, [r3, #4]
 5683              		.loc 1 1998 13
 5684 009a BA68     		ldr	r2, [r7, #8]
 5685 009c 1343     		orrs	r3, r3, r2
 5686 009e BB60     		str	r3, [r7, #8]
1999:Drivers/STM32F4xx_HAL_Driver/Src/stm32f4xx_hal_tim_ex.c **** 
2000:Drivers/STM32F4xx_HAL_Driver/Src/stm32f4xx_hal_tim_ex.c ****     /* Update TIMx SMCR */
ARM GAS  C:\Users\DAELT-~1\AppData\Local\Temp\cc2rhEX6.s 			page 135


2001:Drivers/STM32F4xx_HAL_Driver/Src/stm32f4xx_hal_tim_ex.c ****     htim->Instance->SMCR = tmpsmcr;
 5687              		.loc 1 2001 9
 5688 00a0 7B68     		ldr	r3, [r7, #4]
 5689 00a2 1B68     		ldr	r3, [r3]
 5690              		.loc 1 2001 26
 5691 00a4 BA68     		ldr	r2, [r7, #8]
 5692 00a6 9A60     		str	r2, [r3, #8]
 5693              	.L350:
2002:Drivers/STM32F4xx_HAL_Driver/Src/stm32f4xx_hal_tim_ex.c ****   }
2003:Drivers/STM32F4xx_HAL_Driver/Src/stm32f4xx_hal_tim_ex.c **** 
2004:Drivers/STM32F4xx_HAL_Driver/Src/stm32f4xx_hal_tim_ex.c ****   /* Change the htim state */
2005:Drivers/STM32F4xx_HAL_Driver/Src/stm32f4xx_hal_tim_ex.c ****   htim->State = HAL_TIM_STATE_READY;
 5694              		.loc 1 2005 15
 5695 00a8 7B68     		ldr	r3, [r7, #4]
 5696 00aa 0122     		movs	r2, #1
 5697 00ac 83F83D20 		strb	r2, [r3, #61]
2006:Drivers/STM32F4xx_HAL_Driver/Src/stm32f4xx_hal_tim_ex.c **** 
2007:Drivers/STM32F4xx_HAL_Driver/Src/stm32f4xx_hal_tim_ex.c ****   __HAL_UNLOCK(htim);
 5698              		.loc 1 2007 3
 5699 00b0 7B68     		ldr	r3, [r7, #4]
 5700 00b2 0022     		movs	r2, #0
 5701 00b4 83F83C20 		strb	r2, [r3, #60]
2008:Drivers/STM32F4xx_HAL_Driver/Src/stm32f4xx_hal_tim_ex.c **** 
2009:Drivers/STM32F4xx_HAL_Driver/Src/stm32f4xx_hal_tim_ex.c ****   return HAL_OK;
 5702              		.loc 1 2009 10
 5703 00b8 0023     		movs	r3, #0
 5704              	.L348:
2010:Drivers/STM32F4xx_HAL_Driver/Src/stm32f4xx_hal_tim_ex.c **** }
 5705              		.loc 1 2010 1
 5706 00ba 1846     		mov	r0, r3
 5707 00bc 1437     		adds	r7, r7, #20
 5708              	.LCFI153:
 5709              		.cfi_def_cfa_offset 4
 5710 00be BD46     		mov	sp, r7
 5711              	.LCFI154:
 5712              		.cfi_def_cfa_register 13
 5713              		@ sp needed
 5714 00c0 5DF8047B 		ldr	r7, [sp], #4
 5715              	.LCFI155:
 5716              		.cfi_restore 7
 5717              		.cfi_def_cfa_offset 0
 5718 00c4 7047     		bx	lr
 5719              	.L352:
 5720 00c6 00BF     		.align	2
 5721              	.L351:
 5722 00c8 00000140 		.word	1073807360
 5723 00cc 00040040 		.word	1073742848
 5724 00d0 00080040 		.word	1073743872
 5725 00d4 000C0040 		.word	1073744896
 5726 00d8 00400140 		.word	1073823744
 5727              		.cfi_endproc
 5728              	.LFE159:
 5730              		.section	.text.HAL_TIMEx_ConfigBreakDeadTime,"ax",%progbits
 5731              		.align	1
 5732              		.global	HAL_TIMEx_ConfigBreakDeadTime
 5733              		.syntax unified
 5734              		.thumb
ARM GAS  C:\Users\DAELT-~1\AppData\Local\Temp\cc2rhEX6.s 			page 136


 5735              		.thumb_func
 5737              	HAL_TIMEx_ConfigBreakDeadTime:
 5738              	.LFB160:
2011:Drivers/STM32F4xx_HAL_Driver/Src/stm32f4xx_hal_tim_ex.c **** 
2012:Drivers/STM32F4xx_HAL_Driver/Src/stm32f4xx_hal_tim_ex.c **** /**
2013:Drivers/STM32F4xx_HAL_Driver/Src/stm32f4xx_hal_tim_ex.c ****   * @brief  Configures the Break feature, dead time, Lock level, OSSI/OSSR State
2014:Drivers/STM32F4xx_HAL_Driver/Src/stm32f4xx_hal_tim_ex.c ****   *         and the AOE(automatic output enable).
2015:Drivers/STM32F4xx_HAL_Driver/Src/stm32f4xx_hal_tim_ex.c ****   * @param  htim TIM handle
2016:Drivers/STM32F4xx_HAL_Driver/Src/stm32f4xx_hal_tim_ex.c ****   * @param  sBreakDeadTimeConfig pointer to a TIM_ConfigBreakDeadConfigTypeDef structure that
2017:Drivers/STM32F4xx_HAL_Driver/Src/stm32f4xx_hal_tim_ex.c ****   *         contains the BDTR Register configuration  information for the TIM peripheral.
2018:Drivers/STM32F4xx_HAL_Driver/Src/stm32f4xx_hal_tim_ex.c ****   * @note   Interrupts can be generated when an active level is detected on the
2019:Drivers/STM32F4xx_HAL_Driver/Src/stm32f4xx_hal_tim_ex.c ****   *         break input, the break 2 input or the system break input. Break
2020:Drivers/STM32F4xx_HAL_Driver/Src/stm32f4xx_hal_tim_ex.c ****   *         interrupt can be enabled by calling the @ref __HAL_TIM_ENABLE_IT macro.
2021:Drivers/STM32F4xx_HAL_Driver/Src/stm32f4xx_hal_tim_ex.c ****   * @retval HAL status
2022:Drivers/STM32F4xx_HAL_Driver/Src/stm32f4xx_hal_tim_ex.c ****   */
2023:Drivers/STM32F4xx_HAL_Driver/Src/stm32f4xx_hal_tim_ex.c **** HAL_StatusTypeDef HAL_TIMEx_ConfigBreakDeadTime(TIM_HandleTypeDef *htim,
2024:Drivers/STM32F4xx_HAL_Driver/Src/stm32f4xx_hal_tim_ex.c ****                                                 TIM_BreakDeadTimeConfigTypeDef *sBreakDeadTimeConfi
2025:Drivers/STM32F4xx_HAL_Driver/Src/stm32f4xx_hal_tim_ex.c **** {
 5739              		.loc 1 2025 1
 5740              		.cfi_startproc
 5741              		@ args = 0, pretend = 0, frame = 16
 5742              		@ frame_needed = 1, uses_anonymous_args = 0
 5743              		@ link register save eliminated.
 5744 0000 80B4     		push	{r7}
 5745              	.LCFI156:
 5746              		.cfi_def_cfa_offset 4
 5747              		.cfi_offset 7, -4
 5748 0002 85B0     		sub	sp, sp, #20
 5749              	.LCFI157:
 5750              		.cfi_def_cfa_offset 24
 5751 0004 00AF     		add	r7, sp, #0
 5752              	.LCFI158:
 5753              		.cfi_def_cfa_register 7
 5754 0006 7860     		str	r0, [r7, #4]
 5755 0008 3960     		str	r1, [r7]
2026:Drivers/STM32F4xx_HAL_Driver/Src/stm32f4xx_hal_tim_ex.c ****   /* Keep this variable initialized to 0 as it is used to configure BDTR register */
2027:Drivers/STM32F4xx_HAL_Driver/Src/stm32f4xx_hal_tim_ex.c ****   uint32_t tmpbdtr = 0U;
 5756              		.loc 1 2027 12
 5757 000a 0023     		movs	r3, #0
 5758 000c FB60     		str	r3, [r7, #12]
2028:Drivers/STM32F4xx_HAL_Driver/Src/stm32f4xx_hal_tim_ex.c **** 
2029:Drivers/STM32F4xx_HAL_Driver/Src/stm32f4xx_hal_tim_ex.c ****   /* Check the parameters */
2030:Drivers/STM32F4xx_HAL_Driver/Src/stm32f4xx_hal_tim_ex.c ****   assert_param(IS_TIM_BREAK_INSTANCE(htim->Instance));
2031:Drivers/STM32F4xx_HAL_Driver/Src/stm32f4xx_hal_tim_ex.c ****   assert_param(IS_TIM_OSSR_STATE(sBreakDeadTimeConfig->OffStateRunMode));
2032:Drivers/STM32F4xx_HAL_Driver/Src/stm32f4xx_hal_tim_ex.c ****   assert_param(IS_TIM_OSSI_STATE(sBreakDeadTimeConfig->OffStateIDLEMode));
2033:Drivers/STM32F4xx_HAL_Driver/Src/stm32f4xx_hal_tim_ex.c ****   assert_param(IS_TIM_LOCK_LEVEL(sBreakDeadTimeConfig->LockLevel));
2034:Drivers/STM32F4xx_HAL_Driver/Src/stm32f4xx_hal_tim_ex.c ****   assert_param(IS_TIM_DEADTIME(sBreakDeadTimeConfig->DeadTime));
2035:Drivers/STM32F4xx_HAL_Driver/Src/stm32f4xx_hal_tim_ex.c ****   assert_param(IS_TIM_BREAK_STATE(sBreakDeadTimeConfig->BreakState));
2036:Drivers/STM32F4xx_HAL_Driver/Src/stm32f4xx_hal_tim_ex.c ****   assert_param(IS_TIM_BREAK_POLARITY(sBreakDeadTimeConfig->BreakPolarity));
2037:Drivers/STM32F4xx_HAL_Driver/Src/stm32f4xx_hal_tim_ex.c ****   assert_param(IS_TIM_AUTOMATIC_OUTPUT_STATE(sBreakDeadTimeConfig->AutomaticOutput));
2038:Drivers/STM32F4xx_HAL_Driver/Src/stm32f4xx_hal_tim_ex.c **** 
2039:Drivers/STM32F4xx_HAL_Driver/Src/stm32f4xx_hal_tim_ex.c ****   /* Check input state */
2040:Drivers/STM32F4xx_HAL_Driver/Src/stm32f4xx_hal_tim_ex.c ****   __HAL_LOCK(htim);
 5759              		.loc 1 2040 3
 5760 000e 7B68     		ldr	r3, [r7, #4]
 5761 0010 93F83C30 		ldrb	r3, [r3, #60]	@ zero_extendqisi2
 5762 0014 012B     		cmp	r3, #1
ARM GAS  C:\Users\DAELT-~1\AppData\Local\Temp\cc2rhEX6.s 			page 137


 5763 0016 01D1     		bne	.L354
 5764              		.loc 1 2040 3 is_stmt 0 discriminator 1
 5765 0018 0223     		movs	r3, #2
 5766              		.loc 1 2040 3
 5767 001a 3DE0     		b	.L355
 5768              	.L354:
 5769              		.loc 1 2040 3 discriminator 2
 5770 001c 7B68     		ldr	r3, [r7, #4]
 5771 001e 0122     		movs	r2, #1
 5772 0020 83F83C20 		strb	r2, [r3, #60]
2041:Drivers/STM32F4xx_HAL_Driver/Src/stm32f4xx_hal_tim_ex.c **** 
2042:Drivers/STM32F4xx_HAL_Driver/Src/stm32f4xx_hal_tim_ex.c ****   /* Set the Lock level, the Break enable Bit and the Polarity, the OSSR State,
2043:Drivers/STM32F4xx_HAL_Driver/Src/stm32f4xx_hal_tim_ex.c ****      the OSSI State, the dead time value and the Automatic Output Enable Bit */
2044:Drivers/STM32F4xx_HAL_Driver/Src/stm32f4xx_hal_tim_ex.c **** 
2045:Drivers/STM32F4xx_HAL_Driver/Src/stm32f4xx_hal_tim_ex.c ****   /* Set the BDTR bits */
2046:Drivers/STM32F4xx_HAL_Driver/Src/stm32f4xx_hal_tim_ex.c ****   MODIFY_REG(tmpbdtr, TIM_BDTR_DTG, sBreakDeadTimeConfig->DeadTime);
 5773              		.loc 1 2046 3 is_stmt 1
 5774 0024 FB68     		ldr	r3, [r7, #12]
 5775 0026 23F0FF02 		bic	r2, r3, #255
 5776 002a 3B68     		ldr	r3, [r7]
 5777 002c DB68     		ldr	r3, [r3, #12]
 5778 002e 1343     		orrs	r3, r3, r2
 5779 0030 FB60     		str	r3, [r7, #12]
2047:Drivers/STM32F4xx_HAL_Driver/Src/stm32f4xx_hal_tim_ex.c ****   MODIFY_REG(tmpbdtr, TIM_BDTR_LOCK, sBreakDeadTimeConfig->LockLevel);
 5780              		.loc 1 2047 3
 5781 0032 FB68     		ldr	r3, [r7, #12]
 5782 0034 23F44072 		bic	r2, r3, #768
 5783 0038 3B68     		ldr	r3, [r7]
 5784 003a 9B68     		ldr	r3, [r3, #8]
 5785 003c 1343     		orrs	r3, r3, r2
 5786 003e FB60     		str	r3, [r7, #12]
2048:Drivers/STM32F4xx_HAL_Driver/Src/stm32f4xx_hal_tim_ex.c ****   MODIFY_REG(tmpbdtr, TIM_BDTR_OSSI, sBreakDeadTimeConfig->OffStateIDLEMode);
 5787              		.loc 1 2048 3
 5788 0040 FB68     		ldr	r3, [r7, #12]
 5789 0042 23F48062 		bic	r2, r3, #1024
 5790 0046 3B68     		ldr	r3, [r7]
 5791 0048 5B68     		ldr	r3, [r3, #4]
 5792 004a 1343     		orrs	r3, r3, r2
 5793 004c FB60     		str	r3, [r7, #12]
2049:Drivers/STM32F4xx_HAL_Driver/Src/stm32f4xx_hal_tim_ex.c ****   MODIFY_REG(tmpbdtr, TIM_BDTR_OSSR, sBreakDeadTimeConfig->OffStateRunMode);
 5794              		.loc 1 2049 3
 5795 004e FB68     		ldr	r3, [r7, #12]
 5796 0050 23F40062 		bic	r2, r3, #2048
 5797 0054 3B68     		ldr	r3, [r7]
 5798 0056 1B68     		ldr	r3, [r3]
 5799 0058 1343     		orrs	r3, r3, r2
 5800 005a FB60     		str	r3, [r7, #12]
2050:Drivers/STM32F4xx_HAL_Driver/Src/stm32f4xx_hal_tim_ex.c ****   MODIFY_REG(tmpbdtr, TIM_BDTR_BKE, sBreakDeadTimeConfig->BreakState);
 5801              		.loc 1 2050 3
 5802 005c FB68     		ldr	r3, [r7, #12]
 5803 005e 23F48052 		bic	r2, r3, #4096
 5804 0062 3B68     		ldr	r3, [r7]
 5805 0064 1B69     		ldr	r3, [r3, #16]
 5806 0066 1343     		orrs	r3, r3, r2
 5807 0068 FB60     		str	r3, [r7, #12]
2051:Drivers/STM32F4xx_HAL_Driver/Src/stm32f4xx_hal_tim_ex.c ****   MODIFY_REG(tmpbdtr, TIM_BDTR_BKP, sBreakDeadTimeConfig->BreakPolarity);
 5808              		.loc 1 2051 3
ARM GAS  C:\Users\DAELT-~1\AppData\Local\Temp\cc2rhEX6.s 			page 138


 5809 006a FB68     		ldr	r3, [r7, #12]
 5810 006c 23F40052 		bic	r2, r3, #8192
 5811 0070 3B68     		ldr	r3, [r7]
 5812 0072 5B69     		ldr	r3, [r3, #20]
 5813 0074 1343     		orrs	r3, r3, r2
 5814 0076 FB60     		str	r3, [r7, #12]
2052:Drivers/STM32F4xx_HAL_Driver/Src/stm32f4xx_hal_tim_ex.c ****   MODIFY_REG(tmpbdtr, TIM_BDTR_AOE, sBreakDeadTimeConfig->AutomaticOutput);
 5815              		.loc 1 2052 3
 5816 0078 FB68     		ldr	r3, [r7, #12]
 5817 007a 23F48042 		bic	r2, r3, #16384
 5818 007e 3B68     		ldr	r3, [r7]
 5819 0080 DB69     		ldr	r3, [r3, #28]
 5820 0082 1343     		orrs	r3, r3, r2
 5821 0084 FB60     		str	r3, [r7, #12]
2053:Drivers/STM32F4xx_HAL_Driver/Src/stm32f4xx_hal_tim_ex.c **** 
2054:Drivers/STM32F4xx_HAL_Driver/Src/stm32f4xx_hal_tim_ex.c **** 
2055:Drivers/STM32F4xx_HAL_Driver/Src/stm32f4xx_hal_tim_ex.c ****   /* Set TIMx_BDTR */
2056:Drivers/STM32F4xx_HAL_Driver/Src/stm32f4xx_hal_tim_ex.c ****   htim->Instance->BDTR = tmpbdtr;
 5822              		.loc 1 2056 7
 5823 0086 7B68     		ldr	r3, [r7, #4]
 5824 0088 1B68     		ldr	r3, [r3]
 5825              		.loc 1 2056 24
 5826 008a FA68     		ldr	r2, [r7, #12]
 5827 008c 5A64     		str	r2, [r3, #68]
2057:Drivers/STM32F4xx_HAL_Driver/Src/stm32f4xx_hal_tim_ex.c **** 
2058:Drivers/STM32F4xx_HAL_Driver/Src/stm32f4xx_hal_tim_ex.c ****   __HAL_UNLOCK(htim);
 5828              		.loc 1 2058 3
 5829 008e 7B68     		ldr	r3, [r7, #4]
 5830 0090 0022     		movs	r2, #0
 5831 0092 83F83C20 		strb	r2, [r3, #60]
2059:Drivers/STM32F4xx_HAL_Driver/Src/stm32f4xx_hal_tim_ex.c **** 
2060:Drivers/STM32F4xx_HAL_Driver/Src/stm32f4xx_hal_tim_ex.c ****   return HAL_OK;
 5832              		.loc 1 2060 10
 5833 0096 0023     		movs	r3, #0
 5834              	.L355:
2061:Drivers/STM32F4xx_HAL_Driver/Src/stm32f4xx_hal_tim_ex.c **** }
 5835              		.loc 1 2061 1
 5836 0098 1846     		mov	r0, r3
 5837 009a 1437     		adds	r7, r7, #20
 5838              	.LCFI159:
 5839              		.cfi_def_cfa_offset 4
 5840 009c BD46     		mov	sp, r7
 5841              	.LCFI160:
 5842              		.cfi_def_cfa_register 13
 5843              		@ sp needed
 5844 009e 5DF8047B 		ldr	r7, [sp], #4
 5845              	.LCFI161:
 5846              		.cfi_restore 7
 5847              		.cfi_def_cfa_offset 0
 5848 00a2 7047     		bx	lr
 5849              		.cfi_endproc
 5850              	.LFE160:
 5852              		.section	.text.HAL_TIMEx_RemapConfig,"ax",%progbits
 5853              		.align	1
 5854              		.global	HAL_TIMEx_RemapConfig
 5855              		.syntax unified
 5856              		.thumb
ARM GAS  C:\Users\DAELT-~1\AppData\Local\Temp\cc2rhEX6.s 			page 139


 5857              		.thumb_func
 5859              	HAL_TIMEx_RemapConfig:
 5860              	.LFB161:
2062:Drivers/STM32F4xx_HAL_Driver/Src/stm32f4xx_hal_tim_ex.c **** 
2063:Drivers/STM32F4xx_HAL_Driver/Src/stm32f4xx_hal_tim_ex.c **** /**
2064:Drivers/STM32F4xx_HAL_Driver/Src/stm32f4xx_hal_tim_ex.c ****   * @brief  Configures the TIMx Remapping input capabilities.
2065:Drivers/STM32F4xx_HAL_Driver/Src/stm32f4xx_hal_tim_ex.c ****   * @param  htim TIM handle.
2066:Drivers/STM32F4xx_HAL_Driver/Src/stm32f4xx_hal_tim_ex.c ****   * @param  Remap specifies the TIM remapping source.
2067:Drivers/STM32F4xx_HAL_Driver/Src/stm32f4xx_hal_tim_ex.c ****   *         For TIM1, the parameter can have the following values:                   (**)
2068:Drivers/STM32F4xx_HAL_Driver/Src/stm32f4xx_hal_tim_ex.c ****   *           @arg TIM_TIM1_TIM3_TRGO:  TIM1 ITR2 is connected to TIM3 TRGO
2069:Drivers/STM32F4xx_HAL_Driver/Src/stm32f4xx_hal_tim_ex.c ****   *           @arg TIM_TIM1_LPTIM:      TIM1 ITR2 is connected to LPTIM1 output
2070:Drivers/STM32F4xx_HAL_Driver/Src/stm32f4xx_hal_tim_ex.c ****   *
2071:Drivers/STM32F4xx_HAL_Driver/Src/stm32f4xx_hal_tim_ex.c ****   *         For TIM2, the parameter can have the following values:                   (**)
2072:Drivers/STM32F4xx_HAL_Driver/Src/stm32f4xx_hal_tim_ex.c ****   *           @arg TIM_TIM2_TIM8_TRGO:  TIM2 ITR1 is connected to TIM8 TRGO          (*)
2073:Drivers/STM32F4xx_HAL_Driver/Src/stm32f4xx_hal_tim_ex.c ****   *           @arg TIM_TIM2_ETH_PTP:    TIM2 ITR1 is connected to PTP trigger output (*)
2074:Drivers/STM32F4xx_HAL_Driver/Src/stm32f4xx_hal_tim_ex.c ****   *           @arg TIM_TIM2_USBFS_SOF:  TIM2 ITR1 is connected to OTG FS SOF
2075:Drivers/STM32F4xx_HAL_Driver/Src/stm32f4xx_hal_tim_ex.c ****   *           @arg TIM_TIM2_USBHS_SOF:  TIM2 ITR1 is connected to OTG FS SOF
2076:Drivers/STM32F4xx_HAL_Driver/Src/stm32f4xx_hal_tim_ex.c ****   *
2077:Drivers/STM32F4xx_HAL_Driver/Src/stm32f4xx_hal_tim_ex.c ****   *         For TIM5, the parameter can have the following values:
2078:Drivers/STM32F4xx_HAL_Driver/Src/stm32f4xx_hal_tim_ex.c ****   *           @arg TIM_TIM5_GPIO:       TIM5 TI4 is connected to GPIO
2079:Drivers/STM32F4xx_HAL_Driver/Src/stm32f4xx_hal_tim_ex.c ****   *           @arg TIM_TIM5_LSI:        TIM5 TI4 is connected to LSI
2080:Drivers/STM32F4xx_HAL_Driver/Src/stm32f4xx_hal_tim_ex.c ****   *           @arg TIM_TIM5_LSE:        TIM5 TI4 is connected to LSE
2081:Drivers/STM32F4xx_HAL_Driver/Src/stm32f4xx_hal_tim_ex.c ****   *           @arg TIM_TIM5_RTC:        TIM5 TI4 is connected to the RTC wakeup interrupt
2082:Drivers/STM32F4xx_HAL_Driver/Src/stm32f4xx_hal_tim_ex.c ****   *           @arg TIM_TIM5_TIM3_TRGO:  TIM5 ITR1 is connected to TIM3 TRGO          (*)
2083:Drivers/STM32F4xx_HAL_Driver/Src/stm32f4xx_hal_tim_ex.c ****   *           @arg TIM_TIM5_LPTIM:      TIM5 ITR1 is connected to LPTIM1 output      (*)
2084:Drivers/STM32F4xx_HAL_Driver/Src/stm32f4xx_hal_tim_ex.c ****   *
2085:Drivers/STM32F4xx_HAL_Driver/Src/stm32f4xx_hal_tim_ex.c ****   *         For TIM9, the parameter can have the following values:                   (**)
2086:Drivers/STM32F4xx_HAL_Driver/Src/stm32f4xx_hal_tim_ex.c ****   *           @arg TIM_TIM9_TIM3_TRGO:  TIM9 ITR1 is connected to TIM3 TRGO
2087:Drivers/STM32F4xx_HAL_Driver/Src/stm32f4xx_hal_tim_ex.c ****   *           @arg TIM_TIM9_LPTIM:      TIM9 ITR1 is connected to LPTIM1 output
2088:Drivers/STM32F4xx_HAL_Driver/Src/stm32f4xx_hal_tim_ex.c ****   *
2089:Drivers/STM32F4xx_HAL_Driver/Src/stm32f4xx_hal_tim_ex.c ****   *         For TIM11, the parameter can have the following values:
2090:Drivers/STM32F4xx_HAL_Driver/Src/stm32f4xx_hal_tim_ex.c ****   *           @arg TIM_TIM11_GPIO:     TIM11 TI1 is connected to GPIO
2091:Drivers/STM32F4xx_HAL_Driver/Src/stm32f4xx_hal_tim_ex.c ****   *           @arg TIM_TIM11_HSE:      TIM11 TI1 is connected to HSE_RTC clock
2092:Drivers/STM32F4xx_HAL_Driver/Src/stm32f4xx_hal_tim_ex.c ****   *           @arg TIM_TIM11_SPDIFRX:  TIM11 TI1 is connected to SPDIFRX_FRAME_SYNC  (*)
2093:Drivers/STM32F4xx_HAL_Driver/Src/stm32f4xx_hal_tim_ex.c ****   *
2094:Drivers/STM32F4xx_HAL_Driver/Src/stm32f4xx_hal_tim_ex.c ****   *         (*)  Value not defined in all devices. \n
2095:Drivers/STM32F4xx_HAL_Driver/Src/stm32f4xx_hal_tim_ex.c ****   *         (**) Register not available in all devices.
2096:Drivers/STM32F4xx_HAL_Driver/Src/stm32f4xx_hal_tim_ex.c ****   *
2097:Drivers/STM32F4xx_HAL_Driver/Src/stm32f4xx_hal_tim_ex.c ****   * @retval HAL status
2098:Drivers/STM32F4xx_HAL_Driver/Src/stm32f4xx_hal_tim_ex.c ****   */
2099:Drivers/STM32F4xx_HAL_Driver/Src/stm32f4xx_hal_tim_ex.c **** HAL_StatusTypeDef HAL_TIMEx_RemapConfig(TIM_HandleTypeDef *htim, uint32_t Remap)
2100:Drivers/STM32F4xx_HAL_Driver/Src/stm32f4xx_hal_tim_ex.c **** {
 5861              		.loc 1 2100 1
 5862              		.cfi_startproc
 5863              		@ args = 0, pretend = 0, frame = 8
 5864              		@ frame_needed = 1, uses_anonymous_args = 0
 5865              		@ link register save eliminated.
 5866 0000 80B4     		push	{r7}
 5867              	.LCFI162:
 5868              		.cfi_def_cfa_offset 4
 5869              		.cfi_offset 7, -4
 5870 0002 83B0     		sub	sp, sp, #12
 5871              	.LCFI163:
 5872              		.cfi_def_cfa_offset 16
 5873 0004 00AF     		add	r7, sp, #0
 5874              	.LCFI164:
 5875              		.cfi_def_cfa_register 7
ARM GAS  C:\Users\DAELT-~1\AppData\Local\Temp\cc2rhEX6.s 			page 140


 5876 0006 7860     		str	r0, [r7, #4]
 5877 0008 3960     		str	r1, [r7]
2101:Drivers/STM32F4xx_HAL_Driver/Src/stm32f4xx_hal_tim_ex.c **** 
2102:Drivers/STM32F4xx_HAL_Driver/Src/stm32f4xx_hal_tim_ex.c ****   /* Check parameters */
2103:Drivers/STM32F4xx_HAL_Driver/Src/stm32f4xx_hal_tim_ex.c ****   assert_param(IS_TIM_REMAP(htim->Instance, Remap));
2104:Drivers/STM32F4xx_HAL_Driver/Src/stm32f4xx_hal_tim_ex.c **** 
2105:Drivers/STM32F4xx_HAL_Driver/Src/stm32f4xx_hal_tim_ex.c ****   __HAL_LOCK(htim);
 5878              		.loc 1 2105 3
 5879 000a 7B68     		ldr	r3, [r7, #4]
 5880 000c 93F83C30 		ldrb	r3, [r3, #60]	@ zero_extendqisi2
 5881 0010 012B     		cmp	r3, #1
 5882 0012 01D1     		bne	.L357
 5883              		.loc 1 2105 3 is_stmt 0 discriminator 1
 5884 0014 0223     		movs	r3, #2
 5885              		.loc 1 2105 3
 5886 0016 0CE0     		b	.L358
 5887              	.L357:
 5888              		.loc 1 2105 3 discriminator 2
 5889 0018 7B68     		ldr	r3, [r7, #4]
 5890 001a 0122     		movs	r2, #1
 5891 001c 83F83C20 		strb	r2, [r3, #60]
2106:Drivers/STM32F4xx_HAL_Driver/Src/stm32f4xx_hal_tim_ex.c **** 
2107:Drivers/STM32F4xx_HAL_Driver/Src/stm32f4xx_hal_tim_ex.c **** #if defined(LPTIM_OR_TIM1_ITR2_RMP) && defined(LPTIM_OR_TIM5_ITR1_RMP) && defined(LPTIM_OR_TIM9_ITR
2108:Drivers/STM32F4xx_HAL_Driver/Src/stm32f4xx_hal_tim_ex.c ****   if ((Remap & LPTIM_REMAP_MASK) == LPTIM_REMAP_MASK)
2109:Drivers/STM32F4xx_HAL_Driver/Src/stm32f4xx_hal_tim_ex.c ****   {
2110:Drivers/STM32F4xx_HAL_Driver/Src/stm32f4xx_hal_tim_ex.c ****     /* Connect TIMx internal trigger to LPTIM1 output */
2111:Drivers/STM32F4xx_HAL_Driver/Src/stm32f4xx_hal_tim_ex.c ****     __HAL_RCC_LPTIM1_CLK_ENABLE();
2112:Drivers/STM32F4xx_HAL_Driver/Src/stm32f4xx_hal_tim_ex.c ****     MODIFY_REG(LPTIM1->OR,
2113:Drivers/STM32F4xx_HAL_Driver/Src/stm32f4xx_hal_tim_ex.c ****                (LPTIM_OR_TIM1_ITR2_RMP | LPTIM_OR_TIM5_ITR1_RMP | LPTIM_OR_TIM9_ITR1_RMP),
2114:Drivers/STM32F4xx_HAL_Driver/Src/stm32f4xx_hal_tim_ex.c ****                Remap & ~(LPTIM_REMAP_MASK));
2115:Drivers/STM32F4xx_HAL_Driver/Src/stm32f4xx_hal_tim_ex.c ****   }
2116:Drivers/STM32F4xx_HAL_Driver/Src/stm32f4xx_hal_tim_ex.c ****   else
2117:Drivers/STM32F4xx_HAL_Driver/Src/stm32f4xx_hal_tim_ex.c ****   {
2118:Drivers/STM32F4xx_HAL_Driver/Src/stm32f4xx_hal_tim_ex.c ****     /* Set the Timer remapping configuration */
2119:Drivers/STM32F4xx_HAL_Driver/Src/stm32f4xx_hal_tim_ex.c ****     WRITE_REG(htim->Instance->OR, Remap);
2120:Drivers/STM32F4xx_HAL_Driver/Src/stm32f4xx_hal_tim_ex.c ****   }
2121:Drivers/STM32F4xx_HAL_Driver/Src/stm32f4xx_hal_tim_ex.c **** #else
2122:Drivers/STM32F4xx_HAL_Driver/Src/stm32f4xx_hal_tim_ex.c ****   /* Set the Timer remapping configuration */
2123:Drivers/STM32F4xx_HAL_Driver/Src/stm32f4xx_hal_tim_ex.c ****   WRITE_REG(htim->Instance->OR, Remap);
 5892              		.loc 1 2123 3 is_stmt 1
 5893 0020 7B68     		ldr	r3, [r7, #4]
 5894 0022 1B68     		ldr	r3, [r3]
 5895 0024 3A68     		ldr	r2, [r7]
 5896 0026 1A65     		str	r2, [r3, #80]
2124:Drivers/STM32F4xx_HAL_Driver/Src/stm32f4xx_hal_tim_ex.c **** #endif /* LPTIM_OR_TIM1_ITR2_RMP &&  LPTIM_OR_TIM5_ITR1_RMP && LPTIM_OR_TIM9_ITR1_RMP */
2125:Drivers/STM32F4xx_HAL_Driver/Src/stm32f4xx_hal_tim_ex.c **** 
2126:Drivers/STM32F4xx_HAL_Driver/Src/stm32f4xx_hal_tim_ex.c ****   __HAL_UNLOCK(htim);
 5897              		.loc 1 2126 3
 5898 0028 7B68     		ldr	r3, [r7, #4]
 5899 002a 0022     		movs	r2, #0
 5900 002c 83F83C20 		strb	r2, [r3, #60]
2127:Drivers/STM32F4xx_HAL_Driver/Src/stm32f4xx_hal_tim_ex.c **** 
2128:Drivers/STM32F4xx_HAL_Driver/Src/stm32f4xx_hal_tim_ex.c ****   return HAL_OK;
 5901              		.loc 1 2128 10
 5902 0030 0023     		movs	r3, #0
 5903              	.L358:
2129:Drivers/STM32F4xx_HAL_Driver/Src/stm32f4xx_hal_tim_ex.c **** }
ARM GAS  C:\Users\DAELT-~1\AppData\Local\Temp\cc2rhEX6.s 			page 141


 5904              		.loc 1 2129 1
 5905 0032 1846     		mov	r0, r3
 5906 0034 0C37     		adds	r7, r7, #12
 5907              	.LCFI165:
 5908              		.cfi_def_cfa_offset 4
 5909 0036 BD46     		mov	sp, r7
 5910              	.LCFI166:
 5911              		.cfi_def_cfa_register 13
 5912              		@ sp needed
 5913 0038 5DF8047B 		ldr	r7, [sp], #4
 5914              	.LCFI167:
 5915              		.cfi_restore 7
 5916              		.cfi_def_cfa_offset 0
 5917 003c 7047     		bx	lr
 5918              		.cfi_endproc
 5919              	.LFE161:
 5921              		.section	.text.HAL_TIMEx_CommutCallback,"ax",%progbits
 5922              		.align	1
 5923              		.weak	HAL_TIMEx_CommutCallback
 5924              		.syntax unified
 5925              		.thumb
 5926              		.thumb_func
 5928              	HAL_TIMEx_CommutCallback:
 5929              	.LFB162:
2130:Drivers/STM32F4xx_HAL_Driver/Src/stm32f4xx_hal_tim_ex.c **** 
2131:Drivers/STM32F4xx_HAL_Driver/Src/stm32f4xx_hal_tim_ex.c **** /**
2132:Drivers/STM32F4xx_HAL_Driver/Src/stm32f4xx_hal_tim_ex.c ****   * @}
2133:Drivers/STM32F4xx_HAL_Driver/Src/stm32f4xx_hal_tim_ex.c ****   */
2134:Drivers/STM32F4xx_HAL_Driver/Src/stm32f4xx_hal_tim_ex.c **** 
2135:Drivers/STM32F4xx_HAL_Driver/Src/stm32f4xx_hal_tim_ex.c **** /** @defgroup TIMEx_Exported_Functions_Group6 Extended Callbacks functions
2136:Drivers/STM32F4xx_HAL_Driver/Src/stm32f4xx_hal_tim_ex.c ****   * @brief    Extended Callbacks functions
2137:Drivers/STM32F4xx_HAL_Driver/Src/stm32f4xx_hal_tim_ex.c ****   *
2138:Drivers/STM32F4xx_HAL_Driver/Src/stm32f4xx_hal_tim_ex.c **** @verbatim
2139:Drivers/STM32F4xx_HAL_Driver/Src/stm32f4xx_hal_tim_ex.c ****   ==============================================================================
2140:Drivers/STM32F4xx_HAL_Driver/Src/stm32f4xx_hal_tim_ex.c ****                     ##### Extended Callbacks functions #####
2141:Drivers/STM32F4xx_HAL_Driver/Src/stm32f4xx_hal_tim_ex.c ****   ==============================================================================
2142:Drivers/STM32F4xx_HAL_Driver/Src/stm32f4xx_hal_tim_ex.c ****   [..]
2143:Drivers/STM32F4xx_HAL_Driver/Src/stm32f4xx_hal_tim_ex.c ****     This section provides Extended TIM callback functions:
2144:Drivers/STM32F4xx_HAL_Driver/Src/stm32f4xx_hal_tim_ex.c ****     (+) Timer Commutation callback
2145:Drivers/STM32F4xx_HAL_Driver/Src/stm32f4xx_hal_tim_ex.c ****     (+) Timer Break callback
2146:Drivers/STM32F4xx_HAL_Driver/Src/stm32f4xx_hal_tim_ex.c **** 
2147:Drivers/STM32F4xx_HAL_Driver/Src/stm32f4xx_hal_tim_ex.c **** @endverbatim
2148:Drivers/STM32F4xx_HAL_Driver/Src/stm32f4xx_hal_tim_ex.c ****   * @{
2149:Drivers/STM32F4xx_HAL_Driver/Src/stm32f4xx_hal_tim_ex.c ****   */
2150:Drivers/STM32F4xx_HAL_Driver/Src/stm32f4xx_hal_tim_ex.c **** 
2151:Drivers/STM32F4xx_HAL_Driver/Src/stm32f4xx_hal_tim_ex.c **** /**
2152:Drivers/STM32F4xx_HAL_Driver/Src/stm32f4xx_hal_tim_ex.c ****   * @brief  Hall commutation changed callback in non-blocking mode
2153:Drivers/STM32F4xx_HAL_Driver/Src/stm32f4xx_hal_tim_ex.c ****   * @param  htim TIM handle
2154:Drivers/STM32F4xx_HAL_Driver/Src/stm32f4xx_hal_tim_ex.c ****   * @retval None
2155:Drivers/STM32F4xx_HAL_Driver/Src/stm32f4xx_hal_tim_ex.c ****   */
2156:Drivers/STM32F4xx_HAL_Driver/Src/stm32f4xx_hal_tim_ex.c **** __weak void HAL_TIMEx_CommutCallback(TIM_HandleTypeDef *htim)
2157:Drivers/STM32F4xx_HAL_Driver/Src/stm32f4xx_hal_tim_ex.c **** {
 5930              		.loc 1 2157 1
 5931              		.cfi_startproc
 5932              		@ args = 0, pretend = 0, frame = 8
 5933              		@ frame_needed = 1, uses_anonymous_args = 0
 5934              		@ link register save eliminated.
ARM GAS  C:\Users\DAELT-~1\AppData\Local\Temp\cc2rhEX6.s 			page 142


 5935 0000 80B4     		push	{r7}
 5936              	.LCFI168:
 5937              		.cfi_def_cfa_offset 4
 5938              		.cfi_offset 7, -4
 5939 0002 83B0     		sub	sp, sp, #12
 5940              	.LCFI169:
 5941              		.cfi_def_cfa_offset 16
 5942 0004 00AF     		add	r7, sp, #0
 5943              	.LCFI170:
 5944              		.cfi_def_cfa_register 7
 5945 0006 7860     		str	r0, [r7, #4]
2158:Drivers/STM32F4xx_HAL_Driver/Src/stm32f4xx_hal_tim_ex.c ****   /* Prevent unused argument(s) compilation warning */
2159:Drivers/STM32F4xx_HAL_Driver/Src/stm32f4xx_hal_tim_ex.c ****   UNUSED(htim);
2160:Drivers/STM32F4xx_HAL_Driver/Src/stm32f4xx_hal_tim_ex.c **** 
2161:Drivers/STM32F4xx_HAL_Driver/Src/stm32f4xx_hal_tim_ex.c ****   /* NOTE : This function should not be modified, when the callback is needed,
2162:Drivers/STM32F4xx_HAL_Driver/Src/stm32f4xx_hal_tim_ex.c ****             the HAL_TIMEx_CommutCallback could be implemented in the user file
2163:Drivers/STM32F4xx_HAL_Driver/Src/stm32f4xx_hal_tim_ex.c ****    */
2164:Drivers/STM32F4xx_HAL_Driver/Src/stm32f4xx_hal_tim_ex.c **** }
 5946              		.loc 1 2164 1
 5947 0008 00BF     		nop
 5948 000a 0C37     		adds	r7, r7, #12
 5949              	.LCFI171:
 5950              		.cfi_def_cfa_offset 4
 5951 000c BD46     		mov	sp, r7
 5952              	.LCFI172:
 5953              		.cfi_def_cfa_register 13
 5954              		@ sp needed
 5955 000e 5DF8047B 		ldr	r7, [sp], #4
 5956              	.LCFI173:
 5957              		.cfi_restore 7
 5958              		.cfi_def_cfa_offset 0
 5959 0012 7047     		bx	lr
 5960              		.cfi_endproc
 5961              	.LFE162:
 5963              		.section	.text.HAL_TIMEx_CommutHalfCpltCallback,"ax",%progbits
 5964              		.align	1
 5965              		.weak	HAL_TIMEx_CommutHalfCpltCallback
 5966              		.syntax unified
 5967              		.thumb
 5968              		.thumb_func
 5970              	HAL_TIMEx_CommutHalfCpltCallback:
 5971              	.LFB163:
2165:Drivers/STM32F4xx_HAL_Driver/Src/stm32f4xx_hal_tim_ex.c **** /**
2166:Drivers/STM32F4xx_HAL_Driver/Src/stm32f4xx_hal_tim_ex.c ****   * @brief  Hall commutation changed half complete callback in non-blocking mode
2167:Drivers/STM32F4xx_HAL_Driver/Src/stm32f4xx_hal_tim_ex.c ****   * @param  htim TIM handle
2168:Drivers/STM32F4xx_HAL_Driver/Src/stm32f4xx_hal_tim_ex.c ****   * @retval None
2169:Drivers/STM32F4xx_HAL_Driver/Src/stm32f4xx_hal_tim_ex.c ****   */
2170:Drivers/STM32F4xx_HAL_Driver/Src/stm32f4xx_hal_tim_ex.c **** __weak void HAL_TIMEx_CommutHalfCpltCallback(TIM_HandleTypeDef *htim)
2171:Drivers/STM32F4xx_HAL_Driver/Src/stm32f4xx_hal_tim_ex.c **** {
 5972              		.loc 1 2171 1
 5973              		.cfi_startproc
 5974              		@ args = 0, pretend = 0, frame = 8
 5975              		@ frame_needed = 1, uses_anonymous_args = 0
 5976              		@ link register save eliminated.
 5977 0000 80B4     		push	{r7}
 5978              	.LCFI174:
 5979              		.cfi_def_cfa_offset 4
ARM GAS  C:\Users\DAELT-~1\AppData\Local\Temp\cc2rhEX6.s 			page 143


 5980              		.cfi_offset 7, -4
 5981 0002 83B0     		sub	sp, sp, #12
 5982              	.LCFI175:
 5983              		.cfi_def_cfa_offset 16
 5984 0004 00AF     		add	r7, sp, #0
 5985              	.LCFI176:
 5986              		.cfi_def_cfa_register 7
 5987 0006 7860     		str	r0, [r7, #4]
2172:Drivers/STM32F4xx_HAL_Driver/Src/stm32f4xx_hal_tim_ex.c ****   /* Prevent unused argument(s) compilation warning */
2173:Drivers/STM32F4xx_HAL_Driver/Src/stm32f4xx_hal_tim_ex.c ****   UNUSED(htim);
2174:Drivers/STM32F4xx_HAL_Driver/Src/stm32f4xx_hal_tim_ex.c **** 
2175:Drivers/STM32F4xx_HAL_Driver/Src/stm32f4xx_hal_tim_ex.c ****   /* NOTE : This function should not be modified, when the callback is needed,
2176:Drivers/STM32F4xx_HAL_Driver/Src/stm32f4xx_hal_tim_ex.c ****             the HAL_TIMEx_CommutHalfCpltCallback could be implemented in the user file
2177:Drivers/STM32F4xx_HAL_Driver/Src/stm32f4xx_hal_tim_ex.c ****    */
2178:Drivers/STM32F4xx_HAL_Driver/Src/stm32f4xx_hal_tim_ex.c **** }
 5988              		.loc 1 2178 1
 5989 0008 00BF     		nop
 5990 000a 0C37     		adds	r7, r7, #12
 5991              	.LCFI177:
 5992              		.cfi_def_cfa_offset 4
 5993 000c BD46     		mov	sp, r7
 5994              	.LCFI178:
 5995              		.cfi_def_cfa_register 13
 5996              		@ sp needed
 5997 000e 5DF8047B 		ldr	r7, [sp], #4
 5998              	.LCFI179:
 5999              		.cfi_restore 7
 6000              		.cfi_def_cfa_offset 0
 6001 0012 7047     		bx	lr
 6002              		.cfi_endproc
 6003              	.LFE163:
 6005              		.section	.text.HAL_TIMEx_BreakCallback,"ax",%progbits
 6006              		.align	1
 6007              		.weak	HAL_TIMEx_BreakCallback
 6008              		.syntax unified
 6009              		.thumb
 6010              		.thumb_func
 6012              	HAL_TIMEx_BreakCallback:
 6013              	.LFB164:
2179:Drivers/STM32F4xx_HAL_Driver/Src/stm32f4xx_hal_tim_ex.c **** 
2180:Drivers/STM32F4xx_HAL_Driver/Src/stm32f4xx_hal_tim_ex.c **** /**
2181:Drivers/STM32F4xx_HAL_Driver/Src/stm32f4xx_hal_tim_ex.c ****   * @brief  Hall Break detection callback in non-blocking mode
2182:Drivers/STM32F4xx_HAL_Driver/Src/stm32f4xx_hal_tim_ex.c ****   * @param  htim TIM handle
2183:Drivers/STM32F4xx_HAL_Driver/Src/stm32f4xx_hal_tim_ex.c ****   * @retval None
2184:Drivers/STM32F4xx_HAL_Driver/Src/stm32f4xx_hal_tim_ex.c ****   */
2185:Drivers/STM32F4xx_HAL_Driver/Src/stm32f4xx_hal_tim_ex.c **** __weak void HAL_TIMEx_BreakCallback(TIM_HandleTypeDef *htim)
2186:Drivers/STM32F4xx_HAL_Driver/Src/stm32f4xx_hal_tim_ex.c **** {
 6014              		.loc 1 2186 1
 6015              		.cfi_startproc
 6016              		@ args = 0, pretend = 0, frame = 8
 6017              		@ frame_needed = 1, uses_anonymous_args = 0
 6018              		@ link register save eliminated.
 6019 0000 80B4     		push	{r7}
 6020              	.LCFI180:
 6021              		.cfi_def_cfa_offset 4
 6022              		.cfi_offset 7, -4
 6023 0002 83B0     		sub	sp, sp, #12
ARM GAS  C:\Users\DAELT-~1\AppData\Local\Temp\cc2rhEX6.s 			page 144


 6024              	.LCFI181:
 6025              		.cfi_def_cfa_offset 16
 6026 0004 00AF     		add	r7, sp, #0
 6027              	.LCFI182:
 6028              		.cfi_def_cfa_register 7
 6029 0006 7860     		str	r0, [r7, #4]
2187:Drivers/STM32F4xx_HAL_Driver/Src/stm32f4xx_hal_tim_ex.c ****   /* Prevent unused argument(s) compilation warning */
2188:Drivers/STM32F4xx_HAL_Driver/Src/stm32f4xx_hal_tim_ex.c ****   UNUSED(htim);
2189:Drivers/STM32F4xx_HAL_Driver/Src/stm32f4xx_hal_tim_ex.c **** 
2190:Drivers/STM32F4xx_HAL_Driver/Src/stm32f4xx_hal_tim_ex.c ****   /* NOTE : This function should not be modified, when the callback is needed,
2191:Drivers/STM32F4xx_HAL_Driver/Src/stm32f4xx_hal_tim_ex.c ****             the HAL_TIMEx_BreakCallback could be implemented in the user file
2192:Drivers/STM32F4xx_HAL_Driver/Src/stm32f4xx_hal_tim_ex.c ****    */
2193:Drivers/STM32F4xx_HAL_Driver/Src/stm32f4xx_hal_tim_ex.c **** }
 6030              		.loc 1 2193 1
 6031 0008 00BF     		nop
 6032 000a 0C37     		adds	r7, r7, #12
 6033              	.LCFI183:
 6034              		.cfi_def_cfa_offset 4
 6035 000c BD46     		mov	sp, r7
 6036              	.LCFI184:
 6037              		.cfi_def_cfa_register 13
 6038              		@ sp needed
 6039 000e 5DF8047B 		ldr	r7, [sp], #4
 6040              	.LCFI185:
 6041              		.cfi_restore 7
 6042              		.cfi_def_cfa_offset 0
 6043 0012 7047     		bx	lr
 6044              		.cfi_endproc
 6045              	.LFE164:
 6047              		.section	.text.HAL_TIMEx_HallSensor_GetState,"ax",%progbits
 6048              		.align	1
 6049              		.global	HAL_TIMEx_HallSensor_GetState
 6050              		.syntax unified
 6051              		.thumb
 6052              		.thumb_func
 6054              	HAL_TIMEx_HallSensor_GetState:
 6055              	.LFB165:
2194:Drivers/STM32F4xx_HAL_Driver/Src/stm32f4xx_hal_tim_ex.c **** /**
2195:Drivers/STM32F4xx_HAL_Driver/Src/stm32f4xx_hal_tim_ex.c ****   * @}
2196:Drivers/STM32F4xx_HAL_Driver/Src/stm32f4xx_hal_tim_ex.c ****   */
2197:Drivers/STM32F4xx_HAL_Driver/Src/stm32f4xx_hal_tim_ex.c **** 
2198:Drivers/STM32F4xx_HAL_Driver/Src/stm32f4xx_hal_tim_ex.c **** /** @defgroup TIMEx_Exported_Functions_Group7 Extended Peripheral State functions
2199:Drivers/STM32F4xx_HAL_Driver/Src/stm32f4xx_hal_tim_ex.c ****   * @brief    Extended Peripheral State functions
2200:Drivers/STM32F4xx_HAL_Driver/Src/stm32f4xx_hal_tim_ex.c ****   *
2201:Drivers/STM32F4xx_HAL_Driver/Src/stm32f4xx_hal_tim_ex.c **** @verbatim
2202:Drivers/STM32F4xx_HAL_Driver/Src/stm32f4xx_hal_tim_ex.c ****   ==============================================================================
2203:Drivers/STM32F4xx_HAL_Driver/Src/stm32f4xx_hal_tim_ex.c ****                 ##### Extended Peripheral State functions #####
2204:Drivers/STM32F4xx_HAL_Driver/Src/stm32f4xx_hal_tim_ex.c ****   ==============================================================================
2205:Drivers/STM32F4xx_HAL_Driver/Src/stm32f4xx_hal_tim_ex.c ****   [..]
2206:Drivers/STM32F4xx_HAL_Driver/Src/stm32f4xx_hal_tim_ex.c ****     This subsection permits to get in run-time the status of the peripheral
2207:Drivers/STM32F4xx_HAL_Driver/Src/stm32f4xx_hal_tim_ex.c ****     and the data flow.
2208:Drivers/STM32F4xx_HAL_Driver/Src/stm32f4xx_hal_tim_ex.c **** 
2209:Drivers/STM32F4xx_HAL_Driver/Src/stm32f4xx_hal_tim_ex.c **** @endverbatim
2210:Drivers/STM32F4xx_HAL_Driver/Src/stm32f4xx_hal_tim_ex.c ****   * @{
2211:Drivers/STM32F4xx_HAL_Driver/Src/stm32f4xx_hal_tim_ex.c ****   */
2212:Drivers/STM32F4xx_HAL_Driver/Src/stm32f4xx_hal_tim_ex.c **** 
2213:Drivers/STM32F4xx_HAL_Driver/Src/stm32f4xx_hal_tim_ex.c **** /**
ARM GAS  C:\Users\DAELT-~1\AppData\Local\Temp\cc2rhEX6.s 			page 145


2214:Drivers/STM32F4xx_HAL_Driver/Src/stm32f4xx_hal_tim_ex.c ****   * @brief  Return the TIM Hall Sensor interface handle state.
2215:Drivers/STM32F4xx_HAL_Driver/Src/stm32f4xx_hal_tim_ex.c ****   * @param  htim TIM Hall Sensor handle
2216:Drivers/STM32F4xx_HAL_Driver/Src/stm32f4xx_hal_tim_ex.c ****   * @retval HAL state
2217:Drivers/STM32F4xx_HAL_Driver/Src/stm32f4xx_hal_tim_ex.c ****   */
2218:Drivers/STM32F4xx_HAL_Driver/Src/stm32f4xx_hal_tim_ex.c **** HAL_TIM_StateTypeDef HAL_TIMEx_HallSensor_GetState(TIM_HandleTypeDef *htim)
2219:Drivers/STM32F4xx_HAL_Driver/Src/stm32f4xx_hal_tim_ex.c **** {
 6056              		.loc 1 2219 1
 6057              		.cfi_startproc
 6058              		@ args = 0, pretend = 0, frame = 8
 6059              		@ frame_needed = 1, uses_anonymous_args = 0
 6060              		@ link register save eliminated.
 6061 0000 80B4     		push	{r7}
 6062              	.LCFI186:
 6063              		.cfi_def_cfa_offset 4
 6064              		.cfi_offset 7, -4
 6065 0002 83B0     		sub	sp, sp, #12
 6066              	.LCFI187:
 6067              		.cfi_def_cfa_offset 16
 6068 0004 00AF     		add	r7, sp, #0
 6069              	.LCFI188:
 6070              		.cfi_def_cfa_register 7
 6071 0006 7860     		str	r0, [r7, #4]
2220:Drivers/STM32F4xx_HAL_Driver/Src/stm32f4xx_hal_tim_ex.c ****   return htim->State;
 6072              		.loc 1 2220 14
 6073 0008 7B68     		ldr	r3, [r7, #4]
 6074 000a 93F83D30 		ldrb	r3, [r3, #61]
 6075 000e DBB2     		uxtb	r3, r3
2221:Drivers/STM32F4xx_HAL_Driver/Src/stm32f4xx_hal_tim_ex.c **** }
 6076              		.loc 1 2221 1
 6077 0010 1846     		mov	r0, r3
 6078 0012 0C37     		adds	r7, r7, #12
 6079              	.LCFI189:
 6080              		.cfi_def_cfa_offset 4
 6081 0014 BD46     		mov	sp, r7
 6082              	.LCFI190:
 6083              		.cfi_def_cfa_register 13
 6084              		@ sp needed
 6085 0016 5DF8047B 		ldr	r7, [sp], #4
 6086              	.LCFI191:
 6087              		.cfi_restore 7
 6088              		.cfi_def_cfa_offset 0
 6089 001a 7047     		bx	lr
 6090              		.cfi_endproc
 6091              	.LFE165:
 6093              		.section	.text.HAL_TIMEx_GetChannelNState,"ax",%progbits
 6094              		.align	1
 6095              		.global	HAL_TIMEx_GetChannelNState
 6096              		.syntax unified
 6097              		.thumb
 6098              		.thumb_func
 6100              	HAL_TIMEx_GetChannelNState:
 6101              	.LFB166:
2222:Drivers/STM32F4xx_HAL_Driver/Src/stm32f4xx_hal_tim_ex.c **** 
2223:Drivers/STM32F4xx_HAL_Driver/Src/stm32f4xx_hal_tim_ex.c **** /**
2224:Drivers/STM32F4xx_HAL_Driver/Src/stm32f4xx_hal_tim_ex.c ****   * @brief  Return actual state of the TIM complementary channel.
2225:Drivers/STM32F4xx_HAL_Driver/Src/stm32f4xx_hal_tim_ex.c ****   * @param  htim TIM handle
2226:Drivers/STM32F4xx_HAL_Driver/Src/stm32f4xx_hal_tim_ex.c ****   * @param  ChannelN TIM Complementary channel
ARM GAS  C:\Users\DAELT-~1\AppData\Local\Temp\cc2rhEX6.s 			page 146


2227:Drivers/STM32F4xx_HAL_Driver/Src/stm32f4xx_hal_tim_ex.c ****   *          This parameter can be one of the following values:
2228:Drivers/STM32F4xx_HAL_Driver/Src/stm32f4xx_hal_tim_ex.c ****   *            @arg TIM_CHANNEL_1: TIM Channel 1
2229:Drivers/STM32F4xx_HAL_Driver/Src/stm32f4xx_hal_tim_ex.c ****   *            @arg TIM_CHANNEL_2: TIM Channel 2
2230:Drivers/STM32F4xx_HAL_Driver/Src/stm32f4xx_hal_tim_ex.c ****   *            @arg TIM_CHANNEL_3: TIM Channel 3
2231:Drivers/STM32F4xx_HAL_Driver/Src/stm32f4xx_hal_tim_ex.c ****   * @retval TIM Complementary channel state
2232:Drivers/STM32F4xx_HAL_Driver/Src/stm32f4xx_hal_tim_ex.c ****   */
2233:Drivers/STM32F4xx_HAL_Driver/Src/stm32f4xx_hal_tim_ex.c **** HAL_TIM_ChannelStateTypeDef HAL_TIMEx_GetChannelNState(TIM_HandleTypeDef *htim,  uint32_t ChannelN)
2234:Drivers/STM32F4xx_HAL_Driver/Src/stm32f4xx_hal_tim_ex.c **** {
 6102              		.loc 1 2234 1
 6103              		.cfi_startproc
 6104              		@ args = 0, pretend = 0, frame = 16
 6105              		@ frame_needed = 1, uses_anonymous_args = 0
 6106              		@ link register save eliminated.
 6107 0000 80B4     		push	{r7}
 6108              	.LCFI192:
 6109              		.cfi_def_cfa_offset 4
 6110              		.cfi_offset 7, -4
 6111 0002 85B0     		sub	sp, sp, #20
 6112              	.LCFI193:
 6113              		.cfi_def_cfa_offset 24
 6114 0004 00AF     		add	r7, sp, #0
 6115              	.LCFI194:
 6116              		.cfi_def_cfa_register 7
 6117 0006 7860     		str	r0, [r7, #4]
 6118 0008 3960     		str	r1, [r7]
2235:Drivers/STM32F4xx_HAL_Driver/Src/stm32f4xx_hal_tim_ex.c ****   HAL_TIM_ChannelStateTypeDef channel_state;
2236:Drivers/STM32F4xx_HAL_Driver/Src/stm32f4xx_hal_tim_ex.c **** 
2237:Drivers/STM32F4xx_HAL_Driver/Src/stm32f4xx_hal_tim_ex.c ****   /* Check the parameters */
2238:Drivers/STM32F4xx_HAL_Driver/Src/stm32f4xx_hal_tim_ex.c ****   assert_param(IS_TIM_CCXN_INSTANCE(htim->Instance, ChannelN));
2239:Drivers/STM32F4xx_HAL_Driver/Src/stm32f4xx_hal_tim_ex.c **** 
2240:Drivers/STM32F4xx_HAL_Driver/Src/stm32f4xx_hal_tim_ex.c ****   channel_state = TIM_CHANNEL_N_STATE_GET(htim, ChannelN);
 6119              		.loc 1 2240 19
 6120 000a 3B68     		ldr	r3, [r7]
 6121 000c 002B     		cmp	r3, #0
 6122 000e 04D1     		bne	.L365
 6123              		.loc 1 2240 19 is_stmt 0 discriminator 1
 6124 0010 7B68     		ldr	r3, [r7, #4]
 6125 0012 93F84230 		ldrb	r3, [r3, #66]
 6126 0016 DBB2     		uxtb	r3, r3
 6127 0018 13E0     		b	.L366
 6128              	.L365:
 6129              		.loc 1 2240 19 discriminator 2
 6130 001a 3B68     		ldr	r3, [r7]
 6131 001c 042B     		cmp	r3, #4
 6132 001e 04D1     		bne	.L367
 6133              		.loc 1 2240 19 discriminator 4
 6134 0020 7B68     		ldr	r3, [r7, #4]
 6135 0022 93F84330 		ldrb	r3, [r3, #67]
 6136 0026 DBB2     		uxtb	r3, r3
 6137 0028 0BE0     		b	.L366
 6138              	.L367:
 6139              		.loc 1 2240 19 discriminator 5
 6140 002a 3B68     		ldr	r3, [r7]
 6141 002c 082B     		cmp	r3, #8
 6142 002e 04D1     		bne	.L369
 6143              		.loc 1 2240 19 discriminator 7
 6144 0030 7B68     		ldr	r3, [r7, #4]
ARM GAS  C:\Users\DAELT-~1\AppData\Local\Temp\cc2rhEX6.s 			page 147


 6145 0032 93F84430 		ldrb	r3, [r3, #68]
 6146 0036 DBB2     		uxtb	r3, r3
 6147 0038 03E0     		b	.L366
 6148              	.L369:
 6149              		.loc 1 2240 19 discriminator 8
 6150 003a 7B68     		ldr	r3, [r7, #4]
 6151 003c 93F84530 		ldrb	r3, [r3, #69]
 6152 0040 DBB2     		uxtb	r3, r3
 6153              	.L366:
 6154              		.loc 1 2240 17 is_stmt 1 discriminator 12
 6155 0042 FB73     		strb	r3, [r7, #15]
2241:Drivers/STM32F4xx_HAL_Driver/Src/stm32f4xx_hal_tim_ex.c **** 
2242:Drivers/STM32F4xx_HAL_Driver/Src/stm32f4xx_hal_tim_ex.c ****   return channel_state;
 6156              		.loc 1 2242 10
 6157 0044 FB7B     		ldrb	r3, [r7, #15]	@ zero_extendqisi2
2243:Drivers/STM32F4xx_HAL_Driver/Src/stm32f4xx_hal_tim_ex.c **** }
 6158              		.loc 1 2243 1
 6159 0046 1846     		mov	r0, r3
 6160 0048 1437     		adds	r7, r7, #20
 6161              	.LCFI195:
 6162              		.cfi_def_cfa_offset 4
 6163 004a BD46     		mov	sp, r7
 6164              	.LCFI196:
 6165              		.cfi_def_cfa_register 13
 6166              		@ sp needed
 6167 004c 5DF8047B 		ldr	r7, [sp], #4
 6168              	.LCFI197:
 6169              		.cfi_restore 7
 6170              		.cfi_def_cfa_offset 0
 6171 0050 7047     		bx	lr
 6172              		.cfi_endproc
 6173              	.LFE166:
 6175              		.section	.text.TIMEx_DMACommutationCplt,"ax",%progbits
 6176              		.align	1
 6177              		.global	TIMEx_DMACommutationCplt
 6178              		.syntax unified
 6179              		.thumb
 6180              		.thumb_func
 6182              	TIMEx_DMACommutationCplt:
 6183              	.LFB167:
2244:Drivers/STM32F4xx_HAL_Driver/Src/stm32f4xx_hal_tim_ex.c **** /**
2245:Drivers/STM32F4xx_HAL_Driver/Src/stm32f4xx_hal_tim_ex.c ****   * @}
2246:Drivers/STM32F4xx_HAL_Driver/Src/stm32f4xx_hal_tim_ex.c ****   */
2247:Drivers/STM32F4xx_HAL_Driver/Src/stm32f4xx_hal_tim_ex.c **** 
2248:Drivers/STM32F4xx_HAL_Driver/Src/stm32f4xx_hal_tim_ex.c **** /**
2249:Drivers/STM32F4xx_HAL_Driver/Src/stm32f4xx_hal_tim_ex.c ****   * @}
2250:Drivers/STM32F4xx_HAL_Driver/Src/stm32f4xx_hal_tim_ex.c ****   */
2251:Drivers/STM32F4xx_HAL_Driver/Src/stm32f4xx_hal_tim_ex.c **** 
2252:Drivers/STM32F4xx_HAL_Driver/Src/stm32f4xx_hal_tim_ex.c **** /* Private functions ---------------------------------------------------------*/
2253:Drivers/STM32F4xx_HAL_Driver/Src/stm32f4xx_hal_tim_ex.c **** /** @defgroup TIMEx_Private_Functions TIM Extended Private Functions
2254:Drivers/STM32F4xx_HAL_Driver/Src/stm32f4xx_hal_tim_ex.c ****   * @{
2255:Drivers/STM32F4xx_HAL_Driver/Src/stm32f4xx_hal_tim_ex.c ****   */
2256:Drivers/STM32F4xx_HAL_Driver/Src/stm32f4xx_hal_tim_ex.c **** 
2257:Drivers/STM32F4xx_HAL_Driver/Src/stm32f4xx_hal_tim_ex.c **** /**
2258:Drivers/STM32F4xx_HAL_Driver/Src/stm32f4xx_hal_tim_ex.c ****   * @brief  TIM DMA Commutation callback.
2259:Drivers/STM32F4xx_HAL_Driver/Src/stm32f4xx_hal_tim_ex.c ****   * @param  hdma pointer to DMA handle.
2260:Drivers/STM32F4xx_HAL_Driver/Src/stm32f4xx_hal_tim_ex.c ****   * @retval None
ARM GAS  C:\Users\DAELT-~1\AppData\Local\Temp\cc2rhEX6.s 			page 148


2261:Drivers/STM32F4xx_HAL_Driver/Src/stm32f4xx_hal_tim_ex.c ****   */
2262:Drivers/STM32F4xx_HAL_Driver/Src/stm32f4xx_hal_tim_ex.c **** void TIMEx_DMACommutationCplt(DMA_HandleTypeDef *hdma)
2263:Drivers/STM32F4xx_HAL_Driver/Src/stm32f4xx_hal_tim_ex.c **** {
 6184              		.loc 1 2263 1
 6185              		.cfi_startproc
 6186              		@ args = 0, pretend = 0, frame = 16
 6187              		@ frame_needed = 1, uses_anonymous_args = 0
 6188 0000 80B5     		push	{r7, lr}
 6189              	.LCFI198:
 6190              		.cfi_def_cfa_offset 8
 6191              		.cfi_offset 7, -8
 6192              		.cfi_offset 14, -4
 6193 0002 84B0     		sub	sp, sp, #16
 6194              	.LCFI199:
 6195              		.cfi_def_cfa_offset 24
 6196 0004 00AF     		add	r7, sp, #0
 6197              	.LCFI200:
 6198              		.cfi_def_cfa_register 7
 6199 0006 7860     		str	r0, [r7, #4]
2264:Drivers/STM32F4xx_HAL_Driver/Src/stm32f4xx_hal_tim_ex.c ****   TIM_HandleTypeDef *htim = (TIM_HandleTypeDef *)((DMA_HandleTypeDef *)hdma)->Parent;
 6200              		.loc 1 2264 22
 6201 0008 7B68     		ldr	r3, [r7, #4]
 6202 000a 9B6B     		ldr	r3, [r3, #56]
 6203 000c FB60     		str	r3, [r7, #12]
2265:Drivers/STM32F4xx_HAL_Driver/Src/stm32f4xx_hal_tim_ex.c **** 
2266:Drivers/STM32F4xx_HAL_Driver/Src/stm32f4xx_hal_tim_ex.c ****   /* Change the htim state */
2267:Drivers/STM32F4xx_HAL_Driver/Src/stm32f4xx_hal_tim_ex.c ****   htim->State = HAL_TIM_STATE_READY;
 6204              		.loc 1 2267 15
 6205 000e FB68     		ldr	r3, [r7, #12]
 6206 0010 0122     		movs	r2, #1
 6207 0012 83F83D20 		strb	r2, [r3, #61]
2268:Drivers/STM32F4xx_HAL_Driver/Src/stm32f4xx_hal_tim_ex.c **** 
2269:Drivers/STM32F4xx_HAL_Driver/Src/stm32f4xx_hal_tim_ex.c **** #if (USE_HAL_TIM_REGISTER_CALLBACKS == 1)
2270:Drivers/STM32F4xx_HAL_Driver/Src/stm32f4xx_hal_tim_ex.c ****   htim->CommutationCallback(htim);
2271:Drivers/STM32F4xx_HAL_Driver/Src/stm32f4xx_hal_tim_ex.c **** #else
2272:Drivers/STM32F4xx_HAL_Driver/Src/stm32f4xx_hal_tim_ex.c ****   HAL_TIMEx_CommutCallback(htim);
 6208              		.loc 1 2272 3
 6209 0016 F868     		ldr	r0, [r7, #12]
 6210 0018 FFF7FEFF 		bl	HAL_TIMEx_CommutCallback
2273:Drivers/STM32F4xx_HAL_Driver/Src/stm32f4xx_hal_tim_ex.c **** #endif /* USE_HAL_TIM_REGISTER_CALLBACKS */
2274:Drivers/STM32F4xx_HAL_Driver/Src/stm32f4xx_hal_tim_ex.c **** }
 6211              		.loc 1 2274 1
 6212 001c 00BF     		nop
 6213 001e 1037     		adds	r7, r7, #16
 6214              	.LCFI201:
 6215              		.cfi_def_cfa_offset 8
 6216 0020 BD46     		mov	sp, r7
 6217              	.LCFI202:
 6218              		.cfi_def_cfa_register 13
 6219              		@ sp needed
 6220 0022 80BD     		pop	{r7, pc}
 6221              		.cfi_endproc
 6222              	.LFE167:
 6224              		.section	.text.TIMEx_DMACommutationHalfCplt,"ax",%progbits
 6225              		.align	1
 6226              		.global	TIMEx_DMACommutationHalfCplt
 6227              		.syntax unified
ARM GAS  C:\Users\DAELT-~1\AppData\Local\Temp\cc2rhEX6.s 			page 149


 6228              		.thumb
 6229              		.thumb_func
 6231              	TIMEx_DMACommutationHalfCplt:
 6232              	.LFB168:
2275:Drivers/STM32F4xx_HAL_Driver/Src/stm32f4xx_hal_tim_ex.c **** 
2276:Drivers/STM32F4xx_HAL_Driver/Src/stm32f4xx_hal_tim_ex.c **** /**
2277:Drivers/STM32F4xx_HAL_Driver/Src/stm32f4xx_hal_tim_ex.c ****   * @brief  TIM DMA Commutation half complete callback.
2278:Drivers/STM32F4xx_HAL_Driver/Src/stm32f4xx_hal_tim_ex.c ****   * @param  hdma pointer to DMA handle.
2279:Drivers/STM32F4xx_HAL_Driver/Src/stm32f4xx_hal_tim_ex.c ****   * @retval None
2280:Drivers/STM32F4xx_HAL_Driver/Src/stm32f4xx_hal_tim_ex.c ****   */
2281:Drivers/STM32F4xx_HAL_Driver/Src/stm32f4xx_hal_tim_ex.c **** void TIMEx_DMACommutationHalfCplt(DMA_HandleTypeDef *hdma)
2282:Drivers/STM32F4xx_HAL_Driver/Src/stm32f4xx_hal_tim_ex.c **** {
 6233              		.loc 1 2282 1
 6234              		.cfi_startproc
 6235              		@ args = 0, pretend = 0, frame = 16
 6236              		@ frame_needed = 1, uses_anonymous_args = 0
 6237 0000 80B5     		push	{r7, lr}
 6238              	.LCFI203:
 6239              		.cfi_def_cfa_offset 8
 6240              		.cfi_offset 7, -8
 6241              		.cfi_offset 14, -4
 6242 0002 84B0     		sub	sp, sp, #16
 6243              	.LCFI204:
 6244              		.cfi_def_cfa_offset 24
 6245 0004 00AF     		add	r7, sp, #0
 6246              	.LCFI205:
 6247              		.cfi_def_cfa_register 7
 6248 0006 7860     		str	r0, [r7, #4]
2283:Drivers/STM32F4xx_HAL_Driver/Src/stm32f4xx_hal_tim_ex.c ****   TIM_HandleTypeDef *htim = (TIM_HandleTypeDef *)((DMA_HandleTypeDef *)hdma)->Parent;
 6249              		.loc 1 2283 22
 6250 0008 7B68     		ldr	r3, [r7, #4]
 6251 000a 9B6B     		ldr	r3, [r3, #56]
 6252 000c FB60     		str	r3, [r7, #12]
2284:Drivers/STM32F4xx_HAL_Driver/Src/stm32f4xx_hal_tim_ex.c **** 
2285:Drivers/STM32F4xx_HAL_Driver/Src/stm32f4xx_hal_tim_ex.c ****   /* Change the htim state */
2286:Drivers/STM32F4xx_HAL_Driver/Src/stm32f4xx_hal_tim_ex.c ****   htim->State = HAL_TIM_STATE_READY;
 6253              		.loc 1 2286 15
 6254 000e FB68     		ldr	r3, [r7, #12]
 6255 0010 0122     		movs	r2, #1
 6256 0012 83F83D20 		strb	r2, [r3, #61]
2287:Drivers/STM32F4xx_HAL_Driver/Src/stm32f4xx_hal_tim_ex.c **** 
2288:Drivers/STM32F4xx_HAL_Driver/Src/stm32f4xx_hal_tim_ex.c **** #if (USE_HAL_TIM_REGISTER_CALLBACKS == 1)
2289:Drivers/STM32F4xx_HAL_Driver/Src/stm32f4xx_hal_tim_ex.c ****   htim->CommutationHalfCpltCallback(htim);
2290:Drivers/STM32F4xx_HAL_Driver/Src/stm32f4xx_hal_tim_ex.c **** #else
2291:Drivers/STM32F4xx_HAL_Driver/Src/stm32f4xx_hal_tim_ex.c ****   HAL_TIMEx_CommutHalfCpltCallback(htim);
 6257              		.loc 1 2291 3
 6258 0016 F868     		ldr	r0, [r7, #12]
 6259 0018 FFF7FEFF 		bl	HAL_TIMEx_CommutHalfCpltCallback
2292:Drivers/STM32F4xx_HAL_Driver/Src/stm32f4xx_hal_tim_ex.c **** #endif /* USE_HAL_TIM_REGISTER_CALLBACKS */
2293:Drivers/STM32F4xx_HAL_Driver/Src/stm32f4xx_hal_tim_ex.c **** }
 6260              		.loc 1 2293 1
 6261 001c 00BF     		nop
 6262 001e 1037     		adds	r7, r7, #16
 6263              	.LCFI206:
 6264              		.cfi_def_cfa_offset 8
 6265 0020 BD46     		mov	sp, r7
 6266              	.LCFI207:
ARM GAS  C:\Users\DAELT-~1\AppData\Local\Temp\cc2rhEX6.s 			page 150


 6267              		.cfi_def_cfa_register 13
 6268              		@ sp needed
 6269 0022 80BD     		pop	{r7, pc}
 6270              		.cfi_endproc
 6271              	.LFE168:
 6273              		.section	.text.TIM_DMADelayPulseNCplt,"ax",%progbits
 6274              		.align	1
 6275              		.syntax unified
 6276              		.thumb
 6277              		.thumb_func
 6279              	TIM_DMADelayPulseNCplt:
 6280              	.LFB169:
2294:Drivers/STM32F4xx_HAL_Driver/Src/stm32f4xx_hal_tim_ex.c **** 
2295:Drivers/STM32F4xx_HAL_Driver/Src/stm32f4xx_hal_tim_ex.c **** 
2296:Drivers/STM32F4xx_HAL_Driver/Src/stm32f4xx_hal_tim_ex.c **** /**
2297:Drivers/STM32F4xx_HAL_Driver/Src/stm32f4xx_hal_tim_ex.c ****   * @brief  TIM DMA Delay Pulse complete callback (complementary channel).
2298:Drivers/STM32F4xx_HAL_Driver/Src/stm32f4xx_hal_tim_ex.c ****   * @param  hdma pointer to DMA handle.
2299:Drivers/STM32F4xx_HAL_Driver/Src/stm32f4xx_hal_tim_ex.c ****   * @retval None
2300:Drivers/STM32F4xx_HAL_Driver/Src/stm32f4xx_hal_tim_ex.c ****   */
2301:Drivers/STM32F4xx_HAL_Driver/Src/stm32f4xx_hal_tim_ex.c **** static void TIM_DMADelayPulseNCplt(DMA_HandleTypeDef *hdma)
2302:Drivers/STM32F4xx_HAL_Driver/Src/stm32f4xx_hal_tim_ex.c **** {
 6281              		.loc 1 2302 1
 6282              		.cfi_startproc
 6283              		@ args = 0, pretend = 0, frame = 16
 6284              		@ frame_needed = 1, uses_anonymous_args = 0
 6285 0000 80B5     		push	{r7, lr}
 6286              	.LCFI208:
 6287              		.cfi_def_cfa_offset 8
 6288              		.cfi_offset 7, -8
 6289              		.cfi_offset 14, -4
 6290 0002 84B0     		sub	sp, sp, #16
 6291              	.LCFI209:
 6292              		.cfi_def_cfa_offset 24
 6293 0004 00AF     		add	r7, sp, #0
 6294              	.LCFI210:
 6295              		.cfi_def_cfa_register 7
 6296 0006 7860     		str	r0, [r7, #4]
2303:Drivers/STM32F4xx_HAL_Driver/Src/stm32f4xx_hal_tim_ex.c ****   TIM_HandleTypeDef *htim = (TIM_HandleTypeDef *)((DMA_HandleTypeDef *)hdma)->Parent;
 6297              		.loc 1 2303 22
 6298 0008 7B68     		ldr	r3, [r7, #4]
 6299 000a 9B6B     		ldr	r3, [r3, #56]
 6300 000c FB60     		str	r3, [r7, #12]
2304:Drivers/STM32F4xx_HAL_Driver/Src/stm32f4xx_hal_tim_ex.c **** 
2305:Drivers/STM32F4xx_HAL_Driver/Src/stm32f4xx_hal_tim_ex.c ****   if (hdma == htim->hdma[TIM_DMA_ID_CC1])
 6301              		.loc 1 2305 25
 6302 000e FB68     		ldr	r3, [r7, #12]
 6303 0010 5B6A     		ldr	r3, [r3, #36]
 6304              		.loc 1 2305 6
 6305 0012 7A68     		ldr	r2, [r7, #4]
 6306 0014 9A42     		cmp	r2, r3
 6307 0016 0BD1     		bne	.L375
2306:Drivers/STM32F4xx_HAL_Driver/Src/stm32f4xx_hal_tim_ex.c ****   {
2307:Drivers/STM32F4xx_HAL_Driver/Src/stm32f4xx_hal_tim_ex.c ****     htim->Channel = HAL_TIM_ACTIVE_CHANNEL_1;
 6308              		.loc 1 2307 19
 6309 0018 FB68     		ldr	r3, [r7, #12]
 6310 001a 0122     		movs	r2, #1
 6311 001c 1A77     		strb	r2, [r3, #28]
ARM GAS  C:\Users\DAELT-~1\AppData\Local\Temp\cc2rhEX6.s 			page 151


2308:Drivers/STM32F4xx_HAL_Driver/Src/stm32f4xx_hal_tim_ex.c **** 
2309:Drivers/STM32F4xx_HAL_Driver/Src/stm32f4xx_hal_tim_ex.c ****     if (hdma->Init.Mode == DMA_NORMAL)
 6312              		.loc 1 2309 19
 6313 001e 7B68     		ldr	r3, [r7, #4]
 6314 0020 DB69     		ldr	r3, [r3, #28]
 6315              		.loc 1 2309 8
 6316 0022 002B     		cmp	r3, #0
 6317 0024 36D1     		bne	.L376
2310:Drivers/STM32F4xx_HAL_Driver/Src/stm32f4xx_hal_tim_ex.c ****     {
2311:Drivers/STM32F4xx_HAL_Driver/Src/stm32f4xx_hal_tim_ex.c ****       TIM_CHANNEL_N_STATE_SET(htim, TIM_CHANNEL_1, HAL_TIM_CHANNEL_STATE_READY);
 6318              		.loc 1 2311 7
 6319 0026 FB68     		ldr	r3, [r7, #12]
 6320 0028 0122     		movs	r2, #1
 6321 002a 83F84220 		strb	r2, [r3, #66]
 6322 002e 31E0     		b	.L376
 6323              	.L375:
2312:Drivers/STM32F4xx_HAL_Driver/Src/stm32f4xx_hal_tim_ex.c ****     }
2313:Drivers/STM32F4xx_HAL_Driver/Src/stm32f4xx_hal_tim_ex.c ****   }
2314:Drivers/STM32F4xx_HAL_Driver/Src/stm32f4xx_hal_tim_ex.c ****   else if (hdma == htim->hdma[TIM_DMA_ID_CC2])
 6324              		.loc 1 2314 30
 6325 0030 FB68     		ldr	r3, [r7, #12]
 6326 0032 9B6A     		ldr	r3, [r3, #40]
 6327              		.loc 1 2314 11
 6328 0034 7A68     		ldr	r2, [r7, #4]
 6329 0036 9A42     		cmp	r2, r3
 6330 0038 0BD1     		bne	.L377
2315:Drivers/STM32F4xx_HAL_Driver/Src/stm32f4xx_hal_tim_ex.c ****   {
2316:Drivers/STM32F4xx_HAL_Driver/Src/stm32f4xx_hal_tim_ex.c ****     htim->Channel = HAL_TIM_ACTIVE_CHANNEL_2;
 6331              		.loc 1 2316 19
 6332 003a FB68     		ldr	r3, [r7, #12]
 6333 003c 0222     		movs	r2, #2
 6334 003e 1A77     		strb	r2, [r3, #28]
2317:Drivers/STM32F4xx_HAL_Driver/Src/stm32f4xx_hal_tim_ex.c **** 
2318:Drivers/STM32F4xx_HAL_Driver/Src/stm32f4xx_hal_tim_ex.c ****     if (hdma->Init.Mode == DMA_NORMAL)
 6335              		.loc 1 2318 19
 6336 0040 7B68     		ldr	r3, [r7, #4]
 6337 0042 DB69     		ldr	r3, [r3, #28]
 6338              		.loc 1 2318 8
 6339 0044 002B     		cmp	r3, #0
 6340 0046 25D1     		bne	.L376
2319:Drivers/STM32F4xx_HAL_Driver/Src/stm32f4xx_hal_tim_ex.c ****     {
2320:Drivers/STM32F4xx_HAL_Driver/Src/stm32f4xx_hal_tim_ex.c ****       TIM_CHANNEL_N_STATE_SET(htim, TIM_CHANNEL_2, HAL_TIM_CHANNEL_STATE_READY);
 6341              		.loc 1 2320 7
 6342 0048 FB68     		ldr	r3, [r7, #12]
 6343 004a 0122     		movs	r2, #1
 6344 004c 83F84320 		strb	r2, [r3, #67]
 6345 0050 20E0     		b	.L376
 6346              	.L377:
2321:Drivers/STM32F4xx_HAL_Driver/Src/stm32f4xx_hal_tim_ex.c ****     }
2322:Drivers/STM32F4xx_HAL_Driver/Src/stm32f4xx_hal_tim_ex.c ****   }
2323:Drivers/STM32F4xx_HAL_Driver/Src/stm32f4xx_hal_tim_ex.c ****   else if (hdma == htim->hdma[TIM_DMA_ID_CC3])
 6347              		.loc 1 2323 30
 6348 0052 FB68     		ldr	r3, [r7, #12]
 6349 0054 DB6A     		ldr	r3, [r3, #44]
 6350              		.loc 1 2323 11
 6351 0056 7A68     		ldr	r2, [r7, #4]
 6352 0058 9A42     		cmp	r2, r3
ARM GAS  C:\Users\DAELT-~1\AppData\Local\Temp\cc2rhEX6.s 			page 152


 6353 005a 0BD1     		bne	.L378
2324:Drivers/STM32F4xx_HAL_Driver/Src/stm32f4xx_hal_tim_ex.c ****   {
2325:Drivers/STM32F4xx_HAL_Driver/Src/stm32f4xx_hal_tim_ex.c ****     htim->Channel = HAL_TIM_ACTIVE_CHANNEL_3;
 6354              		.loc 1 2325 19
 6355 005c FB68     		ldr	r3, [r7, #12]
 6356 005e 0422     		movs	r2, #4
 6357 0060 1A77     		strb	r2, [r3, #28]
2326:Drivers/STM32F4xx_HAL_Driver/Src/stm32f4xx_hal_tim_ex.c **** 
2327:Drivers/STM32F4xx_HAL_Driver/Src/stm32f4xx_hal_tim_ex.c ****     if (hdma->Init.Mode == DMA_NORMAL)
 6358              		.loc 1 2327 19
 6359 0062 7B68     		ldr	r3, [r7, #4]
 6360 0064 DB69     		ldr	r3, [r3, #28]
 6361              		.loc 1 2327 8
 6362 0066 002B     		cmp	r3, #0
 6363 0068 14D1     		bne	.L376
2328:Drivers/STM32F4xx_HAL_Driver/Src/stm32f4xx_hal_tim_ex.c ****     {
2329:Drivers/STM32F4xx_HAL_Driver/Src/stm32f4xx_hal_tim_ex.c ****       TIM_CHANNEL_N_STATE_SET(htim, TIM_CHANNEL_3, HAL_TIM_CHANNEL_STATE_READY);
 6364              		.loc 1 2329 7
 6365 006a FB68     		ldr	r3, [r7, #12]
 6366 006c 0122     		movs	r2, #1
 6367 006e 83F84420 		strb	r2, [r3, #68]
 6368 0072 0FE0     		b	.L376
 6369              	.L378:
2330:Drivers/STM32F4xx_HAL_Driver/Src/stm32f4xx_hal_tim_ex.c ****     }
2331:Drivers/STM32F4xx_HAL_Driver/Src/stm32f4xx_hal_tim_ex.c ****   }
2332:Drivers/STM32F4xx_HAL_Driver/Src/stm32f4xx_hal_tim_ex.c ****   else if (hdma == htim->hdma[TIM_DMA_ID_CC4])
 6370              		.loc 1 2332 30
 6371 0074 FB68     		ldr	r3, [r7, #12]
 6372 0076 1B6B     		ldr	r3, [r3, #48]
 6373              		.loc 1 2332 11
 6374 0078 7A68     		ldr	r2, [r7, #4]
 6375 007a 9A42     		cmp	r2, r3
 6376 007c 0AD1     		bne	.L376
2333:Drivers/STM32F4xx_HAL_Driver/Src/stm32f4xx_hal_tim_ex.c ****   {
2334:Drivers/STM32F4xx_HAL_Driver/Src/stm32f4xx_hal_tim_ex.c ****     htim->Channel = HAL_TIM_ACTIVE_CHANNEL_4;
 6377              		.loc 1 2334 19
 6378 007e FB68     		ldr	r3, [r7, #12]
 6379 0080 0822     		movs	r2, #8
 6380 0082 1A77     		strb	r2, [r3, #28]
2335:Drivers/STM32F4xx_HAL_Driver/Src/stm32f4xx_hal_tim_ex.c **** 
2336:Drivers/STM32F4xx_HAL_Driver/Src/stm32f4xx_hal_tim_ex.c ****     if (hdma->Init.Mode == DMA_NORMAL)
 6381              		.loc 1 2336 19
 6382 0084 7B68     		ldr	r3, [r7, #4]
 6383 0086 DB69     		ldr	r3, [r3, #28]
 6384              		.loc 1 2336 8
 6385 0088 002B     		cmp	r3, #0
 6386 008a 03D1     		bne	.L376
2337:Drivers/STM32F4xx_HAL_Driver/Src/stm32f4xx_hal_tim_ex.c ****     {
2338:Drivers/STM32F4xx_HAL_Driver/Src/stm32f4xx_hal_tim_ex.c ****       TIM_CHANNEL_N_STATE_SET(htim, TIM_CHANNEL_4, HAL_TIM_CHANNEL_STATE_READY);
 6387              		.loc 1 2338 7
 6388 008c FB68     		ldr	r3, [r7, #12]
 6389 008e 0122     		movs	r2, #1
 6390 0090 83F84520 		strb	r2, [r3, #69]
 6391              	.L376:
2339:Drivers/STM32F4xx_HAL_Driver/Src/stm32f4xx_hal_tim_ex.c ****     }
2340:Drivers/STM32F4xx_HAL_Driver/Src/stm32f4xx_hal_tim_ex.c ****   }
2341:Drivers/STM32F4xx_HAL_Driver/Src/stm32f4xx_hal_tim_ex.c ****   else
ARM GAS  C:\Users\DAELT-~1\AppData\Local\Temp\cc2rhEX6.s 			page 153


2342:Drivers/STM32F4xx_HAL_Driver/Src/stm32f4xx_hal_tim_ex.c ****   {
2343:Drivers/STM32F4xx_HAL_Driver/Src/stm32f4xx_hal_tim_ex.c ****     /* nothing to do */
2344:Drivers/STM32F4xx_HAL_Driver/Src/stm32f4xx_hal_tim_ex.c ****   }
2345:Drivers/STM32F4xx_HAL_Driver/Src/stm32f4xx_hal_tim_ex.c **** 
2346:Drivers/STM32F4xx_HAL_Driver/Src/stm32f4xx_hal_tim_ex.c **** #if (USE_HAL_TIM_REGISTER_CALLBACKS == 1)
2347:Drivers/STM32F4xx_HAL_Driver/Src/stm32f4xx_hal_tim_ex.c ****   htim->PWM_PulseFinishedCallback(htim);
2348:Drivers/STM32F4xx_HAL_Driver/Src/stm32f4xx_hal_tim_ex.c **** #else
2349:Drivers/STM32F4xx_HAL_Driver/Src/stm32f4xx_hal_tim_ex.c ****   HAL_TIM_PWM_PulseFinishedCallback(htim);
 6392              		.loc 1 2349 3
 6393 0094 F868     		ldr	r0, [r7, #12]
 6394 0096 FFF7FEFF 		bl	HAL_TIM_PWM_PulseFinishedCallback
2350:Drivers/STM32F4xx_HAL_Driver/Src/stm32f4xx_hal_tim_ex.c **** #endif /* USE_HAL_TIM_REGISTER_CALLBACKS */
2351:Drivers/STM32F4xx_HAL_Driver/Src/stm32f4xx_hal_tim_ex.c **** 
2352:Drivers/STM32F4xx_HAL_Driver/Src/stm32f4xx_hal_tim_ex.c ****   htim->Channel = HAL_TIM_ACTIVE_CHANNEL_CLEARED;
 6395              		.loc 1 2352 17
 6396 009a FB68     		ldr	r3, [r7, #12]
 6397 009c 0022     		movs	r2, #0
 6398 009e 1A77     		strb	r2, [r3, #28]
2353:Drivers/STM32F4xx_HAL_Driver/Src/stm32f4xx_hal_tim_ex.c **** }
 6399              		.loc 1 2353 1
 6400 00a0 00BF     		nop
 6401 00a2 1037     		adds	r7, r7, #16
 6402              	.LCFI211:
 6403              		.cfi_def_cfa_offset 8
 6404 00a4 BD46     		mov	sp, r7
 6405              	.LCFI212:
 6406              		.cfi_def_cfa_register 13
 6407              		@ sp needed
 6408 00a6 80BD     		pop	{r7, pc}
 6409              		.cfi_endproc
 6410              	.LFE169:
 6412              		.section	.text.TIM_DMAErrorCCxN,"ax",%progbits
 6413              		.align	1
 6414              		.syntax unified
 6415              		.thumb
 6416              		.thumb_func
 6418              	TIM_DMAErrorCCxN:
 6419              	.LFB170:
2354:Drivers/STM32F4xx_HAL_Driver/Src/stm32f4xx_hal_tim_ex.c **** 
2355:Drivers/STM32F4xx_HAL_Driver/Src/stm32f4xx_hal_tim_ex.c **** /**
2356:Drivers/STM32F4xx_HAL_Driver/Src/stm32f4xx_hal_tim_ex.c ****   * @brief  TIM DMA error callback (complementary channel)
2357:Drivers/STM32F4xx_HAL_Driver/Src/stm32f4xx_hal_tim_ex.c ****   * @param  hdma pointer to DMA handle.
2358:Drivers/STM32F4xx_HAL_Driver/Src/stm32f4xx_hal_tim_ex.c ****   * @retval None
2359:Drivers/STM32F4xx_HAL_Driver/Src/stm32f4xx_hal_tim_ex.c ****   */
2360:Drivers/STM32F4xx_HAL_Driver/Src/stm32f4xx_hal_tim_ex.c **** static void TIM_DMAErrorCCxN(DMA_HandleTypeDef *hdma)
2361:Drivers/STM32F4xx_HAL_Driver/Src/stm32f4xx_hal_tim_ex.c **** {
 6420              		.loc 1 2361 1
 6421              		.cfi_startproc
 6422              		@ args = 0, pretend = 0, frame = 16
 6423              		@ frame_needed = 1, uses_anonymous_args = 0
 6424 0000 80B5     		push	{r7, lr}
 6425              	.LCFI213:
 6426              		.cfi_def_cfa_offset 8
 6427              		.cfi_offset 7, -8
 6428              		.cfi_offset 14, -4
 6429 0002 84B0     		sub	sp, sp, #16
 6430              	.LCFI214:
ARM GAS  C:\Users\DAELT-~1\AppData\Local\Temp\cc2rhEX6.s 			page 154


 6431              		.cfi_def_cfa_offset 24
 6432 0004 00AF     		add	r7, sp, #0
 6433              	.LCFI215:
 6434              		.cfi_def_cfa_register 7
 6435 0006 7860     		str	r0, [r7, #4]
2362:Drivers/STM32F4xx_HAL_Driver/Src/stm32f4xx_hal_tim_ex.c ****   TIM_HandleTypeDef *htim = (TIM_HandleTypeDef *)((DMA_HandleTypeDef *)hdma)->Parent;
 6436              		.loc 1 2362 22
 6437 0008 7B68     		ldr	r3, [r7, #4]
 6438 000a 9B6B     		ldr	r3, [r3, #56]
 6439 000c FB60     		str	r3, [r7, #12]
2363:Drivers/STM32F4xx_HAL_Driver/Src/stm32f4xx_hal_tim_ex.c **** 
2364:Drivers/STM32F4xx_HAL_Driver/Src/stm32f4xx_hal_tim_ex.c ****   if (hdma == htim->hdma[TIM_DMA_ID_CC1])
 6440              		.loc 1 2364 25
 6441 000e FB68     		ldr	r3, [r7, #12]
 6442 0010 5B6A     		ldr	r3, [r3, #36]
 6443              		.loc 1 2364 6
 6444 0012 7A68     		ldr	r2, [r7, #4]
 6445 0014 9A42     		cmp	r2, r3
 6446 0016 07D1     		bne	.L380
2365:Drivers/STM32F4xx_HAL_Driver/Src/stm32f4xx_hal_tim_ex.c ****   {
2366:Drivers/STM32F4xx_HAL_Driver/Src/stm32f4xx_hal_tim_ex.c ****     htim->Channel = HAL_TIM_ACTIVE_CHANNEL_1;
 6447              		.loc 1 2366 19
 6448 0018 FB68     		ldr	r3, [r7, #12]
 6449 001a 0122     		movs	r2, #1
 6450 001c 1A77     		strb	r2, [r3, #28]
2367:Drivers/STM32F4xx_HAL_Driver/Src/stm32f4xx_hal_tim_ex.c ****     TIM_CHANNEL_N_STATE_SET(htim, TIM_CHANNEL_1, HAL_TIM_CHANNEL_STATE_READY);
 6451              		.loc 1 2367 5
 6452 001e FB68     		ldr	r3, [r7, #12]
 6453 0020 0122     		movs	r2, #1
 6454 0022 83F84220 		strb	r2, [r3, #66]
 6455 0026 18E0     		b	.L381
 6456              	.L380:
2368:Drivers/STM32F4xx_HAL_Driver/Src/stm32f4xx_hal_tim_ex.c ****   }
2369:Drivers/STM32F4xx_HAL_Driver/Src/stm32f4xx_hal_tim_ex.c ****   else if (hdma == htim->hdma[TIM_DMA_ID_CC2])
 6457              		.loc 1 2369 30
 6458 0028 FB68     		ldr	r3, [r7, #12]
 6459 002a 9B6A     		ldr	r3, [r3, #40]
 6460              		.loc 1 2369 11
 6461 002c 7A68     		ldr	r2, [r7, #4]
 6462 002e 9A42     		cmp	r2, r3
 6463 0030 07D1     		bne	.L382
2370:Drivers/STM32F4xx_HAL_Driver/Src/stm32f4xx_hal_tim_ex.c ****   {
2371:Drivers/STM32F4xx_HAL_Driver/Src/stm32f4xx_hal_tim_ex.c ****     htim->Channel = HAL_TIM_ACTIVE_CHANNEL_2;
 6464              		.loc 1 2371 19
 6465 0032 FB68     		ldr	r3, [r7, #12]
 6466 0034 0222     		movs	r2, #2
 6467 0036 1A77     		strb	r2, [r3, #28]
2372:Drivers/STM32F4xx_HAL_Driver/Src/stm32f4xx_hal_tim_ex.c ****     TIM_CHANNEL_N_STATE_SET(htim, TIM_CHANNEL_2, HAL_TIM_CHANNEL_STATE_READY);
 6468              		.loc 1 2372 5
 6469 0038 FB68     		ldr	r3, [r7, #12]
 6470 003a 0122     		movs	r2, #1
 6471 003c 83F84320 		strb	r2, [r3, #67]
 6472 0040 0BE0     		b	.L381
 6473              	.L382:
2373:Drivers/STM32F4xx_HAL_Driver/Src/stm32f4xx_hal_tim_ex.c ****   }
2374:Drivers/STM32F4xx_HAL_Driver/Src/stm32f4xx_hal_tim_ex.c ****   else if (hdma == htim->hdma[TIM_DMA_ID_CC3])
 6474              		.loc 1 2374 30
ARM GAS  C:\Users\DAELT-~1\AppData\Local\Temp\cc2rhEX6.s 			page 155


 6475 0042 FB68     		ldr	r3, [r7, #12]
 6476 0044 DB6A     		ldr	r3, [r3, #44]
 6477              		.loc 1 2374 11
 6478 0046 7A68     		ldr	r2, [r7, #4]
 6479 0048 9A42     		cmp	r2, r3
 6480 004a 06D1     		bne	.L381
2375:Drivers/STM32F4xx_HAL_Driver/Src/stm32f4xx_hal_tim_ex.c ****   {
2376:Drivers/STM32F4xx_HAL_Driver/Src/stm32f4xx_hal_tim_ex.c ****     htim->Channel = HAL_TIM_ACTIVE_CHANNEL_3;
 6481              		.loc 1 2376 19
 6482 004c FB68     		ldr	r3, [r7, #12]
 6483 004e 0422     		movs	r2, #4
 6484 0050 1A77     		strb	r2, [r3, #28]
2377:Drivers/STM32F4xx_HAL_Driver/Src/stm32f4xx_hal_tim_ex.c ****     TIM_CHANNEL_N_STATE_SET(htim, TIM_CHANNEL_3, HAL_TIM_CHANNEL_STATE_READY);
 6485              		.loc 1 2377 5
 6486 0052 FB68     		ldr	r3, [r7, #12]
 6487 0054 0122     		movs	r2, #1
 6488 0056 83F84420 		strb	r2, [r3, #68]
 6489              	.L381:
2378:Drivers/STM32F4xx_HAL_Driver/Src/stm32f4xx_hal_tim_ex.c ****   }
2379:Drivers/STM32F4xx_HAL_Driver/Src/stm32f4xx_hal_tim_ex.c ****   else
2380:Drivers/STM32F4xx_HAL_Driver/Src/stm32f4xx_hal_tim_ex.c ****   {
2381:Drivers/STM32F4xx_HAL_Driver/Src/stm32f4xx_hal_tim_ex.c ****     /* nothing to do */
2382:Drivers/STM32F4xx_HAL_Driver/Src/stm32f4xx_hal_tim_ex.c ****   }
2383:Drivers/STM32F4xx_HAL_Driver/Src/stm32f4xx_hal_tim_ex.c **** 
2384:Drivers/STM32F4xx_HAL_Driver/Src/stm32f4xx_hal_tim_ex.c **** #if (USE_HAL_TIM_REGISTER_CALLBACKS == 1)
2385:Drivers/STM32F4xx_HAL_Driver/Src/stm32f4xx_hal_tim_ex.c ****   htim->ErrorCallback(htim);
2386:Drivers/STM32F4xx_HAL_Driver/Src/stm32f4xx_hal_tim_ex.c **** #else
2387:Drivers/STM32F4xx_HAL_Driver/Src/stm32f4xx_hal_tim_ex.c ****   HAL_TIM_ErrorCallback(htim);
 6490              		.loc 1 2387 3
 6491 005a F868     		ldr	r0, [r7, #12]
 6492 005c FFF7FEFF 		bl	HAL_TIM_ErrorCallback
2388:Drivers/STM32F4xx_HAL_Driver/Src/stm32f4xx_hal_tim_ex.c **** #endif /* USE_HAL_TIM_REGISTER_CALLBACKS */
2389:Drivers/STM32F4xx_HAL_Driver/Src/stm32f4xx_hal_tim_ex.c **** 
2390:Drivers/STM32F4xx_HAL_Driver/Src/stm32f4xx_hal_tim_ex.c ****   htim->Channel = HAL_TIM_ACTIVE_CHANNEL_CLEARED;
 6493              		.loc 1 2390 17
 6494 0060 FB68     		ldr	r3, [r7, #12]
 6495 0062 0022     		movs	r2, #0
 6496 0064 1A77     		strb	r2, [r3, #28]
2391:Drivers/STM32F4xx_HAL_Driver/Src/stm32f4xx_hal_tim_ex.c **** }
 6497              		.loc 1 2391 1
 6498 0066 00BF     		nop
 6499 0068 1037     		adds	r7, r7, #16
 6500              	.LCFI216:
 6501              		.cfi_def_cfa_offset 8
 6502 006a BD46     		mov	sp, r7
 6503              	.LCFI217:
 6504              		.cfi_def_cfa_register 13
 6505              		@ sp needed
 6506 006c 80BD     		pop	{r7, pc}
 6507              		.cfi_endproc
 6508              	.LFE170:
 6510              		.section	.text.TIM_CCxNChannelCmd,"ax",%progbits
 6511              		.align	1
 6512              		.syntax unified
 6513              		.thumb
 6514              		.thumb_func
 6516              	TIM_CCxNChannelCmd:
ARM GAS  C:\Users\DAELT-~1\AppData\Local\Temp\cc2rhEX6.s 			page 156


 6517              	.LFB171:
2392:Drivers/STM32F4xx_HAL_Driver/Src/stm32f4xx_hal_tim_ex.c **** 
2393:Drivers/STM32F4xx_HAL_Driver/Src/stm32f4xx_hal_tim_ex.c **** /**
2394:Drivers/STM32F4xx_HAL_Driver/Src/stm32f4xx_hal_tim_ex.c ****   * @brief  Enables or disables the TIM Capture Compare Channel xN.
2395:Drivers/STM32F4xx_HAL_Driver/Src/stm32f4xx_hal_tim_ex.c ****   * @param  TIMx to select the TIM peripheral
2396:Drivers/STM32F4xx_HAL_Driver/Src/stm32f4xx_hal_tim_ex.c ****   * @param  Channel specifies the TIM Channel
2397:Drivers/STM32F4xx_HAL_Driver/Src/stm32f4xx_hal_tim_ex.c ****   *          This parameter can be one of the following values:
2398:Drivers/STM32F4xx_HAL_Driver/Src/stm32f4xx_hal_tim_ex.c ****   *            @arg TIM_CHANNEL_1: TIM Channel 1
2399:Drivers/STM32F4xx_HAL_Driver/Src/stm32f4xx_hal_tim_ex.c ****   *            @arg TIM_CHANNEL_2: TIM Channel 2
2400:Drivers/STM32F4xx_HAL_Driver/Src/stm32f4xx_hal_tim_ex.c ****   *            @arg TIM_CHANNEL_3: TIM Channel 3
2401:Drivers/STM32F4xx_HAL_Driver/Src/stm32f4xx_hal_tim_ex.c ****   * @param  ChannelNState specifies the TIM Channel CCxNE bit new state.
2402:Drivers/STM32F4xx_HAL_Driver/Src/stm32f4xx_hal_tim_ex.c ****   *          This parameter can be: TIM_CCxN_ENABLE or TIM_CCxN_Disable.
2403:Drivers/STM32F4xx_HAL_Driver/Src/stm32f4xx_hal_tim_ex.c ****   * @retval None
2404:Drivers/STM32F4xx_HAL_Driver/Src/stm32f4xx_hal_tim_ex.c ****   */
2405:Drivers/STM32F4xx_HAL_Driver/Src/stm32f4xx_hal_tim_ex.c **** static void TIM_CCxNChannelCmd(TIM_TypeDef *TIMx, uint32_t Channel, uint32_t ChannelNState)
2406:Drivers/STM32F4xx_HAL_Driver/Src/stm32f4xx_hal_tim_ex.c **** {
 6518              		.loc 1 2406 1
 6519              		.cfi_startproc
 6520              		@ args = 0, pretend = 0, frame = 24
 6521              		@ frame_needed = 1, uses_anonymous_args = 0
 6522              		@ link register save eliminated.
 6523 0000 80B4     		push	{r7}
 6524              	.LCFI218:
 6525              		.cfi_def_cfa_offset 4
 6526              		.cfi_offset 7, -4
 6527 0002 87B0     		sub	sp, sp, #28
 6528              	.LCFI219:
 6529              		.cfi_def_cfa_offset 32
 6530 0004 00AF     		add	r7, sp, #0
 6531              	.LCFI220:
 6532              		.cfi_def_cfa_register 7
 6533 0006 F860     		str	r0, [r7, #12]
 6534 0008 B960     		str	r1, [r7, #8]
 6535 000a 7A60     		str	r2, [r7, #4]
2407:Drivers/STM32F4xx_HAL_Driver/Src/stm32f4xx_hal_tim_ex.c ****   uint32_t tmp;
2408:Drivers/STM32F4xx_HAL_Driver/Src/stm32f4xx_hal_tim_ex.c **** 
2409:Drivers/STM32F4xx_HAL_Driver/Src/stm32f4xx_hal_tim_ex.c ****   tmp = TIM_CCER_CC1NE << (Channel & 0x1FU); /* 0x1FU = 31 bits max shift */
 6536              		.loc 1 2409 36
 6537 000c BB68     		ldr	r3, [r7, #8]
 6538 000e 03F01F03 		and	r3, r3, #31
 6539              		.loc 1 2409 7
 6540 0012 0422     		movs	r2, #4
 6541 0014 02FA03F3 		lsl	r3, r2, r3
 6542 0018 7B61     		str	r3, [r7, #20]
2410:Drivers/STM32F4xx_HAL_Driver/Src/stm32f4xx_hal_tim_ex.c **** 
2411:Drivers/STM32F4xx_HAL_Driver/Src/stm32f4xx_hal_tim_ex.c ****   /* Reset the CCxNE Bit */
2412:Drivers/STM32F4xx_HAL_Driver/Src/stm32f4xx_hal_tim_ex.c ****   TIMx->CCER &=  ~tmp;
 6543              		.loc 1 2412 7
 6544 001a FB68     		ldr	r3, [r7, #12]
 6545 001c 1A6A     		ldr	r2, [r3, #32]
 6546              		.loc 1 2412 18
 6547 001e 7B69     		ldr	r3, [r7, #20]
 6548 0020 DB43     		mvns	r3, r3
 6549              		.loc 1 2412 14
 6550 0022 1A40     		ands	r2, r2, r3
 6551 0024 FB68     		ldr	r3, [r7, #12]
 6552 0026 1A62     		str	r2, [r3, #32]
ARM GAS  C:\Users\DAELT-~1\AppData\Local\Temp\cc2rhEX6.s 			page 157


2413:Drivers/STM32F4xx_HAL_Driver/Src/stm32f4xx_hal_tim_ex.c **** 
2414:Drivers/STM32F4xx_HAL_Driver/Src/stm32f4xx_hal_tim_ex.c ****   /* Set or reset the CCxNE Bit */
2415:Drivers/STM32F4xx_HAL_Driver/Src/stm32f4xx_hal_tim_ex.c ****   TIMx->CCER |= (uint32_t)(ChannelNState << (Channel & 0x1FU)); /* 0x1FU = 31 bits max shift */
 6553              		.loc 1 2415 7
 6554 0028 FB68     		ldr	r3, [r7, #12]
 6555 002a 1A6A     		ldr	r2, [r3, #32]
 6556              		.loc 1 2415 54
 6557 002c BB68     		ldr	r3, [r7, #8]
 6558 002e 03F01F03 		and	r3, r3, #31
 6559              		.loc 1 2415 42
 6560 0032 7968     		ldr	r1, [r7, #4]
 6561 0034 01FA03F3 		lsl	r3, r1, r3
 6562              		.loc 1 2415 14
 6563 0038 1A43     		orrs	r2, r2, r3
 6564 003a FB68     		ldr	r3, [r7, #12]
 6565 003c 1A62     		str	r2, [r3, #32]
2416:Drivers/STM32F4xx_HAL_Driver/Src/stm32f4xx_hal_tim_ex.c **** }
 6566              		.loc 1 2416 1
 6567 003e 00BF     		nop
 6568 0040 1C37     		adds	r7, r7, #28
 6569              	.LCFI221:
 6570              		.cfi_def_cfa_offset 4
 6571 0042 BD46     		mov	sp, r7
 6572              	.LCFI222:
 6573              		.cfi_def_cfa_register 13
 6574              		@ sp needed
 6575 0044 5DF8047B 		ldr	r7, [sp], #4
 6576              	.LCFI223:
 6577              		.cfi_restore 7
 6578              		.cfi_def_cfa_offset 0
 6579 0048 7047     		bx	lr
 6580              		.cfi_endproc
 6581              	.LFE171:
 6583              		.text
 6584              	.Letext0:
 6585              		.file 2 "C:/tools/arm-gnu-toolchain-13.2.rel1-mingw-w64-i686-arm-none-eabi/arm-none-eabi/include/m
 6586              		.file 3 "C:/tools/arm-gnu-toolchain-13.2.rel1-mingw-w64-i686-arm-none-eabi/arm-none-eabi/include/s
 6587              		.file 4 "Drivers/CMSIS/Device/ST/STM32F4xx/Include/stm32f411xe.h"
 6588              		.file 5 "Drivers/CMSIS/Device/ST/STM32F4xx/Include/stm32f4xx.h"
 6589              		.file 6 "Drivers/STM32F4xx_HAL_Driver/Inc/stm32f4xx_hal_def.h"
 6590              		.file 7 "Drivers/STM32F4xx_HAL_Driver/Inc/stm32f4xx_hal_dma.h"
 6591              		.file 8 "Drivers/STM32F4xx_HAL_Driver/Inc/stm32f4xx_hal_tim.h"
 6592              		.file 9 "Drivers/STM32F4xx_HAL_Driver/Inc/stm32f4xx_hal_tim_ex.h"
ARM GAS  C:\Users\DAELT-~1\AppData\Local\Temp\cc2rhEX6.s 			page 158


DEFINED SYMBOLS
                            *ABS*:00000000 stm32f4xx_hal_tim_ex.c
C:\Users\DAELT-~1\AppData\Local\Temp\cc2rhEX6.s:21     .text.HAL_TIMEx_HallSensor_Init:00000000 $t
C:\Users\DAELT-~1\AppData\Local\Temp\cc2rhEX6.s:27     .text.HAL_TIMEx_HallSensor_Init:00000000 HAL_TIMEx_HallSensor_Init
C:\Users\DAELT-~1\AppData\Local\Temp\cc2rhEX6.s:369    .text.HAL_TIMEx_HallSensor_MspInit:00000000 HAL_TIMEx_HallSensor_MspInit
C:\Users\DAELT-~1\AppData\Local\Temp\cc2rhEX6.s:263    .text.HAL_TIMEx_HallSensor_DeInit:00000000 $t
C:\Users\DAELT-~1\AppData\Local\Temp\cc2rhEX6.s:269    .text.HAL_TIMEx_HallSensor_DeInit:00000000 HAL_TIMEx_HallSensor_DeInit
C:\Users\DAELT-~1\AppData\Local\Temp\cc2rhEX6.s:411    .text.HAL_TIMEx_HallSensor_MspDeInit:00000000 HAL_TIMEx_HallSensor_MspDeInit
C:\Users\DAELT-~1\AppData\Local\Temp\cc2rhEX6.s:363    .text.HAL_TIMEx_HallSensor_MspInit:00000000 $t
C:\Users\DAELT-~1\AppData\Local\Temp\cc2rhEX6.s:405    .text.HAL_TIMEx_HallSensor_MspDeInit:00000000 $t
C:\Users\DAELT-~1\AppData\Local\Temp\cc2rhEX6.s:447    .text.HAL_TIMEx_HallSensor_Start:00000000 $t
C:\Users\DAELT-~1\AppData\Local\Temp\cc2rhEX6.s:453    .text.HAL_TIMEx_HallSensor_Start:00000000 HAL_TIMEx_HallSensor_Start
C:\Users\DAELT-~1\AppData\Local\Temp\cc2rhEX6.s:616    .text.HAL_TIMEx_HallSensor_Start:000000ec $d
C:\Users\DAELT-~1\AppData\Local\Temp\cc2rhEX6.s:625    .text.HAL_TIMEx_HallSensor_Stop:00000000 $t
C:\Users\DAELT-~1\AppData\Local\Temp\cc2rhEX6.s:631    .text.HAL_TIMEx_HallSensor_Stop:00000000 HAL_TIMEx_HallSensor_Stop
C:\Users\DAELT-~1\AppData\Local\Temp\cc2rhEX6.s:713    .text.HAL_TIMEx_HallSensor_Start_IT:00000000 $t
C:\Users\DAELT-~1\AppData\Local\Temp\cc2rhEX6.s:719    .text.HAL_TIMEx_HallSensor_Start_IT:00000000 HAL_TIMEx_HallSensor_Start_IT
C:\Users\DAELT-~1\AppData\Local\Temp\cc2rhEX6.s:890    .text.HAL_TIMEx_HallSensor_Start_IT:000000fc $d
C:\Users\DAELT-~1\AppData\Local\Temp\cc2rhEX6.s:899    .text.HAL_TIMEx_HallSensor_Stop_IT:00000000 $t
C:\Users\DAELT-~1\AppData\Local\Temp\cc2rhEX6.s:905    .text.HAL_TIMEx_HallSensor_Stop_IT:00000000 HAL_TIMEx_HallSensor_Stop_IT
C:\Users\DAELT-~1\AppData\Local\Temp\cc2rhEX6.s:995    .text.HAL_TIMEx_HallSensor_Start_DMA:00000000 $t
C:\Users\DAELT-~1\AppData\Local\Temp\cc2rhEX6.s:1001   .text.HAL_TIMEx_HallSensor_Start_DMA:00000000 HAL_TIMEx_HallSensor_Start_DMA
C:\Users\DAELT-~1\AppData\Local\Temp\cc2rhEX6.s:1218   .text.HAL_TIMEx_HallSensor_Start_DMA:00000130 $d
C:\Users\DAELT-~1\AppData\Local\Temp\cc2rhEX6.s:1230   .text.HAL_TIMEx_HallSensor_Stop_DMA:00000000 $t
C:\Users\DAELT-~1\AppData\Local\Temp\cc2rhEX6.s:1236   .text.HAL_TIMEx_HallSensor_Stop_DMA:00000000 HAL_TIMEx_HallSensor_Stop_DMA
C:\Users\DAELT-~1\AppData\Local\Temp\cc2rhEX6.s:1323   .text.HAL_TIMEx_OCN_Start:00000000 $t
C:\Users\DAELT-~1\AppData\Local\Temp\cc2rhEX6.s:1329   .text.HAL_TIMEx_OCN_Start:00000000 HAL_TIMEx_OCN_Start
C:\Users\DAELT-~1\AppData\Local\Temp\cc2rhEX6.s:6516   .text.TIM_CCxNChannelCmd:00000000 TIM_CCxNChannelCmd
C:\Users\DAELT-~1\AppData\Local\Temp\cc2rhEX6.s:1549   .text.HAL_TIMEx_OCN_Start:00000144 $d
C:\Users\DAELT-~1\AppData\Local\Temp\cc2rhEX6.s:1558   .text.HAL_TIMEx_OCN_Stop:00000000 $t
C:\Users\DAELT-~1\AppData\Local\Temp\cc2rhEX6.s:1564   .text.HAL_TIMEx_OCN_Stop:00000000 HAL_TIMEx_OCN_Stop
C:\Users\DAELT-~1\AppData\Local\Temp\cc2rhEX6.s:1691   .text.HAL_TIMEx_OCN_Start_IT:00000000 $t
C:\Users\DAELT-~1\AppData\Local\Temp\cc2rhEX6.s:1697   .text.HAL_TIMEx_OCN_Start_IT:00000000 HAL_TIMEx_OCN_Start_IT
C:\Users\DAELT-~1\AppData\Local\Temp\cc2rhEX6.s:1986   .text.HAL_TIMEx_OCN_Start_IT:000001b4 $d
C:\Users\DAELT-~1\AppData\Local\Temp\cc2rhEX6.s:1995   .text.HAL_TIMEx_OCN_Stop_IT:00000000 $t
C:\Users\DAELT-~1\AppData\Local\Temp\cc2rhEX6.s:2001   .text.HAL_TIMEx_OCN_Stop_IT:00000000 HAL_TIMEx_OCN_Stop_IT
C:\Users\DAELT-~1\AppData\Local\Temp\cc2rhEX6.s:2211   .text.HAL_TIMEx_OCN_Start_DMA:00000000 $t
C:\Users\DAELT-~1\AppData\Local\Temp\cc2rhEX6.s:2217   .text.HAL_TIMEx_OCN_Start_DMA:00000000 HAL_TIMEx_OCN_Start_DMA
C:\Users\DAELT-~1\AppData\Local\Temp\cc2rhEX6.s:2698   .text.HAL_TIMEx_OCN_Start_DMA:000002c4 $d
C:\Users\DAELT-~1\AppData\Local\Temp\cc2rhEX6.s:6279   .text.TIM_DMADelayPulseNCplt:00000000 TIM_DMADelayPulseNCplt
C:\Users\DAELT-~1\AppData\Local\Temp\cc2rhEX6.s:6418   .text.TIM_DMAErrorCCxN:00000000 TIM_DMAErrorCCxN
C:\Users\DAELT-~1\AppData\Local\Temp\cc2rhEX6.s:2710   .text.HAL_TIMEx_OCN_Stop_DMA:00000000 $t
C:\Users\DAELT-~1\AppData\Local\Temp\cc2rhEX6.s:2716   .text.HAL_TIMEx_OCN_Stop_DMA:00000000 HAL_TIMEx_OCN_Stop_DMA
C:\Users\DAELT-~1\AppData\Local\Temp\cc2rhEX6.s:2919   .text.HAL_TIMEx_PWMN_Start:00000000 $t
C:\Users\DAELT-~1\AppData\Local\Temp\cc2rhEX6.s:2925   .text.HAL_TIMEx_PWMN_Start:00000000 HAL_TIMEx_PWMN_Start
C:\Users\DAELT-~1\AppData\Local\Temp\cc2rhEX6.s:3145   .text.HAL_TIMEx_PWMN_Start:00000144 $d
C:\Users\DAELT-~1\AppData\Local\Temp\cc2rhEX6.s:3154   .text.HAL_TIMEx_PWMN_Stop:00000000 $t
C:\Users\DAELT-~1\AppData\Local\Temp\cc2rhEX6.s:3160   .text.HAL_TIMEx_PWMN_Stop:00000000 HAL_TIMEx_PWMN_Stop
C:\Users\DAELT-~1\AppData\Local\Temp\cc2rhEX6.s:3287   .text.HAL_TIMEx_PWMN_Start_IT:00000000 $t
C:\Users\DAELT-~1\AppData\Local\Temp\cc2rhEX6.s:3293   .text.HAL_TIMEx_PWMN_Start_IT:00000000 HAL_TIMEx_PWMN_Start_IT
C:\Users\DAELT-~1\AppData\Local\Temp\cc2rhEX6.s:3582   .text.HAL_TIMEx_PWMN_Start_IT:000001b4 $d
C:\Users\DAELT-~1\AppData\Local\Temp\cc2rhEX6.s:3591   .text.HAL_TIMEx_PWMN_Stop_IT:00000000 $t
C:\Users\DAELT-~1\AppData\Local\Temp\cc2rhEX6.s:3597   .text.HAL_TIMEx_PWMN_Stop_IT:00000000 HAL_TIMEx_PWMN_Stop_IT
C:\Users\DAELT-~1\AppData\Local\Temp\cc2rhEX6.s:3807   .text.HAL_TIMEx_PWMN_Start_DMA:00000000 $t
C:\Users\DAELT-~1\AppData\Local\Temp\cc2rhEX6.s:3813   .text.HAL_TIMEx_PWMN_Start_DMA:00000000 HAL_TIMEx_PWMN_Start_DMA
C:\Users\DAELT-~1\AppData\Local\Temp\cc2rhEX6.s:4294   .text.HAL_TIMEx_PWMN_Start_DMA:000002c4 $d
C:\Users\DAELT-~1\AppData\Local\Temp\cc2rhEX6.s:4306   .text.HAL_TIMEx_PWMN_Stop_DMA:00000000 $t
ARM GAS  C:\Users\DAELT-~1\AppData\Local\Temp\cc2rhEX6.s 			page 159


C:\Users\DAELT-~1\AppData\Local\Temp\cc2rhEX6.s:4312   .text.HAL_TIMEx_PWMN_Stop_DMA:00000000 HAL_TIMEx_PWMN_Stop_DMA
C:\Users\DAELT-~1\AppData\Local\Temp\cc2rhEX6.s:4515   .text.HAL_TIMEx_OnePulseN_Start:00000000 $t
C:\Users\DAELT-~1\AppData\Local\Temp\cc2rhEX6.s:4521   .text.HAL_TIMEx_OnePulseN_Start:00000000 HAL_TIMEx_OnePulseN_Start
C:\Users\DAELT-~1\AppData\Local\Temp\cc2rhEX6.s:4645   .text.HAL_TIMEx_OnePulseN_Stop:00000000 $t
C:\Users\DAELT-~1\AppData\Local\Temp\cc2rhEX6.s:4651   .text.HAL_TIMEx_OnePulseN_Stop:00000000 HAL_TIMEx_OnePulseN_Stop
C:\Users\DAELT-~1\AppData\Local\Temp\cc2rhEX6.s:4779   .text.HAL_TIMEx_OnePulseN_Start_IT:00000000 $t
C:\Users\DAELT-~1\AppData\Local\Temp\cc2rhEX6.s:4785   .text.HAL_TIMEx_OnePulseN_Start_IT:00000000 HAL_TIMEx_OnePulseN_Start_IT
C:\Users\DAELT-~1\AppData\Local\Temp\cc2rhEX6.s:4925   .text.HAL_TIMEx_OnePulseN_Stop_IT:00000000 $t
C:\Users\DAELT-~1\AppData\Local\Temp\cc2rhEX6.s:4931   .text.HAL_TIMEx_OnePulseN_Stop_IT:00000000 HAL_TIMEx_OnePulseN_Stop_IT
C:\Users\DAELT-~1\AppData\Local\Temp\cc2rhEX6.s:5075   .text.HAL_TIMEx_ConfigCommutEvent:00000000 $t
C:\Users\DAELT-~1\AppData\Local\Temp\cc2rhEX6.s:5081   .text.HAL_TIMEx_ConfigCommutEvent:00000000 HAL_TIMEx_ConfigCommutEvent
C:\Users\DAELT-~1\AppData\Local\Temp\cc2rhEX6.s:5231   .text.HAL_TIMEx_ConfigCommutEvent_IT:00000000 $t
C:\Users\DAELT-~1\AppData\Local\Temp\cc2rhEX6.s:5237   .text.HAL_TIMEx_ConfigCommutEvent_IT:00000000 HAL_TIMEx_ConfigCommutEvent_IT
C:\Users\DAELT-~1\AppData\Local\Temp\cc2rhEX6.s:5387   .text.HAL_TIMEx_ConfigCommutEvent_DMA:00000000 $t
C:\Users\DAELT-~1\AppData\Local\Temp\cc2rhEX6.s:5393   .text.HAL_TIMEx_ConfigCommutEvent_DMA:00000000 HAL_TIMEx_ConfigCommutEvent_DMA
C:\Users\DAELT-~1\AppData\Local\Temp\cc2rhEX6.s:5560   .text.HAL_TIMEx_ConfigCommutEvent_DMA:000000d8 $d
C:\Users\DAELT-~1\AppData\Local\Temp\cc2rhEX6.s:6182   .text.TIMEx_DMACommutationCplt:00000000 TIMEx_DMACommutationCplt
C:\Users\DAELT-~1\AppData\Local\Temp\cc2rhEX6.s:6231   .text.TIMEx_DMACommutationHalfCplt:00000000 TIMEx_DMACommutationHalfCplt
C:\Users\DAELT-~1\AppData\Local\Temp\cc2rhEX6.s:5567   .text.HAL_TIMEx_MasterConfigSynchronization:00000000 $t
C:\Users\DAELT-~1\AppData\Local\Temp\cc2rhEX6.s:5573   .text.HAL_TIMEx_MasterConfigSynchronization:00000000 HAL_TIMEx_MasterConfigSynchronization
C:\Users\DAELT-~1\AppData\Local\Temp\cc2rhEX6.s:5722   .text.HAL_TIMEx_MasterConfigSynchronization:000000c8 $d
C:\Users\DAELT-~1\AppData\Local\Temp\cc2rhEX6.s:5731   .text.HAL_TIMEx_ConfigBreakDeadTime:00000000 $t
C:\Users\DAELT-~1\AppData\Local\Temp\cc2rhEX6.s:5737   .text.HAL_TIMEx_ConfigBreakDeadTime:00000000 HAL_TIMEx_ConfigBreakDeadTime
C:\Users\DAELT-~1\AppData\Local\Temp\cc2rhEX6.s:5853   .text.HAL_TIMEx_RemapConfig:00000000 $t
C:\Users\DAELT-~1\AppData\Local\Temp\cc2rhEX6.s:5859   .text.HAL_TIMEx_RemapConfig:00000000 HAL_TIMEx_RemapConfig
C:\Users\DAELT-~1\AppData\Local\Temp\cc2rhEX6.s:5922   .text.HAL_TIMEx_CommutCallback:00000000 $t
C:\Users\DAELT-~1\AppData\Local\Temp\cc2rhEX6.s:5928   .text.HAL_TIMEx_CommutCallback:00000000 HAL_TIMEx_CommutCallback
C:\Users\DAELT-~1\AppData\Local\Temp\cc2rhEX6.s:5964   .text.HAL_TIMEx_CommutHalfCpltCallback:00000000 $t
C:\Users\DAELT-~1\AppData\Local\Temp\cc2rhEX6.s:5970   .text.HAL_TIMEx_CommutHalfCpltCallback:00000000 HAL_TIMEx_CommutHalfCpltCallback
C:\Users\DAELT-~1\AppData\Local\Temp\cc2rhEX6.s:6006   .text.HAL_TIMEx_BreakCallback:00000000 $t
C:\Users\DAELT-~1\AppData\Local\Temp\cc2rhEX6.s:6012   .text.HAL_TIMEx_BreakCallback:00000000 HAL_TIMEx_BreakCallback
C:\Users\DAELT-~1\AppData\Local\Temp\cc2rhEX6.s:6048   .text.HAL_TIMEx_HallSensor_GetState:00000000 $t
C:\Users\DAELT-~1\AppData\Local\Temp\cc2rhEX6.s:6054   .text.HAL_TIMEx_HallSensor_GetState:00000000 HAL_TIMEx_HallSensor_GetState
C:\Users\DAELT-~1\AppData\Local\Temp\cc2rhEX6.s:6094   .text.HAL_TIMEx_GetChannelNState:00000000 $t
C:\Users\DAELT-~1\AppData\Local\Temp\cc2rhEX6.s:6100   .text.HAL_TIMEx_GetChannelNState:00000000 HAL_TIMEx_GetChannelNState
C:\Users\DAELT-~1\AppData\Local\Temp\cc2rhEX6.s:6176   .text.TIMEx_DMACommutationCplt:00000000 $t
C:\Users\DAELT-~1\AppData\Local\Temp\cc2rhEX6.s:6225   .text.TIMEx_DMACommutationHalfCplt:00000000 $t
C:\Users\DAELT-~1\AppData\Local\Temp\cc2rhEX6.s:6274   .text.TIM_DMADelayPulseNCplt:00000000 $t
C:\Users\DAELT-~1\AppData\Local\Temp\cc2rhEX6.s:6413   .text.TIM_DMAErrorCCxN:00000000 $t
C:\Users\DAELT-~1\AppData\Local\Temp\cc2rhEX6.s:6511   .text.TIM_CCxNChannelCmd:00000000 $t

UNDEFINED SYMBOLS
TIM_Base_SetConfig
TIM_TI1_SetConfig
TIM_OC2_SetConfig
TIM_CCxChannelCmd
HAL_DMA_Start_IT
TIM_DMACaptureCplt
TIM_DMACaptureHalfCplt
TIM_DMAError
HAL_DMA_Abort_IT
TIM_DMADelayPulseHalfCplt
HAL_TIM_PWM_PulseFinishedCallback
HAL_TIM_ErrorCallback
