ARM GAS  C:\Users\DAELT-~1\AppData\Local\Temp\cc2rhEX6.s 			page 1


   1              		.cpu cortex-m4
   2              		.arch armv7e-m
   3              		.fpu fpv4-sp-d16
   4              		.eabi_attribute 27, 1
   5              		.eabi_attribute 28, 1
   6              		.eabi_attribute 20, 1
   7              		.eabi_attribute 21, 1
   8              		.eabi_attribute 23, 3
   9              		.eabi_attribute 24, 1
  10              		.eabi_attribute 25, 1
  11              		.eabi_attribute 26, 1
  12              		.eabi_attribute 30, 6
  13              		.eabi_attribute 34, 1
  14              		.eabi_attribute 18, 4
  15              		.file	"stm32f4xx_hal_tim_ex.c"
  16              		.text
  17              	.Ltext0:
  18              		.cfi_sections	.debug_frame
  19              		.file 1 "Drivers/STM32F4xx_HAL_Driver/Src/stm32f4xx_hal_tim_ex.c"
  20              		.section	.text.HAL_TIMEx_HallSensor_Init,"ax",%progbits
  21              		.align	1
  22              		.global	HAL_TIMEx_HallSensor_Init
  23              		.syntax unified
  24              		.thumb
  25              		.thumb_func
  27              	HAL_TIMEx_HallSensor_Init:
  28              	.LFB130:
   1:Drivers/STM32F4xx_HAL_Driver/Src/stm32f4xx_hal_tim_ex.c **** /**
   2:Drivers/STM32F4xx_HAL_Driver/Src/stm32f4xx_hal_tim_ex.c ****   ******************************************************************************
   3:Drivers/STM32F4xx_HAL_Driver/Src/stm32f4xx_hal_tim_ex.c ****   * @file    stm32f4xx_hal_tim_ex.c
   4:Drivers/STM32F4xx_HAL_Driver/Src/stm32f4xx_hal_tim_ex.c ****   * @author  MCD Application Team
   5:Drivers/STM32F4xx_HAL_Driver/Src/stm32f4xx_hal_tim_ex.c ****   * @brief   TIM HAL module driver.
   6:Drivers/STM32F4xx_HAL_Driver/Src/stm32f4xx_hal_tim_ex.c ****   *          This file provides firmware functions to manage the following
   7:Drivers/STM32F4xx_HAL_Driver/Src/stm32f4xx_hal_tim_ex.c ****   *          functionalities of the Timer Extended peripheral:
   8:Drivers/STM32F4xx_HAL_Driver/Src/stm32f4xx_hal_tim_ex.c ****   *           + Time Hall Sensor Interface Initialization
   9:Drivers/STM32F4xx_HAL_Driver/Src/stm32f4xx_hal_tim_ex.c ****   *           + Time Hall Sensor Interface Start
  10:Drivers/STM32F4xx_HAL_Driver/Src/stm32f4xx_hal_tim_ex.c ****   *           + Time Complementary signal break and dead time configuration
  11:Drivers/STM32F4xx_HAL_Driver/Src/stm32f4xx_hal_tim_ex.c ****   *           + Time Master and Slave synchronization configuration
  12:Drivers/STM32F4xx_HAL_Driver/Src/stm32f4xx_hal_tim_ex.c ****   *           + Timer remapping capabilities configuration
  13:Drivers/STM32F4xx_HAL_Driver/Src/stm32f4xx_hal_tim_ex.c ****   ******************************************************************************
  14:Drivers/STM32F4xx_HAL_Driver/Src/stm32f4xx_hal_tim_ex.c ****   * @attention
  15:Drivers/STM32F4xx_HAL_Driver/Src/stm32f4xx_hal_tim_ex.c ****   *
  16:Drivers/STM32F4xx_HAL_Driver/Src/stm32f4xx_hal_tim_ex.c ****   * Copyright (c) 2016 STMicroelectronics.
  17:Drivers/STM32F4xx_HAL_Driver/Src/stm32f4xx_hal_tim_ex.c ****   * All rights reserved.
  18:Drivers/STM32F4xx_HAL_Driver/Src/stm32f4xx_hal_tim_ex.c ****   *
  19:Drivers/STM32F4xx_HAL_Driver/Src/stm32f4xx_hal_tim_ex.c ****   * This software is licensed under terms that can be found in the LICENSE file
  20:Drivers/STM32F4xx_HAL_Driver/Src/stm32f4xx_hal_tim_ex.c ****   * in the root directory of this software component.
  21:Drivers/STM32F4xx_HAL_Driver/Src/stm32f4xx_hal_tim_ex.c ****   * If no LICENSE file comes with this software, it is provided AS-IS.
  22:Drivers/STM32F4xx_HAL_Driver/Src/stm32f4xx_hal_tim_ex.c ****   *
  23:Drivers/STM32F4xx_HAL_Driver/Src/stm32f4xx_hal_tim_ex.c ****   ******************************************************************************
  24:Drivers/STM32F4xx_HAL_Driver/Src/stm32f4xx_hal_tim_ex.c ****   @verbatim
  25:Drivers/STM32F4xx_HAL_Driver/Src/stm32f4xx_hal_tim_ex.c ****   ==============================================================================
  26:Drivers/STM32F4xx_HAL_Driver/Src/stm32f4xx_hal_tim_ex.c ****                       ##### TIMER Extended features #####
  27:Drivers/STM32F4xx_HAL_Driver/Src/stm32f4xx_hal_tim_ex.c ****   ==============================================================================
  28:Drivers/STM32F4xx_HAL_Driver/Src/stm32f4xx_hal_tim_ex.c ****   [..]
  29:Drivers/STM32F4xx_HAL_Driver/Src/stm32f4xx_hal_tim_ex.c ****     The Timer Extended features include:
  30:Drivers/STM32F4xx_HAL_Driver/Src/stm32f4xx_hal_tim_ex.c ****     (#) Complementary outputs with programmable dead-time for :
ARM GAS  C:\Users\DAELT-~1\AppData\Local\Temp\cc2rhEX6.s 			page 2


  31:Drivers/STM32F4xx_HAL_Driver/Src/stm32f4xx_hal_tim_ex.c ****         (++) Output Compare
  32:Drivers/STM32F4xx_HAL_Driver/Src/stm32f4xx_hal_tim_ex.c ****         (++) PWM generation (Edge and Center-aligned Mode)
  33:Drivers/STM32F4xx_HAL_Driver/Src/stm32f4xx_hal_tim_ex.c ****         (++) One-pulse mode output
  34:Drivers/STM32F4xx_HAL_Driver/Src/stm32f4xx_hal_tim_ex.c ****     (#) Synchronization circuit to control the timer with external signals and to
  35:Drivers/STM32F4xx_HAL_Driver/Src/stm32f4xx_hal_tim_ex.c ****         interconnect several timers together.
  36:Drivers/STM32F4xx_HAL_Driver/Src/stm32f4xx_hal_tim_ex.c ****     (#) Break input to put the timer output signals in reset state or in a known state.
  37:Drivers/STM32F4xx_HAL_Driver/Src/stm32f4xx_hal_tim_ex.c ****     (#) Supports incremental (quadrature) encoder and hall-sensor circuitry for
  38:Drivers/STM32F4xx_HAL_Driver/Src/stm32f4xx_hal_tim_ex.c ****         positioning purposes
  39:Drivers/STM32F4xx_HAL_Driver/Src/stm32f4xx_hal_tim_ex.c **** 
  40:Drivers/STM32F4xx_HAL_Driver/Src/stm32f4xx_hal_tim_ex.c ****             ##### How to use this driver #####
  41:Drivers/STM32F4xx_HAL_Driver/Src/stm32f4xx_hal_tim_ex.c ****   ==============================================================================
  42:Drivers/STM32F4xx_HAL_Driver/Src/stm32f4xx_hal_tim_ex.c ****     [..]
  43:Drivers/STM32F4xx_HAL_Driver/Src/stm32f4xx_hal_tim_ex.c ****      (#) Initialize the TIM low level resources by implementing the following functions
  44:Drivers/STM32F4xx_HAL_Driver/Src/stm32f4xx_hal_tim_ex.c ****          depending on the selected feature:
  45:Drivers/STM32F4xx_HAL_Driver/Src/stm32f4xx_hal_tim_ex.c ****            (++) Hall Sensor output : HAL_TIMEx_HallSensor_MspInit()
  46:Drivers/STM32F4xx_HAL_Driver/Src/stm32f4xx_hal_tim_ex.c **** 
  47:Drivers/STM32F4xx_HAL_Driver/Src/stm32f4xx_hal_tim_ex.c ****      (#) Initialize the TIM low level resources :
  48:Drivers/STM32F4xx_HAL_Driver/Src/stm32f4xx_hal_tim_ex.c ****         (##) Enable the TIM interface clock using __HAL_RCC_TIMx_CLK_ENABLE();
  49:Drivers/STM32F4xx_HAL_Driver/Src/stm32f4xx_hal_tim_ex.c ****         (##) TIM pins configuration
  50:Drivers/STM32F4xx_HAL_Driver/Src/stm32f4xx_hal_tim_ex.c ****             (+++) Enable the clock for the TIM GPIOs using the following function:
  51:Drivers/STM32F4xx_HAL_Driver/Src/stm32f4xx_hal_tim_ex.c ****               __HAL_RCC_GPIOx_CLK_ENABLE();
  52:Drivers/STM32F4xx_HAL_Driver/Src/stm32f4xx_hal_tim_ex.c ****             (+++) Configure these TIM pins in Alternate function mode using HAL_GPIO_Init();
  53:Drivers/STM32F4xx_HAL_Driver/Src/stm32f4xx_hal_tim_ex.c **** 
  54:Drivers/STM32F4xx_HAL_Driver/Src/stm32f4xx_hal_tim_ex.c ****      (#) The external Clock can be configured, if needed (the default clock is the
  55:Drivers/STM32F4xx_HAL_Driver/Src/stm32f4xx_hal_tim_ex.c ****          internal clock from the APBx), using the following function:
  56:Drivers/STM32F4xx_HAL_Driver/Src/stm32f4xx_hal_tim_ex.c ****          HAL_TIM_ConfigClockSource, the clock configuration should be done before
  57:Drivers/STM32F4xx_HAL_Driver/Src/stm32f4xx_hal_tim_ex.c ****          any start function.
  58:Drivers/STM32F4xx_HAL_Driver/Src/stm32f4xx_hal_tim_ex.c **** 
  59:Drivers/STM32F4xx_HAL_Driver/Src/stm32f4xx_hal_tim_ex.c ****      (#) Configure the TIM in the desired functioning mode using one of the
  60:Drivers/STM32F4xx_HAL_Driver/Src/stm32f4xx_hal_tim_ex.c ****          initialization function of this driver:
  61:Drivers/STM32F4xx_HAL_Driver/Src/stm32f4xx_hal_tim_ex.c ****           (++) HAL_TIMEx_HallSensor_Init() and HAL_TIMEx_ConfigCommutEvent(): to use the
  62:Drivers/STM32F4xx_HAL_Driver/Src/stm32f4xx_hal_tim_ex.c ****                Timer Hall Sensor Interface and the commutation event with the corresponding
  63:Drivers/STM32F4xx_HAL_Driver/Src/stm32f4xx_hal_tim_ex.c ****                Interrupt and DMA request if needed (Note that One Timer is used to interface
  64:Drivers/STM32F4xx_HAL_Driver/Src/stm32f4xx_hal_tim_ex.c ****                with the Hall sensor Interface and another Timer should be used to use
  65:Drivers/STM32F4xx_HAL_Driver/Src/stm32f4xx_hal_tim_ex.c ****                the commutation event).
  66:Drivers/STM32F4xx_HAL_Driver/Src/stm32f4xx_hal_tim_ex.c **** 
  67:Drivers/STM32F4xx_HAL_Driver/Src/stm32f4xx_hal_tim_ex.c ****      (#) Activate the TIM peripheral using one of the start functions:
  68:Drivers/STM32F4xx_HAL_Driver/Src/stm32f4xx_hal_tim_ex.c ****            (++) Complementary Output Compare : HAL_TIMEx_OCN_Start(), HAL_TIMEx_OCN_Start_DMA(),
  69:Drivers/STM32F4xx_HAL_Driver/Src/stm32f4xx_hal_tim_ex.c ****                 HAL_TIMEx_OCN_Start_IT()
  70:Drivers/STM32F4xx_HAL_Driver/Src/stm32f4xx_hal_tim_ex.c ****            (++) Complementary PWM generation : HAL_TIMEx_PWMN_Start(), HAL_TIMEx_PWMN_Start_DMA(),
  71:Drivers/STM32F4xx_HAL_Driver/Src/stm32f4xx_hal_tim_ex.c ****                 HAL_TIMEx_PWMN_Start_IT()
  72:Drivers/STM32F4xx_HAL_Driver/Src/stm32f4xx_hal_tim_ex.c ****            (++) Complementary One-pulse mode output : HAL_TIMEx_OnePulseN_Start(), HAL_TIMEx_OnePul
  73:Drivers/STM32F4xx_HAL_Driver/Src/stm32f4xx_hal_tim_ex.c ****            (++) Hall Sensor output : HAL_TIMEx_HallSensor_Start(), HAL_TIMEx_HallSensor_Start_DMA()
  74:Drivers/STM32F4xx_HAL_Driver/Src/stm32f4xx_hal_tim_ex.c ****                 HAL_TIMEx_HallSensor_Start_IT().
  75:Drivers/STM32F4xx_HAL_Driver/Src/stm32f4xx_hal_tim_ex.c **** 
  76:Drivers/STM32F4xx_HAL_Driver/Src/stm32f4xx_hal_tim_ex.c ****   @endverbatim
  77:Drivers/STM32F4xx_HAL_Driver/Src/stm32f4xx_hal_tim_ex.c ****   ******************************************************************************
  78:Drivers/STM32F4xx_HAL_Driver/Src/stm32f4xx_hal_tim_ex.c ****   */
  79:Drivers/STM32F4xx_HAL_Driver/Src/stm32f4xx_hal_tim_ex.c **** 
  80:Drivers/STM32F4xx_HAL_Driver/Src/stm32f4xx_hal_tim_ex.c **** /* Includes ------------------------------------------------------------------*/
  81:Drivers/STM32F4xx_HAL_Driver/Src/stm32f4xx_hal_tim_ex.c **** #include "stm32f4xx_hal.h"
  82:Drivers/STM32F4xx_HAL_Driver/Src/stm32f4xx_hal_tim_ex.c **** 
  83:Drivers/STM32F4xx_HAL_Driver/Src/stm32f4xx_hal_tim_ex.c **** /** @addtogroup STM32F4xx_HAL_Driver
  84:Drivers/STM32F4xx_HAL_Driver/Src/stm32f4xx_hal_tim_ex.c ****   * @{
  85:Drivers/STM32F4xx_HAL_Driver/Src/stm32f4xx_hal_tim_ex.c ****   */
  86:Drivers/STM32F4xx_HAL_Driver/Src/stm32f4xx_hal_tim_ex.c **** 
  87:Drivers/STM32F4xx_HAL_Driver/Src/stm32f4xx_hal_tim_ex.c **** /** @defgroup TIMEx TIMEx
ARM GAS  C:\Users\DAELT-~1\AppData\Local\Temp\cc2rhEX6.s 			page 3


  88:Drivers/STM32F4xx_HAL_Driver/Src/stm32f4xx_hal_tim_ex.c ****   * @brief TIM Extended HAL module driver
  89:Drivers/STM32F4xx_HAL_Driver/Src/stm32f4xx_hal_tim_ex.c ****   * @{
  90:Drivers/STM32F4xx_HAL_Driver/Src/stm32f4xx_hal_tim_ex.c ****   */
  91:Drivers/STM32F4xx_HAL_Driver/Src/stm32f4xx_hal_tim_ex.c **** 
  92:Drivers/STM32F4xx_HAL_Driver/Src/stm32f4xx_hal_tim_ex.c **** #ifdef HAL_TIM_MODULE_ENABLED
  93:Drivers/STM32F4xx_HAL_Driver/Src/stm32f4xx_hal_tim_ex.c **** 
  94:Drivers/STM32F4xx_HAL_Driver/Src/stm32f4xx_hal_tim_ex.c **** /* Private typedef -----------------------------------------------------------*/
  95:Drivers/STM32F4xx_HAL_Driver/Src/stm32f4xx_hal_tim_ex.c **** /* Private define ------------------------------------------------------------*/
  96:Drivers/STM32F4xx_HAL_Driver/Src/stm32f4xx_hal_tim_ex.c **** /* Private macros ------------------------------------------------------------*/
  97:Drivers/STM32F4xx_HAL_Driver/Src/stm32f4xx_hal_tim_ex.c **** /* Private variables ---------------------------------------------------------*/
  98:Drivers/STM32F4xx_HAL_Driver/Src/stm32f4xx_hal_tim_ex.c **** /* Private function prototypes -----------------------------------------------*/
  99:Drivers/STM32F4xx_HAL_Driver/Src/stm32f4xx_hal_tim_ex.c **** static void TIM_DMADelayPulseNCplt(DMA_HandleTypeDef *hdma);
 100:Drivers/STM32F4xx_HAL_Driver/Src/stm32f4xx_hal_tim_ex.c **** static void TIM_DMAErrorCCxN(DMA_HandleTypeDef *hdma);
 101:Drivers/STM32F4xx_HAL_Driver/Src/stm32f4xx_hal_tim_ex.c **** static void TIM_CCxNChannelCmd(TIM_TypeDef *TIMx, uint32_t Channel, uint32_t ChannelNState);
 102:Drivers/STM32F4xx_HAL_Driver/Src/stm32f4xx_hal_tim_ex.c **** 
 103:Drivers/STM32F4xx_HAL_Driver/Src/stm32f4xx_hal_tim_ex.c **** /* Exported functions --------------------------------------------------------*/
 104:Drivers/STM32F4xx_HAL_Driver/Src/stm32f4xx_hal_tim_ex.c **** /** @defgroup TIMEx_Exported_Functions TIM Extended Exported Functions
 105:Drivers/STM32F4xx_HAL_Driver/Src/stm32f4xx_hal_tim_ex.c ****   * @{
 106:Drivers/STM32F4xx_HAL_Driver/Src/stm32f4xx_hal_tim_ex.c ****   */
 107:Drivers/STM32F4xx_HAL_Driver/Src/stm32f4xx_hal_tim_ex.c **** 
 108:Drivers/STM32F4xx_HAL_Driver/Src/stm32f4xx_hal_tim_ex.c **** /** @defgroup TIMEx_Exported_Functions_Group1 Extended Timer Hall Sensor functions
 109:Drivers/STM32F4xx_HAL_Driver/Src/stm32f4xx_hal_tim_ex.c ****   * @brief    Timer Hall Sensor functions
 110:Drivers/STM32F4xx_HAL_Driver/Src/stm32f4xx_hal_tim_ex.c ****   *
 111:Drivers/STM32F4xx_HAL_Driver/Src/stm32f4xx_hal_tim_ex.c **** @verbatim
 112:Drivers/STM32F4xx_HAL_Driver/Src/stm32f4xx_hal_tim_ex.c ****   ==============================================================================
 113:Drivers/STM32F4xx_HAL_Driver/Src/stm32f4xx_hal_tim_ex.c ****                       ##### Timer Hall Sensor functions #####
 114:Drivers/STM32F4xx_HAL_Driver/Src/stm32f4xx_hal_tim_ex.c ****   ==============================================================================
 115:Drivers/STM32F4xx_HAL_Driver/Src/stm32f4xx_hal_tim_ex.c ****   [..]
 116:Drivers/STM32F4xx_HAL_Driver/Src/stm32f4xx_hal_tim_ex.c ****     This section provides functions allowing to:
 117:Drivers/STM32F4xx_HAL_Driver/Src/stm32f4xx_hal_tim_ex.c ****     (+) Initialize and configure TIM HAL Sensor.
 118:Drivers/STM32F4xx_HAL_Driver/Src/stm32f4xx_hal_tim_ex.c ****     (+) De-initialize TIM HAL Sensor.
 119:Drivers/STM32F4xx_HAL_Driver/Src/stm32f4xx_hal_tim_ex.c ****     (+) Start the Hall Sensor Interface.
 120:Drivers/STM32F4xx_HAL_Driver/Src/stm32f4xx_hal_tim_ex.c ****     (+) Stop the Hall Sensor Interface.
 121:Drivers/STM32F4xx_HAL_Driver/Src/stm32f4xx_hal_tim_ex.c ****     (+) Start the Hall Sensor Interface and enable interrupts.
 122:Drivers/STM32F4xx_HAL_Driver/Src/stm32f4xx_hal_tim_ex.c ****     (+) Stop the Hall Sensor Interface and disable interrupts.
 123:Drivers/STM32F4xx_HAL_Driver/Src/stm32f4xx_hal_tim_ex.c ****     (+) Start the Hall Sensor Interface and enable DMA transfers.
 124:Drivers/STM32F4xx_HAL_Driver/Src/stm32f4xx_hal_tim_ex.c ****     (+) Stop the Hall Sensor Interface and disable DMA transfers.
 125:Drivers/STM32F4xx_HAL_Driver/Src/stm32f4xx_hal_tim_ex.c **** 
 126:Drivers/STM32F4xx_HAL_Driver/Src/stm32f4xx_hal_tim_ex.c **** @endverbatim
 127:Drivers/STM32F4xx_HAL_Driver/Src/stm32f4xx_hal_tim_ex.c ****   * @{
 128:Drivers/STM32F4xx_HAL_Driver/Src/stm32f4xx_hal_tim_ex.c ****   */
 129:Drivers/STM32F4xx_HAL_Driver/Src/stm32f4xx_hal_tim_ex.c **** /**
 130:Drivers/STM32F4xx_HAL_Driver/Src/stm32f4xx_hal_tim_ex.c ****   * @brief  Initializes the TIM Hall Sensor Interface and initialize the associated handle.
 131:Drivers/STM32F4xx_HAL_Driver/Src/stm32f4xx_hal_tim_ex.c ****   * @note   When the timer instance is initialized in Hall Sensor Interface mode,
 132:Drivers/STM32F4xx_HAL_Driver/Src/stm32f4xx_hal_tim_ex.c ****   *         timer channels 1 and channel 2 are reserved and cannot be used for
 133:Drivers/STM32F4xx_HAL_Driver/Src/stm32f4xx_hal_tim_ex.c ****   *         other purpose.
 134:Drivers/STM32F4xx_HAL_Driver/Src/stm32f4xx_hal_tim_ex.c ****   * @param  htim TIM Hall Sensor Interface handle
 135:Drivers/STM32F4xx_HAL_Driver/Src/stm32f4xx_hal_tim_ex.c ****   * @param  sConfig TIM Hall Sensor configuration structure
 136:Drivers/STM32F4xx_HAL_Driver/Src/stm32f4xx_hal_tim_ex.c ****   * @retval HAL status
 137:Drivers/STM32F4xx_HAL_Driver/Src/stm32f4xx_hal_tim_ex.c ****   */
 138:Drivers/STM32F4xx_HAL_Driver/Src/stm32f4xx_hal_tim_ex.c **** HAL_StatusTypeDef HAL_TIMEx_HallSensor_Init(TIM_HandleTypeDef *htim, TIM_HallSensor_InitTypeDef *sC
 139:Drivers/STM32F4xx_HAL_Driver/Src/stm32f4xx_hal_tim_ex.c **** {
  29              		.loc 1 139 1
  30              		.cfi_startproc
  31              		@ args = 0, pretend = 0, frame = 40
  32              		@ frame_needed = 1, uses_anonymous_args = 0
  33 0000 80B5     		push	{r7, lr}
ARM GAS  C:\Users\DAELT-~1\AppData\Local\Temp\cc2rhEX6.s 			page 4


  34              	.LCFI0:
  35              		.cfi_def_cfa_offset 8
  36              		.cfi_offset 7, -8
  37              		.cfi_offset 14, -4
  38 0002 8AB0     		sub	sp, sp, #40
  39              	.LCFI1:
  40              		.cfi_def_cfa_offset 48
  41 0004 00AF     		add	r7, sp, #0
  42              	.LCFI2:
  43              		.cfi_def_cfa_register 7
  44 0006 7860     		str	r0, [r7, #4]
  45 0008 3960     		str	r1, [r7]
 140:Drivers/STM32F4xx_HAL_Driver/Src/stm32f4xx_hal_tim_ex.c ****   TIM_OC_InitTypeDef OC_Config;
 141:Drivers/STM32F4xx_HAL_Driver/Src/stm32f4xx_hal_tim_ex.c **** 
 142:Drivers/STM32F4xx_HAL_Driver/Src/stm32f4xx_hal_tim_ex.c ****   /* Check the TIM handle allocation */
 143:Drivers/STM32F4xx_HAL_Driver/Src/stm32f4xx_hal_tim_ex.c ****   if (htim == NULL)
  46              		.loc 1 143 6
  47 000a 7B68     		ldr	r3, [r7, #4]
  48 000c 002B     		cmp	r3, #0
  49 000e 01D1     		bne	.L2
 144:Drivers/STM32F4xx_HAL_Driver/Src/stm32f4xx_hal_tim_ex.c ****   {
 145:Drivers/STM32F4xx_HAL_Driver/Src/stm32f4xx_hal_tim_ex.c ****     return HAL_ERROR;
  50              		.loc 1 145 12
  51 0010 0123     		movs	r3, #1
  52 0012 9AE0     		b	.L5
  53              	.L2:
 146:Drivers/STM32F4xx_HAL_Driver/Src/stm32f4xx_hal_tim_ex.c ****   }
 147:Drivers/STM32F4xx_HAL_Driver/Src/stm32f4xx_hal_tim_ex.c **** 
 148:Drivers/STM32F4xx_HAL_Driver/Src/stm32f4xx_hal_tim_ex.c ****   /* Check the parameters */
 149:Drivers/STM32F4xx_HAL_Driver/Src/stm32f4xx_hal_tim_ex.c ****   assert_param(IS_TIM_HALL_SENSOR_INTERFACE_INSTANCE(htim->Instance));
 150:Drivers/STM32F4xx_HAL_Driver/Src/stm32f4xx_hal_tim_ex.c ****   assert_param(IS_TIM_COUNTER_MODE(htim->Init.CounterMode));
 151:Drivers/STM32F4xx_HAL_Driver/Src/stm32f4xx_hal_tim_ex.c ****   assert_param(IS_TIM_CLOCKDIVISION_DIV(htim->Init.ClockDivision));
 152:Drivers/STM32F4xx_HAL_Driver/Src/stm32f4xx_hal_tim_ex.c ****   assert_param(IS_TIM_AUTORELOAD_PRELOAD(htim->Init.AutoReloadPreload));
 153:Drivers/STM32F4xx_HAL_Driver/Src/stm32f4xx_hal_tim_ex.c ****   assert_param(IS_TIM_IC_POLARITY(sConfig->IC1Polarity));
 154:Drivers/STM32F4xx_HAL_Driver/Src/stm32f4xx_hal_tim_ex.c ****   assert_param(IS_TIM_IC_PRESCALER(sConfig->IC1Prescaler));
 155:Drivers/STM32F4xx_HAL_Driver/Src/stm32f4xx_hal_tim_ex.c ****   assert_param(IS_TIM_IC_FILTER(sConfig->IC1Filter));
 156:Drivers/STM32F4xx_HAL_Driver/Src/stm32f4xx_hal_tim_ex.c **** 
 157:Drivers/STM32F4xx_HAL_Driver/Src/stm32f4xx_hal_tim_ex.c ****   if (htim->State == HAL_TIM_STATE_RESET)
  54              		.loc 1 157 11
  55 0014 7B68     		ldr	r3, [r7, #4]
  56 0016 93F83D30 		ldrb	r3, [r3, #61]
  57 001a DBB2     		uxtb	r3, r3
  58              		.loc 1 157 6
  59 001c 002B     		cmp	r3, #0
  60 001e 06D1     		bne	.L4
 158:Drivers/STM32F4xx_HAL_Driver/Src/stm32f4xx_hal_tim_ex.c ****   {
 159:Drivers/STM32F4xx_HAL_Driver/Src/stm32f4xx_hal_tim_ex.c ****     /* Allocate lock resource and initialize it */
 160:Drivers/STM32F4xx_HAL_Driver/Src/stm32f4xx_hal_tim_ex.c ****     htim->Lock = HAL_UNLOCKED;
  61              		.loc 1 160 16
  62 0020 7B68     		ldr	r3, [r7, #4]
  63 0022 0022     		movs	r2, #0
  64 0024 83F83C20 		strb	r2, [r3, #60]
 161:Drivers/STM32F4xx_HAL_Driver/Src/stm32f4xx_hal_tim_ex.c **** 
 162:Drivers/STM32F4xx_HAL_Driver/Src/stm32f4xx_hal_tim_ex.c **** #if (USE_HAL_TIM_REGISTER_CALLBACKS == 1)
 163:Drivers/STM32F4xx_HAL_Driver/Src/stm32f4xx_hal_tim_ex.c ****     /* Reset interrupt callbacks to legacy week callbacks */
 164:Drivers/STM32F4xx_HAL_Driver/Src/stm32f4xx_hal_tim_ex.c ****     TIM_ResetCallback(htim);
 165:Drivers/STM32F4xx_HAL_Driver/Src/stm32f4xx_hal_tim_ex.c **** 
ARM GAS  C:\Users\DAELT-~1\AppData\Local\Temp\cc2rhEX6.s 			page 5


 166:Drivers/STM32F4xx_HAL_Driver/Src/stm32f4xx_hal_tim_ex.c ****     if (htim->HallSensor_MspInitCallback == NULL)
 167:Drivers/STM32F4xx_HAL_Driver/Src/stm32f4xx_hal_tim_ex.c ****     {
 168:Drivers/STM32F4xx_HAL_Driver/Src/stm32f4xx_hal_tim_ex.c ****       htim->HallSensor_MspInitCallback = HAL_TIMEx_HallSensor_MspInit;
 169:Drivers/STM32F4xx_HAL_Driver/Src/stm32f4xx_hal_tim_ex.c ****     }
 170:Drivers/STM32F4xx_HAL_Driver/Src/stm32f4xx_hal_tim_ex.c ****     /* Init the low level hardware : GPIO, CLOCK, NVIC */
 171:Drivers/STM32F4xx_HAL_Driver/Src/stm32f4xx_hal_tim_ex.c ****     htim->HallSensor_MspInitCallback(htim);
 172:Drivers/STM32F4xx_HAL_Driver/Src/stm32f4xx_hal_tim_ex.c **** #else
 173:Drivers/STM32F4xx_HAL_Driver/Src/stm32f4xx_hal_tim_ex.c ****     /* Init the low level hardware : GPIO, CLOCK, NVIC and DMA */
 174:Drivers/STM32F4xx_HAL_Driver/Src/stm32f4xx_hal_tim_ex.c ****     HAL_TIMEx_HallSensor_MspInit(htim);
  65              		.loc 1 174 5
  66 0028 7868     		ldr	r0, [r7, #4]
  67 002a FFF7FEFF 		bl	HAL_TIMEx_HallSensor_MspInit
  68              	.L4:
 175:Drivers/STM32F4xx_HAL_Driver/Src/stm32f4xx_hal_tim_ex.c **** #endif /* USE_HAL_TIM_REGISTER_CALLBACKS */
 176:Drivers/STM32F4xx_HAL_Driver/Src/stm32f4xx_hal_tim_ex.c ****   }
 177:Drivers/STM32F4xx_HAL_Driver/Src/stm32f4xx_hal_tim_ex.c **** 
 178:Drivers/STM32F4xx_HAL_Driver/Src/stm32f4xx_hal_tim_ex.c ****   /* Set the TIM state */
 179:Drivers/STM32F4xx_HAL_Driver/Src/stm32f4xx_hal_tim_ex.c ****   htim->State = HAL_TIM_STATE_BUSY;
  69              		.loc 1 179 15
  70 002e 7B68     		ldr	r3, [r7, #4]
  71 0030 0222     		movs	r2, #2
  72 0032 83F83D20 		strb	r2, [r3, #61]
 180:Drivers/STM32F4xx_HAL_Driver/Src/stm32f4xx_hal_tim_ex.c **** 
 181:Drivers/STM32F4xx_HAL_Driver/Src/stm32f4xx_hal_tim_ex.c ****   /* Configure the Time base in the Encoder Mode */
 182:Drivers/STM32F4xx_HAL_Driver/Src/stm32f4xx_hal_tim_ex.c ****   TIM_Base_SetConfig(htim->Instance, &htim->Init);
  73              		.loc 1 182 3
  74 0036 7B68     		ldr	r3, [r7, #4]
  75 0038 1A68     		ldr	r2, [r3]
  76 003a 7B68     		ldr	r3, [r7, #4]
  77 003c 0433     		adds	r3, r3, #4
  78 003e 1946     		mov	r1, r3
  79 0040 1046     		mov	r0, r2
  80 0042 FFF7FEFF 		bl	TIM_Base_SetConfig
 183:Drivers/STM32F4xx_HAL_Driver/Src/stm32f4xx_hal_tim_ex.c **** 
 184:Drivers/STM32F4xx_HAL_Driver/Src/stm32f4xx_hal_tim_ex.c ****   /* Configure the Channel 1 as Input Channel to interface with the three Outputs of the  Hall sens
 185:Drivers/STM32F4xx_HAL_Driver/Src/stm32f4xx_hal_tim_ex.c ****   TIM_TI1_SetConfig(htim->Instance, sConfig->IC1Polarity, TIM_ICSELECTION_TRC, sConfig->IC1Filter);
  81              		.loc 1 185 3
  82 0046 7B68     		ldr	r3, [r7, #4]
  83 0048 1868     		ldr	r0, [r3]
  84 004a 3B68     		ldr	r3, [r7]
  85 004c 1968     		ldr	r1, [r3]
  86 004e 3B68     		ldr	r3, [r7]
  87 0050 9B68     		ldr	r3, [r3, #8]
  88 0052 0322     		movs	r2, #3
  89 0054 FFF7FEFF 		bl	TIM_TI1_SetConfig
 186:Drivers/STM32F4xx_HAL_Driver/Src/stm32f4xx_hal_tim_ex.c **** 
 187:Drivers/STM32F4xx_HAL_Driver/Src/stm32f4xx_hal_tim_ex.c ****   /* Reset the IC1PSC Bits */
 188:Drivers/STM32F4xx_HAL_Driver/Src/stm32f4xx_hal_tim_ex.c ****   htim->Instance->CCMR1 &= ~TIM_CCMR1_IC1PSC;
  90              		.loc 1 188 7
  91 0058 7B68     		ldr	r3, [r7, #4]
  92 005a 1B68     		ldr	r3, [r3]
  93              		.loc 1 188 17
  94 005c 9A69     		ldr	r2, [r3, #24]
  95              		.loc 1 188 7
  96 005e 7B68     		ldr	r3, [r7, #4]
  97 0060 1B68     		ldr	r3, [r3]
  98              		.loc 1 188 25
ARM GAS  C:\Users\DAELT-~1\AppData\Local\Temp\cc2rhEX6.s 			page 6


  99 0062 22F00C02 		bic	r2, r2, #12
 100 0066 9A61     		str	r2, [r3, #24]
 189:Drivers/STM32F4xx_HAL_Driver/Src/stm32f4xx_hal_tim_ex.c ****   /* Set the IC1PSC value */
 190:Drivers/STM32F4xx_HAL_Driver/Src/stm32f4xx_hal_tim_ex.c ****   htim->Instance->CCMR1 |= sConfig->IC1Prescaler;
 101              		.loc 1 190 7
 102 0068 7B68     		ldr	r3, [r7, #4]
 103 006a 1B68     		ldr	r3, [r3]
 104              		.loc 1 190 17
 105 006c 9969     		ldr	r1, [r3, #24]
 106              		.loc 1 190 35
 107 006e 3B68     		ldr	r3, [r7]
 108 0070 5A68     		ldr	r2, [r3, #4]
 109              		.loc 1 190 7
 110 0072 7B68     		ldr	r3, [r7, #4]
 111 0074 1B68     		ldr	r3, [r3]
 112              		.loc 1 190 25
 113 0076 0A43     		orrs	r2, r2, r1
 114 0078 9A61     		str	r2, [r3, #24]
 191:Drivers/STM32F4xx_HAL_Driver/Src/stm32f4xx_hal_tim_ex.c **** 
 192:Drivers/STM32F4xx_HAL_Driver/Src/stm32f4xx_hal_tim_ex.c ****   /* Enable the Hall sensor interface (XOR function of the three inputs) */
 193:Drivers/STM32F4xx_HAL_Driver/Src/stm32f4xx_hal_tim_ex.c ****   htim->Instance->CR2 |= TIM_CR2_TI1S;
 115              		.loc 1 193 7
 116 007a 7B68     		ldr	r3, [r7, #4]
 117 007c 1B68     		ldr	r3, [r3]
 118              		.loc 1 193 17
 119 007e 5A68     		ldr	r2, [r3, #4]
 120              		.loc 1 193 7
 121 0080 7B68     		ldr	r3, [r7, #4]
 122 0082 1B68     		ldr	r3, [r3]
 123              		.loc 1 193 23
 124 0084 42F08002 		orr	r2, r2, #128
 125 0088 5A60     		str	r2, [r3, #4]
 194:Drivers/STM32F4xx_HAL_Driver/Src/stm32f4xx_hal_tim_ex.c **** 
 195:Drivers/STM32F4xx_HAL_Driver/Src/stm32f4xx_hal_tim_ex.c ****   /* Select the TIM_TS_TI1F_ED signal as Input trigger for the TIM */
 196:Drivers/STM32F4xx_HAL_Driver/Src/stm32f4xx_hal_tim_ex.c ****   htim->Instance->SMCR &= ~TIM_SMCR_TS;
 126              		.loc 1 196 7
 127 008a 7B68     		ldr	r3, [r7, #4]
 128 008c 1B68     		ldr	r3, [r3]
 129              		.loc 1 196 17
 130 008e 9A68     		ldr	r2, [r3, #8]
 131              		.loc 1 196 7
 132 0090 7B68     		ldr	r3, [r7, #4]
 133 0092 1B68     		ldr	r3, [r3]
 134              		.loc 1 196 24
 135 0094 22F07002 		bic	r2, r2, #112
 136 0098 9A60     		str	r2, [r3, #8]
 197:Drivers/STM32F4xx_HAL_Driver/Src/stm32f4xx_hal_tim_ex.c ****   htim->Instance->SMCR |= TIM_TS_TI1F_ED;
 137              		.loc 1 197 7
 138 009a 7B68     		ldr	r3, [r7, #4]
 139 009c 1B68     		ldr	r3, [r3]
 140              		.loc 1 197 17
 141 009e 9A68     		ldr	r2, [r3, #8]
 142              		.loc 1 197 7
 143 00a0 7B68     		ldr	r3, [r7, #4]
 144 00a2 1B68     		ldr	r3, [r3]
 145              		.loc 1 197 24
 146 00a4 42F04002 		orr	r2, r2, #64
ARM GAS  C:\Users\DAELT-~1\AppData\Local\Temp\cc2rhEX6.s 			page 7


 147 00a8 9A60     		str	r2, [r3, #8]
 198:Drivers/STM32F4xx_HAL_Driver/Src/stm32f4xx_hal_tim_ex.c **** 
 199:Drivers/STM32F4xx_HAL_Driver/Src/stm32f4xx_hal_tim_ex.c ****   /* Use the TIM_TS_TI1F_ED signal to reset the TIM counter each edge detection */
 200:Drivers/STM32F4xx_HAL_Driver/Src/stm32f4xx_hal_tim_ex.c ****   htim->Instance->SMCR &= ~TIM_SMCR_SMS;
 148              		.loc 1 200 7
 149 00aa 7B68     		ldr	r3, [r7, #4]
 150 00ac 1B68     		ldr	r3, [r3]
 151              		.loc 1 200 17
 152 00ae 9A68     		ldr	r2, [r3, #8]
 153              		.loc 1 200 7
 154 00b0 7B68     		ldr	r3, [r7, #4]
 155 00b2 1B68     		ldr	r3, [r3]
 156              		.loc 1 200 24
 157 00b4 22F00702 		bic	r2, r2, #7
 158 00b8 9A60     		str	r2, [r3, #8]
 201:Drivers/STM32F4xx_HAL_Driver/Src/stm32f4xx_hal_tim_ex.c ****   htim->Instance->SMCR |= TIM_SLAVEMODE_RESET;
 159              		.loc 1 201 7
 160 00ba 7B68     		ldr	r3, [r7, #4]
 161 00bc 1B68     		ldr	r3, [r3]
 162              		.loc 1 201 17
 163 00be 9A68     		ldr	r2, [r3, #8]
 164              		.loc 1 201 7
 165 00c0 7B68     		ldr	r3, [r7, #4]
 166 00c2 1B68     		ldr	r3, [r3]
 167              		.loc 1 201 24
 168 00c4 42F00402 		orr	r2, r2, #4
 169 00c8 9A60     		str	r2, [r3, #8]
 202:Drivers/STM32F4xx_HAL_Driver/Src/stm32f4xx_hal_tim_ex.c **** 
 203:Drivers/STM32F4xx_HAL_Driver/Src/stm32f4xx_hal_tim_ex.c ****   /* Program channel 2 in PWM 2 mode with the desired Commutation_Delay*/
 204:Drivers/STM32F4xx_HAL_Driver/Src/stm32f4xx_hal_tim_ex.c ****   OC_Config.OCFastMode = TIM_OCFAST_DISABLE;
 170              		.loc 1 204 24
 171 00ca 0023     		movs	r3, #0
 172 00cc FB61     		str	r3, [r7, #28]
 205:Drivers/STM32F4xx_HAL_Driver/Src/stm32f4xx_hal_tim_ex.c ****   OC_Config.OCIdleState = TIM_OCIDLESTATE_RESET;
 173              		.loc 1 205 25
 174 00ce 0023     		movs	r3, #0
 175 00d0 3B62     		str	r3, [r7, #32]
 206:Drivers/STM32F4xx_HAL_Driver/Src/stm32f4xx_hal_tim_ex.c ****   OC_Config.OCMode = TIM_OCMODE_PWM2;
 176              		.loc 1 206 20
 177 00d2 7023     		movs	r3, #112
 178 00d4 FB60     		str	r3, [r7, #12]
 207:Drivers/STM32F4xx_HAL_Driver/Src/stm32f4xx_hal_tim_ex.c ****   OC_Config.OCNIdleState = TIM_OCNIDLESTATE_RESET;
 179              		.loc 1 207 26
 180 00d6 0023     		movs	r3, #0
 181 00d8 7B62     		str	r3, [r7, #36]
 208:Drivers/STM32F4xx_HAL_Driver/Src/stm32f4xx_hal_tim_ex.c ****   OC_Config.OCNPolarity = TIM_OCNPOLARITY_HIGH;
 182              		.loc 1 208 25
 183 00da 0023     		movs	r3, #0
 184 00dc BB61     		str	r3, [r7, #24]
 209:Drivers/STM32F4xx_HAL_Driver/Src/stm32f4xx_hal_tim_ex.c ****   OC_Config.OCPolarity = TIM_OCPOLARITY_HIGH;
 185              		.loc 1 209 24
 186 00de 0023     		movs	r3, #0
 187 00e0 7B61     		str	r3, [r7, #20]
 210:Drivers/STM32F4xx_HAL_Driver/Src/stm32f4xx_hal_tim_ex.c ****   OC_Config.Pulse = sConfig->Commutation_Delay;
 188              		.loc 1 210 28
 189 00e2 3B68     		ldr	r3, [r7]
 190 00e4 DB68     		ldr	r3, [r3, #12]
ARM GAS  C:\Users\DAELT-~1\AppData\Local\Temp\cc2rhEX6.s 			page 8


 191              		.loc 1 210 19
 192 00e6 3B61     		str	r3, [r7, #16]
 211:Drivers/STM32F4xx_HAL_Driver/Src/stm32f4xx_hal_tim_ex.c **** 
 212:Drivers/STM32F4xx_HAL_Driver/Src/stm32f4xx_hal_tim_ex.c ****   TIM_OC2_SetConfig(htim->Instance, &OC_Config);
 193              		.loc 1 212 3
 194 00e8 7B68     		ldr	r3, [r7, #4]
 195 00ea 1B68     		ldr	r3, [r3]
 196 00ec 07F10C02 		add	r2, r7, #12
 197 00f0 1146     		mov	r1, r2
 198 00f2 1846     		mov	r0, r3
 199 00f4 FFF7FEFF 		bl	TIM_OC2_SetConfig
 213:Drivers/STM32F4xx_HAL_Driver/Src/stm32f4xx_hal_tim_ex.c **** 
 214:Drivers/STM32F4xx_HAL_Driver/Src/stm32f4xx_hal_tim_ex.c ****   /* Select OC2REF as trigger output on TRGO: write the MMS bits in the TIMx_CR2
 215:Drivers/STM32F4xx_HAL_Driver/Src/stm32f4xx_hal_tim_ex.c ****     register to 101 */
 216:Drivers/STM32F4xx_HAL_Driver/Src/stm32f4xx_hal_tim_ex.c ****   htim->Instance->CR2 &= ~TIM_CR2_MMS;
 200              		.loc 1 216 7
 201 00f8 7B68     		ldr	r3, [r7, #4]
 202 00fa 1B68     		ldr	r3, [r3]
 203              		.loc 1 216 17
 204 00fc 5A68     		ldr	r2, [r3, #4]
 205              		.loc 1 216 7
 206 00fe 7B68     		ldr	r3, [r7, #4]
 207 0100 1B68     		ldr	r3, [r3]
 208              		.loc 1 216 23
 209 0102 22F07002 		bic	r2, r2, #112
 210 0106 5A60     		str	r2, [r3, #4]
 217:Drivers/STM32F4xx_HAL_Driver/Src/stm32f4xx_hal_tim_ex.c ****   htim->Instance->CR2 |= TIM_TRGO_OC2REF;
 211              		.loc 1 217 7
 212 0108 7B68     		ldr	r3, [r7, #4]
 213 010a 1B68     		ldr	r3, [r3]
 214              		.loc 1 217 17
 215 010c 5A68     		ldr	r2, [r3, #4]
 216              		.loc 1 217 7
 217 010e 7B68     		ldr	r3, [r7, #4]
 218 0110 1B68     		ldr	r3, [r3]
 219              		.loc 1 217 23
 220 0112 42F05002 		orr	r2, r2, #80
 221 0116 5A60     		str	r2, [r3, #4]
 218:Drivers/STM32F4xx_HAL_Driver/Src/stm32f4xx_hal_tim_ex.c **** 
 219:Drivers/STM32F4xx_HAL_Driver/Src/stm32f4xx_hal_tim_ex.c ****   /* Initialize the DMA burst operation state */
 220:Drivers/STM32F4xx_HAL_Driver/Src/stm32f4xx_hal_tim_ex.c ****   htim->DMABurstState = HAL_DMA_BURST_STATE_READY;
 222              		.loc 1 220 23
 223 0118 7B68     		ldr	r3, [r7, #4]
 224 011a 0122     		movs	r2, #1
 225 011c 83F84620 		strb	r2, [r3, #70]
 221:Drivers/STM32F4xx_HAL_Driver/Src/stm32f4xx_hal_tim_ex.c **** 
 222:Drivers/STM32F4xx_HAL_Driver/Src/stm32f4xx_hal_tim_ex.c ****   /* Initialize the TIM channels state */
 223:Drivers/STM32F4xx_HAL_Driver/Src/stm32f4xx_hal_tim_ex.c ****   TIM_CHANNEL_STATE_SET(htim, TIM_CHANNEL_1, HAL_TIM_CHANNEL_STATE_READY);
 226              		.loc 1 223 3
 227 0120 7B68     		ldr	r3, [r7, #4]
 228 0122 0122     		movs	r2, #1
 229 0124 83F83E20 		strb	r2, [r3, #62]
 224:Drivers/STM32F4xx_HAL_Driver/Src/stm32f4xx_hal_tim_ex.c ****   TIM_CHANNEL_STATE_SET(htim, TIM_CHANNEL_2, HAL_TIM_CHANNEL_STATE_READY);
 230              		.loc 1 224 3
 231 0128 7B68     		ldr	r3, [r7, #4]
 232 012a 0122     		movs	r2, #1
 233 012c 83F83F20 		strb	r2, [r3, #63]
ARM GAS  C:\Users\DAELT-~1\AppData\Local\Temp\cc2rhEX6.s 			page 9


 225:Drivers/STM32F4xx_HAL_Driver/Src/stm32f4xx_hal_tim_ex.c ****   TIM_CHANNEL_N_STATE_SET(htim, TIM_CHANNEL_1, HAL_TIM_CHANNEL_STATE_READY);
 234              		.loc 1 225 3
 235 0130 7B68     		ldr	r3, [r7, #4]
 236 0132 0122     		movs	r2, #1
 237 0134 83F84220 		strb	r2, [r3, #66]
 226:Drivers/STM32F4xx_HAL_Driver/Src/stm32f4xx_hal_tim_ex.c ****   TIM_CHANNEL_N_STATE_SET(htim, TIM_CHANNEL_2, HAL_TIM_CHANNEL_STATE_READY);
 238              		.loc 1 226 3
 239 0138 7B68     		ldr	r3, [r7, #4]
 240 013a 0122     		movs	r2, #1
 241 013c 83F84320 		strb	r2, [r3, #67]
 227:Drivers/STM32F4xx_HAL_Driver/Src/stm32f4xx_hal_tim_ex.c **** 
 228:Drivers/STM32F4xx_HAL_Driver/Src/stm32f4xx_hal_tim_ex.c ****   /* Initialize the TIM state*/
 229:Drivers/STM32F4xx_HAL_Driver/Src/stm32f4xx_hal_tim_ex.c ****   htim->State = HAL_TIM_STATE_READY;
 242              		.loc 1 229 15
 243 0140 7B68     		ldr	r3, [r7, #4]
 244 0142 0122     		movs	r2, #1
 245 0144 83F83D20 		strb	r2, [r3, #61]
 230:Drivers/STM32F4xx_HAL_Driver/Src/stm32f4xx_hal_tim_ex.c **** 
 231:Drivers/STM32F4xx_HAL_Driver/Src/stm32f4xx_hal_tim_ex.c ****   return HAL_OK;
 246              		.loc 1 231 10
 247 0148 0023     		movs	r3, #0
 248              	.L5:
 232:Drivers/STM32F4xx_HAL_Driver/Src/stm32f4xx_hal_tim_ex.c **** }
 249              		.loc 1 232 1
 250 014a 1846     		mov	r0, r3
 251 014c 2837     		adds	r7, r7, #40
 252              	.LCFI3:
 253              		.cfi_def_cfa_offset 8
 254 014e BD46     		mov	sp, r7
 255              	.LCFI4:
 256              		.cfi_def_cfa_register 13
 257              		@ sp needed
 258 0150 80BD     		pop	{r7, pc}
 259              		.cfi_endproc
 260              	.LFE130:
 262              		.section	.text.HAL_TIMEx_HallSensor_DeInit,"ax",%progbits
 263              		.align	1
 264              		.global	HAL_TIMEx_HallSensor_DeInit
 265              		.syntax unified
 266              		.thumb
 267              		.thumb_func
 269              	HAL_TIMEx_HallSensor_DeInit:
 270              	.LFB131:
 233:Drivers/STM32F4xx_HAL_Driver/Src/stm32f4xx_hal_tim_ex.c **** 
 234:Drivers/STM32F4xx_HAL_Driver/Src/stm32f4xx_hal_tim_ex.c **** /**
 235:Drivers/STM32F4xx_HAL_Driver/Src/stm32f4xx_hal_tim_ex.c ****   * @brief  DeInitializes the TIM Hall Sensor interface
 236:Drivers/STM32F4xx_HAL_Driver/Src/stm32f4xx_hal_tim_ex.c ****   * @param  htim TIM Hall Sensor Interface handle
 237:Drivers/STM32F4xx_HAL_Driver/Src/stm32f4xx_hal_tim_ex.c ****   * @retval HAL status
 238:Drivers/STM32F4xx_HAL_Driver/Src/stm32f4xx_hal_tim_ex.c ****   */
 239:Drivers/STM32F4xx_HAL_Driver/Src/stm32f4xx_hal_tim_ex.c **** HAL_StatusTypeDef HAL_TIMEx_HallSensor_DeInit(TIM_HandleTypeDef *htim)
 240:Drivers/STM32F4xx_HAL_Driver/Src/stm32f4xx_hal_tim_ex.c **** {
 271              		.loc 1 240 1
 272              		.cfi_startproc
 273              		@ args = 0, pretend = 0, frame = 8
 274              		@ frame_needed = 1, uses_anonymous_args = 0
 275 0000 80B5     		push	{r7, lr}
 276              	.LCFI5:
ARM GAS  C:\Users\DAELT-~1\AppData\Local\Temp\cc2rhEX6.s 			page 10


 277              		.cfi_def_cfa_offset 8
 278              		.cfi_offset 7, -8
 279              		.cfi_offset 14, -4
 280 0002 82B0     		sub	sp, sp, #8
 281              	.LCFI6:
 282              		.cfi_def_cfa_offset 16
 283 0004 00AF     		add	r7, sp, #0
 284              	.LCFI7:
 285              		.cfi_def_cfa_register 7
 286 0006 7860     		str	r0, [r7, #4]
 241:Drivers/STM32F4xx_HAL_Driver/Src/stm32f4xx_hal_tim_ex.c ****   /* Check the parameters */
 242:Drivers/STM32F4xx_HAL_Driver/Src/stm32f4xx_hal_tim_ex.c ****   assert_param(IS_TIM_INSTANCE(htim->Instance));
 243:Drivers/STM32F4xx_HAL_Driver/Src/stm32f4xx_hal_tim_ex.c **** 
 244:Drivers/STM32F4xx_HAL_Driver/Src/stm32f4xx_hal_tim_ex.c ****   htim->State = HAL_TIM_STATE_BUSY;
 287              		.loc 1 244 15
 288 0008 7B68     		ldr	r3, [r7, #4]
 289 000a 0222     		movs	r2, #2
 290 000c 83F83D20 		strb	r2, [r3, #61]
 245:Drivers/STM32F4xx_HAL_Driver/Src/stm32f4xx_hal_tim_ex.c **** 
 246:Drivers/STM32F4xx_HAL_Driver/Src/stm32f4xx_hal_tim_ex.c ****   /* Disable the TIM Peripheral Clock */
 247:Drivers/STM32F4xx_HAL_Driver/Src/stm32f4xx_hal_tim_ex.c ****   __HAL_TIM_DISABLE(htim);
 291              		.loc 1 247 3
 292 0010 7B68     		ldr	r3, [r7, #4]
 293 0012 1B68     		ldr	r3, [r3]
 294 0014 1A6A     		ldr	r2, [r3, #32]
 295 0016 41F21113 		movw	r3, #4369
 296 001a 1340     		ands	r3, r3, r2
 297 001c 002B     		cmp	r3, #0
 298 001e 0FD1     		bne	.L7
 299              		.loc 1 247 3 is_stmt 0 discriminator 1
 300 0020 7B68     		ldr	r3, [r7, #4]
 301 0022 1B68     		ldr	r3, [r3]
 302 0024 1A6A     		ldr	r2, [r3, #32]
 303 0026 40F24443 		movw	r3, #1092
 304 002a 1340     		ands	r3, r3, r2
 305 002c 002B     		cmp	r3, #0
 306 002e 07D1     		bne	.L7
 307              		.loc 1 247 3 discriminator 2
 308 0030 7B68     		ldr	r3, [r7, #4]
 309 0032 1B68     		ldr	r3, [r3]
 310 0034 1A68     		ldr	r2, [r3]
 311 0036 7B68     		ldr	r3, [r7, #4]
 312 0038 1B68     		ldr	r3, [r3]
 313 003a 22F00102 		bic	r2, r2, #1
 314 003e 1A60     		str	r2, [r3]
 315              	.L7:
 248:Drivers/STM32F4xx_HAL_Driver/Src/stm32f4xx_hal_tim_ex.c **** 
 249:Drivers/STM32F4xx_HAL_Driver/Src/stm32f4xx_hal_tim_ex.c **** #if (USE_HAL_TIM_REGISTER_CALLBACKS == 1)
 250:Drivers/STM32F4xx_HAL_Driver/Src/stm32f4xx_hal_tim_ex.c ****   if (htim->HallSensor_MspDeInitCallback == NULL)
 251:Drivers/STM32F4xx_HAL_Driver/Src/stm32f4xx_hal_tim_ex.c ****   {
 252:Drivers/STM32F4xx_HAL_Driver/Src/stm32f4xx_hal_tim_ex.c ****     htim->HallSensor_MspDeInitCallback = HAL_TIMEx_HallSensor_MspDeInit;
 253:Drivers/STM32F4xx_HAL_Driver/Src/stm32f4xx_hal_tim_ex.c ****   }
 254:Drivers/STM32F4xx_HAL_Driver/Src/stm32f4xx_hal_tim_ex.c ****   /* DeInit the low level hardware */
 255:Drivers/STM32F4xx_HAL_Driver/Src/stm32f4xx_hal_tim_ex.c ****   htim->HallSensor_MspDeInitCallback(htim);
 256:Drivers/STM32F4xx_HAL_Driver/Src/stm32f4xx_hal_tim_ex.c **** #else
 257:Drivers/STM32F4xx_HAL_Driver/Src/stm32f4xx_hal_tim_ex.c ****   /* DeInit the low level hardware: GPIO, CLOCK, NVIC */
 258:Drivers/STM32F4xx_HAL_Driver/Src/stm32f4xx_hal_tim_ex.c ****   HAL_TIMEx_HallSensor_MspDeInit(htim);
ARM GAS  C:\Users\DAELT-~1\AppData\Local\Temp\cc2rhEX6.s 			page 11


 316              		.loc 1 258 3 is_stmt 1
 317 0040 7868     		ldr	r0, [r7, #4]
 318 0042 FFF7FEFF 		bl	HAL_TIMEx_HallSensor_MspDeInit
 259:Drivers/STM32F4xx_HAL_Driver/Src/stm32f4xx_hal_tim_ex.c **** #endif /* USE_HAL_TIM_REGISTER_CALLBACKS */
 260:Drivers/STM32F4xx_HAL_Driver/Src/stm32f4xx_hal_tim_ex.c **** 
 261:Drivers/STM32F4xx_HAL_Driver/Src/stm32f4xx_hal_tim_ex.c ****   /* Change the DMA burst operation state */
 262:Drivers/STM32F4xx_HAL_Driver/Src/stm32f4xx_hal_tim_ex.c ****   htim->DMABurstState = HAL_DMA_BURST_STATE_RESET;
 319              		.loc 1 262 23
 320 0046 7B68     		ldr	r3, [r7, #4]
 321 0048 0022     		movs	r2, #0
 322 004a 83F84620 		strb	r2, [r3, #70]
 263:Drivers/STM32F4xx_HAL_Driver/Src/stm32f4xx_hal_tim_ex.c **** 
 264:Drivers/STM32F4xx_HAL_Driver/Src/stm32f4xx_hal_tim_ex.c ****   /* Change the TIM channels state */
 265:Drivers/STM32F4xx_HAL_Driver/Src/stm32f4xx_hal_tim_ex.c ****   TIM_CHANNEL_STATE_SET(htim, TIM_CHANNEL_1, HAL_TIM_CHANNEL_STATE_RESET);
 323              		.loc 1 265 3
 324 004e 7B68     		ldr	r3, [r7, #4]
 325 0050 0022     		movs	r2, #0
 326 0052 83F83E20 		strb	r2, [r3, #62]
 266:Drivers/STM32F4xx_HAL_Driver/Src/stm32f4xx_hal_tim_ex.c ****   TIM_CHANNEL_STATE_SET(htim, TIM_CHANNEL_2, HAL_TIM_CHANNEL_STATE_RESET);
 327              		.loc 1 266 3
 328 0056 7B68     		ldr	r3, [r7, #4]
 329 0058 0022     		movs	r2, #0
 330 005a 83F83F20 		strb	r2, [r3, #63]
 267:Drivers/STM32F4xx_HAL_Driver/Src/stm32f4xx_hal_tim_ex.c ****   TIM_CHANNEL_N_STATE_SET(htim, TIM_CHANNEL_1, HAL_TIM_CHANNEL_STATE_RESET);
 331              		.loc 1 267 3
 332 005e 7B68     		ldr	r3, [r7, #4]
 333 0060 0022     		movs	r2, #0
 334 0062 83F84220 		strb	r2, [r3, #66]
 268:Drivers/STM32F4xx_HAL_Driver/Src/stm32f4xx_hal_tim_ex.c ****   TIM_CHANNEL_N_STATE_SET(htim, TIM_CHANNEL_2, HAL_TIM_CHANNEL_STATE_RESET);
 335              		.loc 1 268 3
 336 0066 7B68     		ldr	r3, [r7, #4]
 337 0068 0022     		movs	r2, #0
 338 006a 83F84320 		strb	r2, [r3, #67]
 269:Drivers/STM32F4xx_HAL_Driver/Src/stm32f4xx_hal_tim_ex.c **** 
 270:Drivers/STM32F4xx_HAL_Driver/Src/stm32f4xx_hal_tim_ex.c ****   /* Change TIM state */
 271:Drivers/STM32F4xx_HAL_Driver/Src/stm32f4xx_hal_tim_ex.c ****   htim->State = HAL_TIM_STATE_RESET;
 339              		.loc 1 271 15
 340 006e 7B68     		ldr	r3, [r7, #4]
 341 0070 0022     		movs	r2, #0
 342 0072 83F83D20 		strb	r2, [r3, #61]
 272:Drivers/STM32F4xx_HAL_Driver/Src/stm32f4xx_hal_tim_ex.c **** 
 273:Drivers/STM32F4xx_HAL_Driver/Src/stm32f4xx_hal_tim_ex.c ****   /* Release Lock */
 274:Drivers/STM32F4xx_HAL_Driver/Src/stm32f4xx_hal_tim_ex.c ****   __HAL_UNLOCK(htim);
 343              		.loc 1 274 3
 344 0076 7B68     		ldr	r3, [r7, #4]
 345 0078 0022     		movs	r2, #0
 346 007a 83F83C20 		strb	r2, [r3, #60]
 275:Drivers/STM32F4xx_HAL_Driver/Src/stm32f4xx_hal_tim_ex.c **** 
 276:Drivers/STM32F4xx_HAL_Driver/Src/stm32f4xx_hal_tim_ex.c ****   return HAL_OK;
 347              		.loc 1 276 10
 348 007e 0023     		movs	r3, #0
 277:Drivers/STM32F4xx_HAL_Driver/Src/stm32f4xx_hal_tim_ex.c **** }
 349              		.loc 1 277 1
 350 0080 1846     		mov	r0, r3
 351 0082 0837     		adds	r7, r7, #8
 352              	.LCFI8:
 353              		.cfi_def_cfa_offset 8
ARM GAS  C:\Users\DAELT-~1\AppData\Local\Temp\cc2rhEX6.s 			page 12


 354 0084 BD46     		mov	sp, r7
 355              	.LCFI9:
 356              		.cfi_def_cfa_register 13
 357              		@ sp needed
 358 0086 80BD     		pop	{r7, pc}
 359              		.cfi_endproc
 360              	.LFE131:
 362              		.section	.text.HAL_TIMEx_HallSensor_MspInit,"ax",%progbits
 363              		.align	1
 364              		.weak	HAL_TIMEx_HallSensor_MspInit
 365              		.syntax unified
 366              		.thumb
 367              		.thumb_func
 369              	HAL_TIMEx_HallSensor_MspInit:
 370              	.LFB132:
 278:Drivers/STM32F4xx_HAL_Driver/Src/stm32f4xx_hal_tim_ex.c **** 
 279:Drivers/STM32F4xx_HAL_Driver/Src/stm32f4xx_hal_tim_ex.c **** /**
 280:Drivers/STM32F4xx_HAL_Driver/Src/stm32f4xx_hal_tim_ex.c ****   * @brief  Initializes the TIM Hall Sensor MSP.
 281:Drivers/STM32F4xx_HAL_Driver/Src/stm32f4xx_hal_tim_ex.c ****   * @param  htim TIM Hall Sensor Interface handle
 282:Drivers/STM32F4xx_HAL_Driver/Src/stm32f4xx_hal_tim_ex.c ****   * @retval None
 283:Drivers/STM32F4xx_HAL_Driver/Src/stm32f4xx_hal_tim_ex.c ****   */
 284:Drivers/STM32F4xx_HAL_Driver/Src/stm32f4xx_hal_tim_ex.c **** __weak void HAL_TIMEx_HallSensor_MspInit(TIM_HandleTypeDef *htim)
 285:Drivers/STM32F4xx_HAL_Driver/Src/stm32f4xx_hal_tim_ex.c **** {
 371              		.loc 1 285 1
 372              		.cfi_startproc
 373              		@ args = 0, pretend = 0, frame = 8
 374              		@ frame_needed = 1, uses_anonymous_args = 0
 375              		@ link register save eliminated.
 376 0000 80B4     		push	{r7}
 377              	.LCFI10:
 378              		.cfi_def_cfa_offset 4
 379              		.cfi_offset 7, -4
 380 0002 83B0     		sub	sp, sp, #12
 381              	.LCFI11:
 382              		.cfi_def_cfa_offset 16
 383 0004 00AF     		add	r7, sp, #0
 384              	.LCFI12:
 385              		.cfi_def_cfa_register 7
 386 0006 7860     		str	r0, [r7, #4]
 286:Drivers/STM32F4xx_HAL_Driver/Src/stm32f4xx_hal_tim_ex.c ****   /* Prevent unused argument(s) compilation warning */
 287:Drivers/STM32F4xx_HAL_Driver/Src/stm32f4xx_hal_tim_ex.c ****   UNUSED(htim);
 288:Drivers/STM32F4xx_HAL_Driver/Src/stm32f4xx_hal_tim_ex.c **** 
 289:Drivers/STM32F4xx_HAL_Driver/Src/stm32f4xx_hal_tim_ex.c ****   /* NOTE : This function should not be modified, when the callback is needed,
 290:Drivers/STM32F4xx_HAL_Driver/Src/stm32f4xx_hal_tim_ex.c ****             the HAL_TIMEx_HallSensor_MspInit could be implemented in the user file
 291:Drivers/STM32F4xx_HAL_Driver/Src/stm32f4xx_hal_tim_ex.c ****    */
 292:Drivers/STM32F4xx_HAL_Driver/Src/stm32f4xx_hal_tim_ex.c **** }
 387              		.loc 1 292 1
 388 0008 00BF     		nop
 389 000a 0C37     		adds	r7, r7, #12
 390              	.LCFI13:
 391              		.cfi_def_cfa_offset 4
 392 000c BD46     		mov	sp, r7
 393              	.LCFI14:
 394              		.cfi_def_cfa_register 13
 395              		@ sp needed
 396 000e 5DF8047B 		ldr	r7, [sp], #4
 397              	.LCFI15:
ARM GAS  C:\Users\DAELT-~1\AppData\Local\Temp\cc2rhEX6.s 			page 13


 398              		.cfi_restore 7
 399              		.cfi_def_cfa_offset 0
 400 0012 7047     		bx	lr
 401              		.cfi_endproc
 402              	.LFE132:
 404              		.section	.text.HAL_TIMEx_HallSensor_MspDeInit,"ax",%progbits
 405              		.align	1
 406              		.weak	HAL_TIMEx_HallSensor_MspDeInit
 407              		.syntax unified
 408              		.thumb
 409              		.thumb_func
 411              	HAL_TIMEx_HallSensor_MspDeInit:
 412              	.LFB133:
 293:Drivers/STM32F4xx_HAL_Driver/Src/stm32f4xx_hal_tim_ex.c **** 
 294:Drivers/STM32F4xx_HAL_Driver/Src/stm32f4xx_hal_tim_ex.c **** /**
 295:Drivers/STM32F4xx_HAL_Driver/Src/stm32f4xx_hal_tim_ex.c ****   * @brief  DeInitializes TIM Hall Sensor MSP.
 296:Drivers/STM32F4xx_HAL_Driver/Src/stm32f4xx_hal_tim_ex.c ****   * @param  htim TIM Hall Sensor Interface handle
 297:Drivers/STM32F4xx_HAL_Driver/Src/stm32f4xx_hal_tim_ex.c ****   * @retval None
 298:Drivers/STM32F4xx_HAL_Driver/Src/stm32f4xx_hal_tim_ex.c ****   */
 299:Drivers/STM32F4xx_HAL_Driver/Src/stm32f4xx_hal_tim_ex.c **** __weak void HAL_TIMEx_HallSensor_MspDeInit(TIM_HandleTypeDef *htim)
 300:Drivers/STM32F4xx_HAL_Driver/Src/stm32f4xx_hal_tim_ex.c **** {
 413              		.loc 1 300 1
 414              		.cfi_startproc
 415              		@ args = 0, pretend = 0, frame = 8
 416              		@ frame_needed = 1, uses_anonymous_args = 0
 417              		@ link register save eliminated.
 418 0000 80B4     		push	{r7}
 419              	.LCFI16:
 420              		.cfi_def_cfa_offset 4
 421              		.cfi_offset 7, -4
 422 0002 83B0     		sub	sp, sp, #12
 423              	.LCFI17:
 424              		.cfi_def_cfa_offset 16
 425 0004 00AF     		add	r7, sp, #0
 426              	.LCFI18:
 427              		.cfi_def_cfa_register 7
 428 0006 7860     		str	r0, [r7, #4]
 301:Drivers/STM32F4xx_HAL_Driver/Src/stm32f4xx_hal_tim_ex.c ****   /* Prevent unused argument(s) compilation warning */
 302:Drivers/STM32F4xx_HAL_Driver/Src/stm32f4xx_hal_tim_ex.c ****   UNUSED(htim);
 303:Drivers/STM32F4xx_HAL_Driver/Src/stm32f4xx_hal_tim_ex.c **** 
 304:Drivers/STM32F4xx_HAL_Driver/Src/stm32f4xx_hal_tim_ex.c ****   /* NOTE : This function should not be modified, when the callback is needed,
 305:Drivers/STM32F4xx_HAL_Driver/Src/stm32f4xx_hal_tim_ex.c ****             the HAL_TIMEx_HallSensor_MspDeInit could be implemented in the user file
 306:Drivers/STM32F4xx_HAL_Driver/Src/stm32f4xx_hal_tim_ex.c ****    */
 307:Drivers/STM32F4xx_HAL_Driver/Src/stm32f4xx_hal_tim_ex.c **** }
 429              		.loc 1 307 1
 430 0008 00BF     		nop
 431 000a 0C37     		adds	r7, r7, #12
 432              	.LCFI19:
 433              		.cfi_def_cfa_offset 4
 434 000c BD46     		mov	sp, r7
 435              	.LCFI20:
 436              		.cfi_def_cfa_register 13
 437              		@ sp needed
 438 000e 5DF8047B 		ldr	r7, [sp], #4
 439              	.LCFI21:
 440              		.cfi_restore 7
 441              		.cfi_def_cfa_offset 0
ARM GAS  C:\Users\DAELT-~1\AppData\Local\Temp\cc2rhEX6.s 			page 14


 442 0012 7047     		bx	lr
 443              		.cfi_endproc
 444              	.LFE133:
 446              		.section	.text.HAL_TIMEx_HallSensor_Start,"ax",%progbits
 447              		.align	1
 448              		.global	HAL_TIMEx_HallSensor_Start
 449              		.syntax unified
 450              		.thumb
 451              		.thumb_func
 453              	HAL_TIMEx_HallSensor_Start:
 454              	.LFB134:
 308:Drivers/STM32F4xx_HAL_Driver/Src/stm32f4xx_hal_tim_ex.c **** 
 309:Drivers/STM32F4xx_HAL_Driver/Src/stm32f4xx_hal_tim_ex.c **** /**
 310:Drivers/STM32F4xx_HAL_Driver/Src/stm32f4xx_hal_tim_ex.c ****   * @brief  Starts the TIM Hall Sensor Interface.
 311:Drivers/STM32F4xx_HAL_Driver/Src/stm32f4xx_hal_tim_ex.c ****   * @param  htim TIM Hall Sensor Interface handle
 312:Drivers/STM32F4xx_HAL_Driver/Src/stm32f4xx_hal_tim_ex.c ****   * @retval HAL status
 313:Drivers/STM32F4xx_HAL_Driver/Src/stm32f4xx_hal_tim_ex.c ****   */
 314:Drivers/STM32F4xx_HAL_Driver/Src/stm32f4xx_hal_tim_ex.c **** HAL_StatusTypeDef HAL_TIMEx_HallSensor_Start(TIM_HandleTypeDef *htim)
 315:Drivers/STM32F4xx_HAL_Driver/Src/stm32f4xx_hal_tim_ex.c **** {
 455              		.loc 1 315 1
 456              		.cfi_startproc
 457              		@ args = 0, pretend = 0, frame = 16
 458              		@ frame_needed = 1, uses_anonymous_args = 0
 459 0000 80B5     		push	{r7, lr}
 460              	.LCFI22:
 461              		.cfi_def_cfa_offset 8
 462              		.cfi_offset 7, -8
 463              		.cfi_offset 14, -4
 464 0002 84B0     		sub	sp, sp, #16
 465              	.LCFI23:
 466              		.cfi_def_cfa_offset 24
 467 0004 00AF     		add	r7, sp, #0
 468              	.LCFI24:
 469              		.cfi_def_cfa_register 7
 470 0006 7860     		str	r0, [r7, #4]
 316:Drivers/STM32F4xx_HAL_Driver/Src/stm32f4xx_hal_tim_ex.c ****   uint32_t tmpsmcr;
 317:Drivers/STM32F4xx_HAL_Driver/Src/stm32f4xx_hal_tim_ex.c ****   HAL_TIM_ChannelStateTypeDef channel_1_state = TIM_CHANNEL_STATE_GET(htim, TIM_CHANNEL_1);
 471              		.loc 1 317 31
 472 0008 7B68     		ldr	r3, [r7, #4]
 473 000a 93F83E30 		ldrb	r3, [r3, #62]
 474 000e FB73     		strb	r3, [r7, #15]
 318:Drivers/STM32F4xx_HAL_Driver/Src/stm32f4xx_hal_tim_ex.c ****   HAL_TIM_ChannelStateTypeDef channel_2_state = TIM_CHANNEL_STATE_GET(htim, TIM_CHANNEL_2);
 475              		.loc 1 318 31
 476 0010 7B68     		ldr	r3, [r7, #4]
 477 0012 93F83F30 		ldrb	r3, [r3, #63]
 478 0016 BB73     		strb	r3, [r7, #14]
 319:Drivers/STM32F4xx_HAL_Driver/Src/stm32f4xx_hal_tim_ex.c ****   HAL_TIM_ChannelStateTypeDef complementary_channel_1_state = TIM_CHANNEL_N_STATE_GET(htim, TIM_CHA
 479              		.loc 1 319 31
 480 0018 7B68     		ldr	r3, [r7, #4]
 481 001a 93F84230 		ldrb	r3, [r3, #66]
 482 001e 7B73     		strb	r3, [r7, #13]
 320:Drivers/STM32F4xx_HAL_Driver/Src/stm32f4xx_hal_tim_ex.c ****   HAL_TIM_ChannelStateTypeDef complementary_channel_2_state = TIM_CHANNEL_N_STATE_GET(htim, TIM_CHA
 483              		.loc 1 320 31
 484 0020 7B68     		ldr	r3, [r7, #4]
 485 0022 93F84330 		ldrb	r3, [r3, #67]
 486 0026 3B73     		strb	r3, [r7, #12]
 321:Drivers/STM32F4xx_HAL_Driver/Src/stm32f4xx_hal_tim_ex.c **** 
ARM GAS  C:\Users\DAELT-~1\AppData\Local\Temp\cc2rhEX6.s 			page 15


 322:Drivers/STM32F4xx_HAL_Driver/Src/stm32f4xx_hal_tim_ex.c ****   /* Check the parameters */
 323:Drivers/STM32F4xx_HAL_Driver/Src/stm32f4xx_hal_tim_ex.c ****   assert_param(IS_TIM_HALL_SENSOR_INTERFACE_INSTANCE(htim->Instance));
 324:Drivers/STM32F4xx_HAL_Driver/Src/stm32f4xx_hal_tim_ex.c **** 
 325:Drivers/STM32F4xx_HAL_Driver/Src/stm32f4xx_hal_tim_ex.c ****   /* Check the TIM channels state */
 326:Drivers/STM32F4xx_HAL_Driver/Src/stm32f4xx_hal_tim_ex.c ****   if ((channel_1_state != HAL_TIM_CHANNEL_STATE_READY)
 487              		.loc 1 326 6
 488 0028 FB7B     		ldrb	r3, [r7, #15]	@ zero_extendqisi2
 489 002a 012B     		cmp	r3, #1
 490 002c 08D1     		bne	.L12
 327:Drivers/STM32F4xx_HAL_Driver/Src/stm32f4xx_hal_tim_ex.c ****       || (channel_2_state != HAL_TIM_CHANNEL_STATE_READY)
 491              		.loc 1 327 7
 492 002e BB7B     		ldrb	r3, [r7, #14]	@ zero_extendqisi2
 493 0030 012B     		cmp	r3, #1
 494 0032 05D1     		bne	.L12
 328:Drivers/STM32F4xx_HAL_Driver/Src/stm32f4xx_hal_tim_ex.c ****       || (complementary_channel_1_state != HAL_TIM_CHANNEL_STATE_READY)
 495              		.loc 1 328 7
 496 0034 7B7B     		ldrb	r3, [r7, #13]	@ zero_extendqisi2
 497 0036 012B     		cmp	r3, #1
 498 0038 02D1     		bne	.L12
 329:Drivers/STM32F4xx_HAL_Driver/Src/stm32f4xx_hal_tim_ex.c ****       || (complementary_channel_2_state != HAL_TIM_CHANNEL_STATE_READY))
 499              		.loc 1 329 7
 500 003a 3B7B     		ldrb	r3, [r7, #12]	@ zero_extendqisi2
 501 003c 012B     		cmp	r3, #1
 502 003e 01D0     		beq	.L13
 503              	.L12:
 330:Drivers/STM32F4xx_HAL_Driver/Src/stm32f4xx_hal_tim_ex.c ****   {
 331:Drivers/STM32F4xx_HAL_Driver/Src/stm32f4xx_hal_tim_ex.c ****     return HAL_ERROR;
 504              		.loc 1 331 12
 505 0040 0123     		movs	r3, #1
 506 0042 4FE0     		b	.L14
 507              	.L13:
 332:Drivers/STM32F4xx_HAL_Driver/Src/stm32f4xx_hal_tim_ex.c ****   }
 333:Drivers/STM32F4xx_HAL_Driver/Src/stm32f4xx_hal_tim_ex.c **** 
 334:Drivers/STM32F4xx_HAL_Driver/Src/stm32f4xx_hal_tim_ex.c ****   /* Set the TIM channels state */
 335:Drivers/STM32F4xx_HAL_Driver/Src/stm32f4xx_hal_tim_ex.c ****   TIM_CHANNEL_STATE_SET(htim, TIM_CHANNEL_1, HAL_TIM_CHANNEL_STATE_BUSY);
 508              		.loc 1 335 3
 509 0044 7B68     		ldr	r3, [r7, #4]
 510 0046 0222     		movs	r2, #2
 511 0048 83F83E20 		strb	r2, [r3, #62]
 336:Drivers/STM32F4xx_HAL_Driver/Src/stm32f4xx_hal_tim_ex.c ****   TIM_CHANNEL_STATE_SET(htim, TIM_CHANNEL_2, HAL_TIM_CHANNEL_STATE_BUSY);
 512              		.loc 1 336 3
 513 004c 7B68     		ldr	r3, [r7, #4]
 514 004e 0222     		movs	r2, #2
 515 0050 83F83F20 		strb	r2, [r3, #63]
 337:Drivers/STM32F4xx_HAL_Driver/Src/stm32f4xx_hal_tim_ex.c ****   TIM_CHANNEL_N_STATE_SET(htim, TIM_CHANNEL_1, HAL_TIM_CHANNEL_STATE_BUSY);
 516              		.loc 1 337 3
 517 0054 7B68     		ldr	r3, [r7, #4]
 518 0056 0222     		movs	r2, #2
 519 0058 83F84220 		strb	r2, [r3, #66]
 338:Drivers/STM32F4xx_HAL_Driver/Src/stm32f4xx_hal_tim_ex.c ****   TIM_CHANNEL_N_STATE_SET(htim, TIM_CHANNEL_2, HAL_TIM_CHANNEL_STATE_BUSY);
 520              		.loc 1 338 3
 521 005c 7B68     		ldr	r3, [r7, #4]
 522 005e 0222     		movs	r2, #2
 523 0060 83F84320 		strb	r2, [r3, #67]
 339:Drivers/STM32F4xx_HAL_Driver/Src/stm32f4xx_hal_tim_ex.c **** 
 340:Drivers/STM32F4xx_HAL_Driver/Src/stm32f4xx_hal_tim_ex.c ****   /* Enable the Input Capture channel 1
 341:Drivers/STM32F4xx_HAL_Driver/Src/stm32f4xx_hal_tim_ex.c ****   (in the Hall Sensor Interface the three possible channels that can be used are TIM_CHANNEL_1,
ARM GAS  C:\Users\DAELT-~1\AppData\Local\Temp\cc2rhEX6.s 			page 16


 342:Drivers/STM32F4xx_HAL_Driver/Src/stm32f4xx_hal_tim_ex.c ****   TIM_CHANNEL_2 and TIM_CHANNEL_3) */
 343:Drivers/STM32F4xx_HAL_Driver/Src/stm32f4xx_hal_tim_ex.c ****   TIM_CCxChannelCmd(htim->Instance, TIM_CHANNEL_1, TIM_CCx_ENABLE);
 524              		.loc 1 343 3
 525 0064 7B68     		ldr	r3, [r7, #4]
 526 0066 1B68     		ldr	r3, [r3]
 527 0068 0122     		movs	r2, #1
 528 006a 0021     		movs	r1, #0
 529 006c 1846     		mov	r0, r3
 530 006e FFF7FEFF 		bl	TIM_CCxChannelCmd
 344:Drivers/STM32F4xx_HAL_Driver/Src/stm32f4xx_hal_tim_ex.c **** 
 345:Drivers/STM32F4xx_HAL_Driver/Src/stm32f4xx_hal_tim_ex.c ****   /* Enable the Peripheral, except in trigger mode where enable is automatically done with trigger 
 346:Drivers/STM32F4xx_HAL_Driver/Src/stm32f4xx_hal_tim_ex.c ****   if (IS_TIM_SLAVE_INSTANCE(htim->Instance))
 531              		.loc 1 346 7
 532 0072 7B68     		ldr	r3, [r7, #4]
 533 0074 1B68     		ldr	r3, [r3]
 534              		.loc 1 346 6
 535 0076 1D4A     		ldr	r2, .L19
 536 0078 9342     		cmp	r3, r2
 537 007a 18D0     		beq	.L15
 538              		.loc 1 346 7 discriminator 1
 539 007c 7B68     		ldr	r3, [r7, #4]
 540 007e 1B68     		ldr	r3, [r3]
 541 0080 B3F1804F 		cmp	r3, #1073741824
 542 0084 13D0     		beq	.L15
 543              		.loc 1 346 7 is_stmt 0 discriminator 2
 544 0086 7B68     		ldr	r3, [r7, #4]
 545 0088 1B68     		ldr	r3, [r3]
 546 008a 194A     		ldr	r2, .L19+4
 547 008c 9342     		cmp	r3, r2
 548 008e 0ED0     		beq	.L15
 549              		.loc 1 346 7 discriminator 3
 550 0090 7B68     		ldr	r3, [r7, #4]
 551 0092 1B68     		ldr	r3, [r3]
 552 0094 174A     		ldr	r2, .L19+8
 553 0096 9342     		cmp	r3, r2
 554 0098 09D0     		beq	.L15
 555              		.loc 1 346 7 discriminator 4
 556 009a 7B68     		ldr	r3, [r7, #4]
 557 009c 1B68     		ldr	r3, [r3]
 558 009e 164A     		ldr	r2, .L19+12
 559 00a0 9342     		cmp	r3, r2
 560 00a2 04D0     		beq	.L15
 561              		.loc 1 346 7 discriminator 5
 562 00a4 7B68     		ldr	r3, [r7, #4]
 563 00a6 1B68     		ldr	r3, [r3]
 564 00a8 144A     		ldr	r2, .L19+16
 565 00aa 9342     		cmp	r3, r2
 566 00ac 11D1     		bne	.L16
 567              	.L15:
 347:Drivers/STM32F4xx_HAL_Driver/Src/stm32f4xx_hal_tim_ex.c ****   {
 348:Drivers/STM32F4xx_HAL_Driver/Src/stm32f4xx_hal_tim_ex.c ****     tmpsmcr = htim->Instance->SMCR & TIM_SMCR_SMS;
 568              		.loc 1 348 19 is_stmt 1
 569 00ae 7B68     		ldr	r3, [r7, #4]
 570 00b0 1B68     		ldr	r3, [r3]
 571              		.loc 1 348 29
 572 00b2 9B68     		ldr	r3, [r3, #8]
 573              		.loc 1 348 13
ARM GAS  C:\Users\DAELT-~1\AppData\Local\Temp\cc2rhEX6.s 			page 17


 574 00b4 03F00703 		and	r3, r3, #7
 575 00b8 BB60     		str	r3, [r7, #8]
 349:Drivers/STM32F4xx_HAL_Driver/Src/stm32f4xx_hal_tim_ex.c ****     if (!IS_TIM_SLAVEMODE_TRIGGER_ENABLED(tmpsmcr))
 576              		.loc 1 349 8
 577 00ba BB68     		ldr	r3, [r7, #8]
 578 00bc 062B     		cmp	r3, #6
 579 00be 10D0     		beq	.L18
 350:Drivers/STM32F4xx_HAL_Driver/Src/stm32f4xx_hal_tim_ex.c ****     {
 351:Drivers/STM32F4xx_HAL_Driver/Src/stm32f4xx_hal_tim_ex.c ****       __HAL_TIM_ENABLE(htim);
 580              		.loc 1 351 7
 581 00c0 7B68     		ldr	r3, [r7, #4]
 582 00c2 1B68     		ldr	r3, [r3]
 583 00c4 1A68     		ldr	r2, [r3]
 584 00c6 7B68     		ldr	r3, [r7, #4]
 585 00c8 1B68     		ldr	r3, [r3]
 586 00ca 42F00102 		orr	r2, r2, #1
 587 00ce 1A60     		str	r2, [r3]
 349:Drivers/STM32F4xx_HAL_Driver/Src/stm32f4xx_hal_tim_ex.c ****     if (!IS_TIM_SLAVEMODE_TRIGGER_ENABLED(tmpsmcr))
 588              		.loc 1 349 8
 589 00d0 07E0     		b	.L18
 590              	.L16:
 352:Drivers/STM32F4xx_HAL_Driver/Src/stm32f4xx_hal_tim_ex.c ****     }
 353:Drivers/STM32F4xx_HAL_Driver/Src/stm32f4xx_hal_tim_ex.c ****   }
 354:Drivers/STM32F4xx_HAL_Driver/Src/stm32f4xx_hal_tim_ex.c ****   else
 355:Drivers/STM32F4xx_HAL_Driver/Src/stm32f4xx_hal_tim_ex.c ****   {
 356:Drivers/STM32F4xx_HAL_Driver/Src/stm32f4xx_hal_tim_ex.c ****     __HAL_TIM_ENABLE(htim);
 591              		.loc 1 356 5
 592 00d2 7B68     		ldr	r3, [r7, #4]
 593 00d4 1B68     		ldr	r3, [r3]
 594 00d6 1A68     		ldr	r2, [r3]
 595 00d8 7B68     		ldr	r3, [r7, #4]
 596 00da 1B68     		ldr	r3, [r3]
 597 00dc 42F00102 		orr	r2, r2, #1
 598 00e0 1A60     		str	r2, [r3]
 599              	.L18:
 357:Drivers/STM32F4xx_HAL_Driver/Src/stm32f4xx_hal_tim_ex.c ****   }
 358:Drivers/STM32F4xx_HAL_Driver/Src/stm32f4xx_hal_tim_ex.c **** 
 359:Drivers/STM32F4xx_HAL_Driver/Src/stm32f4xx_hal_tim_ex.c ****   /* Return function status */
 360:Drivers/STM32F4xx_HAL_Driver/Src/stm32f4xx_hal_tim_ex.c ****   return HAL_OK;
 600              		.loc 1 360 10
 601 00e2 0023     		movs	r3, #0
 602              	.L14:
 361:Drivers/STM32F4xx_HAL_Driver/Src/stm32f4xx_hal_tim_ex.c **** }
 603              		.loc 1 361 1
 604 00e4 1846     		mov	r0, r3
 605 00e6 1037     		adds	r7, r7, #16
 606              	.LCFI25:
 607              		.cfi_def_cfa_offset 8
 608 00e8 BD46     		mov	sp, r7
 609              	.LCFI26:
 610              		.cfi_def_cfa_register 13
 611              		@ sp needed
 612 00ea 80BD     		pop	{r7, pc}
 613              	.L20:
 614              		.align	2
 615              	.L19:
 616 00ec 00000140 		.word	1073807360
ARM GAS  C:\Users\DAELT-~1\AppData\Local\Temp\cc2rhEX6.s 			page 18


 617 00f0 00040040 		.word	1073742848
 618 00f4 00080040 		.word	1073743872
 619 00f8 000C0040 		.word	1073744896
 620 00fc 00400140 		.word	1073823744
 621              		.cfi_endproc
 622              	.LFE134:
 624              		.section	.text.HAL_TIMEx_HallSensor_Stop,"ax",%progbits
 625              		.align	1
 626              		.global	HAL_TIMEx_HallSensor_Stop
 627              		.syntax unified
 628              		.thumb
 629              		.thumb_func
 631              	HAL_TIMEx_HallSensor_Stop:
 632              	.LFB135:
 362:Drivers/STM32F4xx_HAL_Driver/Src/stm32f4xx_hal_tim_ex.c **** 
 363:Drivers/STM32F4xx_HAL_Driver/Src/stm32f4xx_hal_tim_ex.c **** /**
 364:Drivers/STM32F4xx_HAL_Driver/Src/stm32f4xx_hal_tim_ex.c ****   * @brief  Stops the TIM Hall sensor Interface.
 365:Drivers/STM32F4xx_HAL_Driver/Src/stm32f4xx_hal_tim_ex.c ****   * @param  htim TIM Hall Sensor Interface handle
 366:Drivers/STM32F4xx_HAL_Driver/Src/stm32f4xx_hal_tim_ex.c ****   * @retval HAL status
 367:Drivers/STM32F4xx_HAL_Driver/Src/stm32f4xx_hal_tim_ex.c ****   */
 368:Drivers/STM32F4xx_HAL_Driver/Src/stm32f4xx_hal_tim_ex.c **** HAL_StatusTypeDef HAL_TIMEx_HallSensor_Stop(TIM_HandleTypeDef *htim)
 369:Drivers/STM32F4xx_HAL_Driver/Src/stm32f4xx_hal_tim_ex.c **** {
 633              		.loc 1 369 1
 634              		.cfi_startproc
 635              		@ args = 0, pretend = 0, frame = 8
 636              		@ frame_needed = 1, uses_anonymous_args = 0
 637 0000 80B5     		push	{r7, lr}
 638              	.LCFI27:
 639              		.cfi_def_cfa_offset 8
 640              		.cfi_offset 7, -8
 641              		.cfi_offset 14, -4
 642 0002 82B0     		sub	sp, sp, #8
 643              	.LCFI28:
 644              		.cfi_def_cfa_offset 16
 645 0004 00AF     		add	r7, sp, #0
 646              	.LCFI29:
 647              		.cfi_def_cfa_register 7
 648 0006 7860     		str	r0, [r7, #4]
 370:Drivers/STM32F4xx_HAL_Driver/Src/stm32f4xx_hal_tim_ex.c ****   /* Check the parameters */
 371:Drivers/STM32F4xx_HAL_Driver/Src/stm32f4xx_hal_tim_ex.c ****   assert_param(IS_TIM_HALL_SENSOR_INTERFACE_INSTANCE(htim->Instance));
 372:Drivers/STM32F4xx_HAL_Driver/Src/stm32f4xx_hal_tim_ex.c **** 
 373:Drivers/STM32F4xx_HAL_Driver/Src/stm32f4xx_hal_tim_ex.c ****   /* Disable the Input Capture channels 1, 2 and 3
 374:Drivers/STM32F4xx_HAL_Driver/Src/stm32f4xx_hal_tim_ex.c ****   (in the Hall Sensor Interface the three possible channels that can be used are TIM_CHANNEL_1,
 375:Drivers/STM32F4xx_HAL_Driver/Src/stm32f4xx_hal_tim_ex.c ****   TIM_CHANNEL_2 and TIM_CHANNEL_3) */
 376:Drivers/STM32F4xx_HAL_Driver/Src/stm32f4xx_hal_tim_ex.c ****   TIM_CCxChannelCmd(htim->Instance, TIM_CHANNEL_1, TIM_CCx_DISABLE);
 649              		.loc 1 376 3
 650 0008 7B68     		ldr	r3, [r7, #4]
 651 000a 1B68     		ldr	r3, [r3]
 652 000c 0022     		movs	r2, #0
 653 000e 0021     		movs	r1, #0
 654 0010 1846     		mov	r0, r3
 655 0012 FFF7FEFF 		bl	TIM_CCxChannelCmd
 377:Drivers/STM32F4xx_HAL_Driver/Src/stm32f4xx_hal_tim_ex.c **** 
 378:Drivers/STM32F4xx_HAL_Driver/Src/stm32f4xx_hal_tim_ex.c ****   /* Disable the Peripheral */
 379:Drivers/STM32F4xx_HAL_Driver/Src/stm32f4xx_hal_tim_ex.c ****   __HAL_TIM_DISABLE(htim);
 656              		.loc 1 379 3
 657 0016 7B68     		ldr	r3, [r7, #4]
ARM GAS  C:\Users\DAELT-~1\AppData\Local\Temp\cc2rhEX6.s 			page 19


 658 0018 1B68     		ldr	r3, [r3]
 659 001a 1A6A     		ldr	r2, [r3, #32]
 660 001c 41F21113 		movw	r3, #4369
 661 0020 1340     		ands	r3, r3, r2
 662 0022 002B     		cmp	r3, #0
 663 0024 0FD1     		bne	.L22
 664              		.loc 1 379 3 is_stmt 0 discriminator 1
 665 0026 7B68     		ldr	r3, [r7, #4]
 666 0028 1B68     		ldr	r3, [r3]
 667 002a 1A6A     		ldr	r2, [r3, #32]
 668 002c 40F24443 		movw	r3, #1092
 669 0030 1340     		ands	r3, r3, r2
 670 0032 002B     		cmp	r3, #0
 671 0034 07D1     		bne	.L22
 672              		.loc 1 379 3 discriminator 2
 673 0036 7B68     		ldr	r3, [r7, #4]
 674 0038 1B68     		ldr	r3, [r3]
 675 003a 1A68     		ldr	r2, [r3]
 676 003c 7B68     		ldr	r3, [r7, #4]
 677 003e 1B68     		ldr	r3, [r3]
 678 0040 22F00102 		bic	r2, r2, #1
 679 0044 1A60     		str	r2, [r3]
 680              	.L22:
 380:Drivers/STM32F4xx_HAL_Driver/Src/stm32f4xx_hal_tim_ex.c **** 
 381:Drivers/STM32F4xx_HAL_Driver/Src/stm32f4xx_hal_tim_ex.c ****   /* Set the TIM channels state */
 382:Drivers/STM32F4xx_HAL_Driver/Src/stm32f4xx_hal_tim_ex.c ****   TIM_CHANNEL_STATE_SET(htim, TIM_CHANNEL_1, HAL_TIM_CHANNEL_STATE_READY);
 681              		.loc 1 382 3 is_stmt 1
 682 0046 7B68     		ldr	r3, [r7, #4]
 683 0048 0122     		movs	r2, #1
 684 004a 83F83E20 		strb	r2, [r3, #62]
 383:Drivers/STM32F4xx_HAL_Driver/Src/stm32f4xx_hal_tim_ex.c ****   TIM_CHANNEL_STATE_SET(htim, TIM_CHANNEL_2, HAL_TIM_CHANNEL_STATE_READY);
 685              		.loc 1 383 3
 686 004e 7B68     		ldr	r3, [r7, #4]
 687 0050 0122     		movs	r2, #1
 688 0052 83F83F20 		strb	r2, [r3, #63]
 384:Drivers/STM32F4xx_HAL_Driver/Src/stm32f4xx_hal_tim_ex.c ****   TIM_CHANNEL_N_STATE_SET(htim, TIM_CHANNEL_1, HAL_TIM_CHANNEL_STATE_READY);
 689              		.loc 1 384 3
 690 0056 7B68     		ldr	r3, [r7, #4]
 691 0058 0122     		movs	r2, #1
 692 005a 83F84220 		strb	r2, [r3, #66]
 385:Drivers/STM32F4xx_HAL_Driver/Src/stm32f4xx_hal_tim_ex.c ****   TIM_CHANNEL_N_STATE_SET(htim, TIM_CHANNEL_2, HAL_TIM_CHANNEL_STATE_READY);
 693              		.loc 1 385 3
 694 005e 7B68     		ldr	r3, [r7, #4]
 695 0060 0122     		movs	r2, #1
 696 0062 83F84320 		strb	r2, [r3, #67]
 386:Drivers/STM32F4xx_HAL_Driver/Src/stm32f4xx_hal_tim_ex.c **** 
 387:Drivers/STM32F4xx_HAL_Driver/Src/stm32f4xx_hal_tim_ex.c ****   /* Return function status */
 388:Drivers/STM32F4xx_HAL_Driver/Src/stm32f4xx_hal_tim_ex.c ****   return HAL_OK;
 697              		.loc 1 388 10
 698 0066 0023     		movs	r3, #0
 389:Drivers/STM32F4xx_HAL_Driver/Src/stm32f4xx_hal_tim_ex.c **** }
 699              		.loc 1 389 1
 700 0068 1846     		mov	r0, r3
 701 006a 0837     		adds	r7, r7, #8
 702              	.LCFI30:
 703              		.cfi_def_cfa_offset 8
 704 006c BD46     		mov	sp, r7
ARM GAS  C:\Users\DAELT-~1\AppData\Local\Temp\cc2rhEX6.s 			page 20


 705              	.LCFI31:
 706              		.cfi_def_cfa_register 13
 707              		@ sp needed
 708 006e 80BD     		pop	{r7, pc}
 709              		.cfi_endproc
 710              	.LFE135:
 712              		.section	.text.HAL_TIMEx_HallSensor_Start_IT,"ax",%progbits
 713              		.align	1
 714              		.global	HAL_TIMEx_HallSensor_Start_IT
 715              		.syntax unified
 716              		.thumb
 717              		.thumb_func
 719              	HAL_TIMEx_HallSensor_Start_IT:
 720              	.LFB136:
 390:Drivers/STM32F4xx_HAL_Driver/Src/stm32f4xx_hal_tim_ex.c **** 
 391:Drivers/STM32F4xx_HAL_Driver/Src/stm32f4xx_hal_tim_ex.c **** /**
 392:Drivers/STM32F4xx_HAL_Driver/Src/stm32f4xx_hal_tim_ex.c ****   * @brief  Starts the TIM Hall Sensor Interface in interrupt mode.
 393:Drivers/STM32F4xx_HAL_Driver/Src/stm32f4xx_hal_tim_ex.c ****   * @param  htim TIM Hall Sensor Interface handle
 394:Drivers/STM32F4xx_HAL_Driver/Src/stm32f4xx_hal_tim_ex.c ****   * @retval HAL status
 395:Drivers/STM32F4xx_HAL_Driver/Src/stm32f4xx_hal_tim_ex.c ****   */
 396:Drivers/STM32F4xx_HAL_Driver/Src/stm32f4xx_hal_tim_ex.c **** HAL_StatusTypeDef HAL_TIMEx_HallSensor_Start_IT(TIM_HandleTypeDef *htim)
 397:Drivers/STM32F4xx_HAL_Driver/Src/stm32f4xx_hal_tim_ex.c **** {
 721              		.loc 1 397 1
 722              		.cfi_startproc
 723              		@ args = 0, pretend = 0, frame = 16
 724              		@ frame_needed = 1, uses_anonymous_args = 0
 725 0000 80B5     		push	{r7, lr}
 726              	.LCFI32:
 727              		.cfi_def_cfa_offset 8
 728              		.cfi_offset 7, -8
 729              		.cfi_offset 14, -4
 730 0002 84B0     		sub	sp, sp, #16
 731              	.LCFI33:
 732              		.cfi_def_cfa_offset 24
 733 0004 00AF     		add	r7, sp, #0
 734              	.LCFI34:
 735              		.cfi_def_cfa_register 7
 736 0006 7860     		str	r0, [r7, #4]
 398:Drivers/STM32F4xx_HAL_Driver/Src/stm32f4xx_hal_tim_ex.c ****   uint32_t tmpsmcr;
 399:Drivers/STM32F4xx_HAL_Driver/Src/stm32f4xx_hal_tim_ex.c ****   HAL_TIM_ChannelStateTypeDef channel_1_state = TIM_CHANNEL_STATE_GET(htim, TIM_CHANNEL_1);
 737              		.loc 1 399 31
 738 0008 7B68     		ldr	r3, [r7, #4]
 739 000a 93F83E30 		ldrb	r3, [r3, #62]
 740 000e FB73     		strb	r3, [r7, #15]
 400:Drivers/STM32F4xx_HAL_Driver/Src/stm32f4xx_hal_tim_ex.c ****   HAL_TIM_ChannelStateTypeDef channel_2_state = TIM_CHANNEL_STATE_GET(htim, TIM_CHANNEL_2);
 741              		.loc 1 400 31
 742 0010 7B68     		ldr	r3, [r7, #4]
 743 0012 93F83F30 		ldrb	r3, [r3, #63]
 744 0016 BB73     		strb	r3, [r7, #14]
 401:Drivers/STM32F4xx_HAL_Driver/Src/stm32f4xx_hal_tim_ex.c ****   HAL_TIM_ChannelStateTypeDef complementary_channel_1_state = TIM_CHANNEL_N_STATE_GET(htim, TIM_CHA
 745              		.loc 1 401 31
 746 0018 7B68     		ldr	r3, [r7, #4]
 747 001a 93F84230 		ldrb	r3, [r3, #66]
 748 001e 7B73     		strb	r3, [r7, #13]
 402:Drivers/STM32F4xx_HAL_Driver/Src/stm32f4xx_hal_tim_ex.c ****   HAL_TIM_ChannelStateTypeDef complementary_channel_2_state = TIM_CHANNEL_N_STATE_GET(htim, TIM_CHA
 749              		.loc 1 402 31
 750 0020 7B68     		ldr	r3, [r7, #4]
ARM GAS  C:\Users\DAELT-~1\AppData\Local\Temp\cc2rhEX6.s 			page 21


 751 0022 93F84330 		ldrb	r3, [r3, #67]
 752 0026 3B73     		strb	r3, [r7, #12]
 403:Drivers/STM32F4xx_HAL_Driver/Src/stm32f4xx_hal_tim_ex.c **** 
 404:Drivers/STM32F4xx_HAL_Driver/Src/stm32f4xx_hal_tim_ex.c ****   /* Check the parameters */
 405:Drivers/STM32F4xx_HAL_Driver/Src/stm32f4xx_hal_tim_ex.c ****   assert_param(IS_TIM_HALL_SENSOR_INTERFACE_INSTANCE(htim->Instance));
 406:Drivers/STM32F4xx_HAL_Driver/Src/stm32f4xx_hal_tim_ex.c **** 
 407:Drivers/STM32F4xx_HAL_Driver/Src/stm32f4xx_hal_tim_ex.c ****   /* Check the TIM channels state */
 408:Drivers/STM32F4xx_HAL_Driver/Src/stm32f4xx_hal_tim_ex.c ****   if ((channel_1_state != HAL_TIM_CHANNEL_STATE_READY)
 753              		.loc 1 408 6
 754 0028 FB7B     		ldrb	r3, [r7, #15]	@ zero_extendqisi2
 755 002a 012B     		cmp	r3, #1
 756 002c 08D1     		bne	.L25
 409:Drivers/STM32F4xx_HAL_Driver/Src/stm32f4xx_hal_tim_ex.c ****       || (channel_2_state != HAL_TIM_CHANNEL_STATE_READY)
 757              		.loc 1 409 7
 758 002e BB7B     		ldrb	r3, [r7, #14]	@ zero_extendqisi2
 759 0030 012B     		cmp	r3, #1
 760 0032 05D1     		bne	.L25
 410:Drivers/STM32F4xx_HAL_Driver/Src/stm32f4xx_hal_tim_ex.c ****       || (complementary_channel_1_state != HAL_TIM_CHANNEL_STATE_READY)
 761              		.loc 1 410 7
 762 0034 7B7B     		ldrb	r3, [r7, #13]	@ zero_extendqisi2
 763 0036 012B     		cmp	r3, #1
 764 0038 02D1     		bne	.L25
 411:Drivers/STM32F4xx_HAL_Driver/Src/stm32f4xx_hal_tim_ex.c ****       || (complementary_channel_2_state != HAL_TIM_CHANNEL_STATE_READY))
 765              		.loc 1 411 7
 766 003a 3B7B     		ldrb	r3, [r7, #12]	@ zero_extendqisi2
 767 003c 012B     		cmp	r3, #1
 768 003e 01D0     		beq	.L26
 769              	.L25:
 412:Drivers/STM32F4xx_HAL_Driver/Src/stm32f4xx_hal_tim_ex.c ****   {
 413:Drivers/STM32F4xx_HAL_Driver/Src/stm32f4xx_hal_tim_ex.c ****     return HAL_ERROR;
 770              		.loc 1 413 12
 771 0040 0123     		movs	r3, #1
 772 0042 57E0     		b	.L27
 773              	.L26:
 414:Drivers/STM32F4xx_HAL_Driver/Src/stm32f4xx_hal_tim_ex.c ****   }
 415:Drivers/STM32F4xx_HAL_Driver/Src/stm32f4xx_hal_tim_ex.c **** 
 416:Drivers/STM32F4xx_HAL_Driver/Src/stm32f4xx_hal_tim_ex.c ****   /* Set the TIM channels state */
 417:Drivers/STM32F4xx_HAL_Driver/Src/stm32f4xx_hal_tim_ex.c ****   TIM_CHANNEL_STATE_SET(htim, TIM_CHANNEL_1, HAL_TIM_CHANNEL_STATE_BUSY);
 774              		.loc 1 417 3
 775 0044 7B68     		ldr	r3, [r7, #4]
 776 0046 0222     		movs	r2, #2
 777 0048 83F83E20 		strb	r2, [r3, #62]
 418:Drivers/STM32F4xx_HAL_Driver/Src/stm32f4xx_hal_tim_ex.c ****   TIM_CHANNEL_STATE_SET(htim, TIM_CHANNEL_2, HAL_TIM_CHANNEL_STATE_BUSY);
 778              		.loc 1 418 3
 779 004c 7B68     		ldr	r3, [r7, #4]
 780 004e 0222     		movs	r2, #2
 781 0050 83F83F20 		strb	r2, [r3, #63]
 419:Drivers/STM32F4xx_HAL_Driver/Src/stm32f4xx_hal_tim_ex.c ****   TIM_CHANNEL_N_STATE_SET(htim, TIM_CHANNEL_1, HAL_TIM_CHANNEL_STATE_BUSY);
 782              		.loc 1 419 3
 783 0054 7B68     		ldr	r3, [r7, #4]
 784 0056 0222     		movs	r2, #2
 785 0058 83F84220 		strb	r2, [r3, #66]
 420:Drivers/STM32F4xx_HAL_Driver/Src/stm32f4xx_hal_tim_ex.c ****   TIM_CHANNEL_N_STATE_SET(htim, TIM_CHANNEL_2, HAL_TIM_CHANNEL_STATE_BUSY);
 786              		.loc 1 420 3
 787 005c 7B68     		ldr	r3, [r7, #4]
 788 005e 0222     		movs	r2, #2
 789 0060 83F84320 		strb	r2, [r3, #67]
ARM GAS  C:\Users\DAELT-~1\AppData\Local\Temp\cc2rhEX6.s 			page 22


 421:Drivers/STM32F4xx_HAL_Driver/Src/stm32f4xx_hal_tim_ex.c **** 
 422:Drivers/STM32F4xx_HAL_Driver/Src/stm32f4xx_hal_tim_ex.c ****   /* Enable the capture compare Interrupts 1 event */
 423:Drivers/STM32F4xx_HAL_Driver/Src/stm32f4xx_hal_tim_ex.c ****   __HAL_TIM_ENABLE_IT(htim, TIM_IT_CC1);
 790              		.loc 1 423 3
 791 0064 7B68     		ldr	r3, [r7, #4]
 792 0066 1B68     		ldr	r3, [r3]
 793 0068 DA68     		ldr	r2, [r3, #12]
 794 006a 7B68     		ldr	r3, [r7, #4]
 795 006c 1B68     		ldr	r3, [r3]
 796 006e 42F00202 		orr	r2, r2, #2
 797 0072 DA60     		str	r2, [r3, #12]
 424:Drivers/STM32F4xx_HAL_Driver/Src/stm32f4xx_hal_tim_ex.c **** 
 425:Drivers/STM32F4xx_HAL_Driver/Src/stm32f4xx_hal_tim_ex.c ****   /* Enable the Input Capture channel 1
 426:Drivers/STM32F4xx_HAL_Driver/Src/stm32f4xx_hal_tim_ex.c ****   (in the Hall Sensor Interface the three possible channels that can be used are TIM_CHANNEL_1,
 427:Drivers/STM32F4xx_HAL_Driver/Src/stm32f4xx_hal_tim_ex.c ****   TIM_CHANNEL_2 and TIM_CHANNEL_3) */
 428:Drivers/STM32F4xx_HAL_Driver/Src/stm32f4xx_hal_tim_ex.c ****   TIM_CCxChannelCmd(htim->Instance, TIM_CHANNEL_1, TIM_CCx_ENABLE);
 798              		.loc 1 428 3
 799 0074 7B68     		ldr	r3, [r7, #4]
 800 0076 1B68     		ldr	r3, [r3]
 801 0078 0122     		movs	r2, #1
 802 007a 0021     		movs	r1, #0
 803 007c 1846     		mov	r0, r3
 804 007e FFF7FEFF 		bl	TIM_CCxChannelCmd
 429:Drivers/STM32F4xx_HAL_Driver/Src/stm32f4xx_hal_tim_ex.c **** 
 430:Drivers/STM32F4xx_HAL_Driver/Src/stm32f4xx_hal_tim_ex.c ****   /* Enable the Peripheral, except in trigger mode where enable is automatically done with trigger 
 431:Drivers/STM32F4xx_HAL_Driver/Src/stm32f4xx_hal_tim_ex.c ****   if (IS_TIM_SLAVE_INSTANCE(htim->Instance))
 805              		.loc 1 431 7
 806 0082 7B68     		ldr	r3, [r7, #4]
 807 0084 1B68     		ldr	r3, [r3]
 808              		.loc 1 431 6
 809 0086 1D4A     		ldr	r2, .L32
 810 0088 9342     		cmp	r3, r2
 811 008a 18D0     		beq	.L28
 812              		.loc 1 431 7 discriminator 1
 813 008c 7B68     		ldr	r3, [r7, #4]
 814 008e 1B68     		ldr	r3, [r3]
 815 0090 B3F1804F 		cmp	r3, #1073741824
 816 0094 13D0     		beq	.L28
 817              		.loc 1 431 7 is_stmt 0 discriminator 2
 818 0096 7B68     		ldr	r3, [r7, #4]
 819 0098 1B68     		ldr	r3, [r3]
 820 009a 194A     		ldr	r2, .L32+4
 821 009c 9342     		cmp	r3, r2
 822 009e 0ED0     		beq	.L28
 823              		.loc 1 431 7 discriminator 3
 824 00a0 7B68     		ldr	r3, [r7, #4]
 825 00a2 1B68     		ldr	r3, [r3]
 826 00a4 174A     		ldr	r2, .L32+8
 827 00a6 9342     		cmp	r3, r2
 828 00a8 09D0     		beq	.L28
 829              		.loc 1 431 7 discriminator 4
 830 00aa 7B68     		ldr	r3, [r7, #4]
 831 00ac 1B68     		ldr	r3, [r3]
 832 00ae 164A     		ldr	r2, .L32+12
 833 00b0 9342     		cmp	r3, r2
 834 00b2 04D0     		beq	.L28
 835              		.loc 1 431 7 discriminator 5
ARM GAS  C:\Users\DAELT-~1\AppData\Local\Temp\cc2rhEX6.s 			page 23


 836 00b4 7B68     		ldr	r3, [r7, #4]
 837 00b6 1B68     		ldr	r3, [r3]
 838 00b8 144A     		ldr	r2, .L32+16
 839 00ba 9342     		cmp	r3, r2
 840 00bc 11D1     		bne	.L29
 841              	.L28:
 432:Drivers/STM32F4xx_HAL_Driver/Src/stm32f4xx_hal_tim_ex.c ****   {
 433:Drivers/STM32F4xx_HAL_Driver/Src/stm32f4xx_hal_tim_ex.c ****     tmpsmcr = htim->Instance->SMCR & TIM_SMCR_SMS;
 842              		.loc 1 433 19 is_stmt 1
 843 00be 7B68     		ldr	r3, [r7, #4]
 844 00c0 1B68     		ldr	r3, [r3]
 845              		.loc 1 433 29
 846 00c2 9B68     		ldr	r3, [r3, #8]
 847              		.loc 1 433 13
 848 00c4 03F00703 		and	r3, r3, #7
 849 00c8 BB60     		str	r3, [r7, #8]
 434:Drivers/STM32F4xx_HAL_Driver/Src/stm32f4xx_hal_tim_ex.c ****     if (!IS_TIM_SLAVEMODE_TRIGGER_ENABLED(tmpsmcr))
 850              		.loc 1 434 8
 851 00ca BB68     		ldr	r3, [r7, #8]
 852 00cc 062B     		cmp	r3, #6
 853 00ce 10D0     		beq	.L31
 435:Drivers/STM32F4xx_HAL_Driver/Src/stm32f4xx_hal_tim_ex.c ****     {
 436:Drivers/STM32F4xx_HAL_Driver/Src/stm32f4xx_hal_tim_ex.c ****       __HAL_TIM_ENABLE(htim);
 854              		.loc 1 436 7
 855 00d0 7B68     		ldr	r3, [r7, #4]
 856 00d2 1B68     		ldr	r3, [r3]
 857 00d4 1A68     		ldr	r2, [r3]
 858 00d6 7B68     		ldr	r3, [r7, #4]
 859 00d8 1B68     		ldr	r3, [r3]
 860 00da 42F00102 		orr	r2, r2, #1
 861 00de 1A60     		str	r2, [r3]
 434:Drivers/STM32F4xx_HAL_Driver/Src/stm32f4xx_hal_tim_ex.c ****     if (!IS_TIM_SLAVEMODE_TRIGGER_ENABLED(tmpsmcr))
 862              		.loc 1 434 8
 863 00e0 07E0     		b	.L31
 864              	.L29:
 437:Drivers/STM32F4xx_HAL_Driver/Src/stm32f4xx_hal_tim_ex.c ****     }
 438:Drivers/STM32F4xx_HAL_Driver/Src/stm32f4xx_hal_tim_ex.c ****   }
 439:Drivers/STM32F4xx_HAL_Driver/Src/stm32f4xx_hal_tim_ex.c ****   else
 440:Drivers/STM32F4xx_HAL_Driver/Src/stm32f4xx_hal_tim_ex.c ****   {
 441:Drivers/STM32F4xx_HAL_Driver/Src/stm32f4xx_hal_tim_ex.c ****     __HAL_TIM_ENABLE(htim);
 865              		.loc 1 441 5
 866 00e2 7B68     		ldr	r3, [r7, #4]
 867 00e4 1B68     		ldr	r3, [r3]
 868 00e6 1A68     		ldr	r2, [r3]
 869 00e8 7B68     		ldr	r3, [r7, #4]
 870 00ea 1B68     		ldr	r3, [r3]
 871 00ec 42F00102 		orr	r2, r2, #1
 872 00f0 1A60     		str	r2, [r3]
 873              	.L31:
 442:Drivers/STM32F4xx_HAL_Driver/Src/stm32f4xx_hal_tim_ex.c ****   }
 443:Drivers/STM32F4xx_HAL_Driver/Src/stm32f4xx_hal_tim_ex.c **** 
 444:Drivers/STM32F4xx_HAL_Driver/Src/stm32f4xx_hal_tim_ex.c ****   /* Return function status */
 445:Drivers/STM32F4xx_HAL_Driver/Src/stm32f4xx_hal_tim_ex.c ****   return HAL_OK;
 874              		.loc 1 445 10
 875 00f2 0023     		movs	r3, #0
 876              	.L27:
 446:Drivers/STM32F4xx_HAL_Driver/Src/stm32f4xx_hal_tim_ex.c **** }
ARM GAS  C:\Users\DAELT-~1\AppData\Local\Temp\cc2rhEX6.s 			page 24


 877              		.loc 1 446 1
 878 00f4 1846     		mov	r0, r3
 879 00f6 1037     		adds	r7, r7, #16
 880              	.LCFI35:
 881              		.cfi_def_cfa_offset 8
 882 00f8 BD46     		mov	sp, r7
 883              	.LCFI36:
 884              		.cfi_def_cfa_register 13
 885              		@ sp needed
 886 00fa 80BD     		pop	{r7, pc}
 887              	.L33:
 888              		.align	2
 889              	.L32:
 890 00fc 00000140 		.word	1073807360
 891 0100 00040040 		.word	1073742848
 892 0104 00080040 		.word	1073743872
 893 0108 000C0040 		.word	1073744896
 894 010c 00400140 		.word	1073823744
 895              		.cfi_endproc
 896              	.LFE136:
 898              		.section	.text.HAL_TIMEx_HallSensor_Stop_IT,"ax",%progbits
 899              		.align	1
 900              		.global	HAL_TIMEx_HallSensor_Stop_IT
 901              		.syntax unified
 902              		.thumb
 903              		.thumb_func
 905              	HAL_TIMEx_HallSensor_Stop_IT:
 906              	.LFB137:
 447:Drivers/STM32F4xx_HAL_Driver/Src/stm32f4xx_hal_tim_ex.c **** 
 448:Drivers/STM32F4xx_HAL_Driver/Src/stm32f4xx_hal_tim_ex.c **** /**
 449:Drivers/STM32F4xx_HAL_Driver/Src/stm32f4xx_hal_tim_ex.c ****   * @brief  Stops the TIM Hall Sensor Interface in interrupt mode.
 450:Drivers/STM32F4xx_HAL_Driver/Src/stm32f4xx_hal_tim_ex.c ****   * @param  htim TIM Hall Sensor Interface handle
 451:Drivers/STM32F4xx_HAL_Driver/Src/stm32f4xx_hal_tim_ex.c ****   * @retval HAL status
 452:Drivers/STM32F4xx_HAL_Driver/Src/stm32f4xx_hal_tim_ex.c ****   */
 453:Drivers/STM32F4xx_HAL_Driver/Src/stm32f4xx_hal_tim_ex.c **** HAL_StatusTypeDef HAL_TIMEx_HallSensor_Stop_IT(TIM_HandleTypeDef *htim)
 454:Drivers/STM32F4xx_HAL_Driver/Src/stm32f4xx_hal_tim_ex.c **** {
 907              		.loc 1 454 1
 908              		.cfi_startproc
 909              		@ args = 0, pretend = 0, frame = 8
 910              		@ frame_needed = 1, uses_anonymous_args = 0
 911 0000 80B5     		push	{r7, lr}
 912              	.LCFI37:
 913              		.cfi_def_cfa_offset 8
 914              		.cfi_offset 7, -8
 915              		.cfi_offset 14, -4
 916 0002 82B0     		sub	sp, sp, #8
 917              	.LCFI38:
 918              		.cfi_def_cfa_offset 16
 919 0004 00AF     		add	r7, sp, #0
 920              	.LCFI39:
 921              		.cfi_def_cfa_register 7
 922 0006 7860     		str	r0, [r7, #4]
 455:Drivers/STM32F4xx_HAL_Driver/Src/stm32f4xx_hal_tim_ex.c ****   /* Check the parameters */
 456:Drivers/STM32F4xx_HAL_Driver/Src/stm32f4xx_hal_tim_ex.c ****   assert_param(IS_TIM_HALL_SENSOR_INTERFACE_INSTANCE(htim->Instance));
 457:Drivers/STM32F4xx_HAL_Driver/Src/stm32f4xx_hal_tim_ex.c **** 
 458:Drivers/STM32F4xx_HAL_Driver/Src/stm32f4xx_hal_tim_ex.c ****   /* Disable the Input Capture channel 1
 459:Drivers/STM32F4xx_HAL_Driver/Src/stm32f4xx_hal_tim_ex.c ****   (in the Hall Sensor Interface the three possible channels that can be used are TIM_CHANNEL_1,
ARM GAS  C:\Users\DAELT-~1\AppData\Local\Temp\cc2rhEX6.s 			page 25


 460:Drivers/STM32F4xx_HAL_Driver/Src/stm32f4xx_hal_tim_ex.c ****   TIM_CHANNEL_2 and TIM_CHANNEL_3) */
 461:Drivers/STM32F4xx_HAL_Driver/Src/stm32f4xx_hal_tim_ex.c ****   TIM_CCxChannelCmd(htim->Instance, TIM_CHANNEL_1, TIM_CCx_DISABLE);
 923              		.loc 1 461 3
 924 0008 7B68     		ldr	r3, [r7, #4]
 925 000a 1B68     		ldr	r3, [r3]
 926 000c 0022     		movs	r2, #0
 927 000e 0021     		movs	r1, #0
 928 0010 1846     		mov	r0, r3
 929 0012 FFF7FEFF 		bl	TIM_CCxChannelCmd
 462:Drivers/STM32F4xx_HAL_Driver/Src/stm32f4xx_hal_tim_ex.c **** 
 463:Drivers/STM32F4xx_HAL_Driver/Src/stm32f4xx_hal_tim_ex.c ****   /* Disable the capture compare Interrupts event */
 464:Drivers/STM32F4xx_HAL_Driver/Src/stm32f4xx_hal_tim_ex.c ****   __HAL_TIM_DISABLE_IT(htim, TIM_IT_CC1);
 930              		.loc 1 464 3
 931 0016 7B68     		ldr	r3, [r7, #4]
 932 0018 1B68     		ldr	r3, [r3]
 933 001a DA68     		ldr	r2, [r3, #12]
 934 001c 7B68     		ldr	r3, [r7, #4]
 935 001e 1B68     		ldr	r3, [r3]
 936 0020 22F00202 		bic	r2, r2, #2
 937 0024 DA60     		str	r2, [r3, #12]
 465:Drivers/STM32F4xx_HAL_Driver/Src/stm32f4xx_hal_tim_ex.c **** 
 466:Drivers/STM32F4xx_HAL_Driver/Src/stm32f4xx_hal_tim_ex.c ****   /* Disable the Peripheral */
 467:Drivers/STM32F4xx_HAL_Driver/Src/stm32f4xx_hal_tim_ex.c ****   __HAL_TIM_DISABLE(htim);
 938              		.loc 1 467 3
 939 0026 7B68     		ldr	r3, [r7, #4]
 940 0028 1B68     		ldr	r3, [r3]
 941 002a 1A6A     		ldr	r2, [r3, #32]
 942 002c 41F21113 		movw	r3, #4369
 943 0030 1340     		ands	r3, r3, r2
 944 0032 002B     		cmp	r3, #0
 945 0034 0FD1     		bne	.L35
 946              		.loc 1 467 3 is_stmt 0 discriminator 1
 947 0036 7B68     		ldr	r3, [r7, #4]
 948 0038 1B68     		ldr	r3, [r3]
 949 003a 1A6A     		ldr	r2, [r3, #32]
 950 003c 40F24443 		movw	r3, #1092
 951 0040 1340     		ands	r3, r3, r2
 952 0042 002B     		cmp	r3, #0
 953 0044 07D1     		bne	.L35
 954              		.loc 1 467 3 discriminator 2
 955 0046 7B68     		ldr	r3, [r7, #4]
 956 0048 1B68     		ldr	r3, [r3]
 957 004a 1A68     		ldr	r2, [r3]
 958 004c 7B68     		ldr	r3, [r7, #4]
 959 004e 1B68     		ldr	r3, [r3]
 960 0050 22F00102 		bic	r2, r2, #1
 961 0054 1A60     		str	r2, [r3]
 962              	.L35:
 468:Drivers/STM32F4xx_HAL_Driver/Src/stm32f4xx_hal_tim_ex.c **** 
 469:Drivers/STM32F4xx_HAL_Driver/Src/stm32f4xx_hal_tim_ex.c ****   /* Set the TIM channels state */
 470:Drivers/STM32F4xx_HAL_Driver/Src/stm32f4xx_hal_tim_ex.c ****   TIM_CHANNEL_STATE_SET(htim, TIM_CHANNEL_1, HAL_TIM_CHANNEL_STATE_READY);
 963              		.loc 1 470 3 is_stmt 1
 964 0056 7B68     		ldr	r3, [r7, #4]
 965 0058 0122     		movs	r2, #1
 966 005a 83F83E20 		strb	r2, [r3, #62]
 471:Drivers/STM32F4xx_HAL_Driver/Src/stm32f4xx_hal_tim_ex.c ****   TIM_CHANNEL_STATE_SET(htim, TIM_CHANNEL_2, HAL_TIM_CHANNEL_STATE_READY);
 967              		.loc 1 471 3
ARM GAS  C:\Users\DAELT-~1\AppData\Local\Temp\cc2rhEX6.s 			page 26


 968 005e 7B68     		ldr	r3, [r7, #4]
 969 0060 0122     		movs	r2, #1
 970 0062 83F83F20 		strb	r2, [r3, #63]
 472:Drivers/STM32F4xx_HAL_Driver/Src/stm32f4xx_hal_tim_ex.c ****   TIM_CHANNEL_N_STATE_SET(htim, TIM_CHANNEL_1, HAL_TIM_CHANNEL_STATE_READY);
 971              		.loc 1 472 3
 972 0066 7B68     		ldr	r3, [r7, #4]
 973 0068 0122     		movs	r2, #1
 974 006a 83F84220 		strb	r2, [r3, #66]
 473:Drivers/STM32F4xx_HAL_Driver/Src/stm32f4xx_hal_tim_ex.c ****   TIM_CHANNEL_N_STATE_SET(htim, TIM_CHANNEL_2, HAL_TIM_CHANNEL_STATE_READY);
 975              		.loc 1 473 3
 976 006e 7B68     		ldr	r3, [r7, #4]
 977 0070 0122     		movs	r2, #1
 978 0072 83F84320 		strb	r2, [r3, #67]
 474:Drivers/STM32F4xx_HAL_Driver/Src/stm32f4xx_hal_tim_ex.c **** 
 475:Drivers/STM32F4xx_HAL_Driver/Src/stm32f4xx_hal_tim_ex.c ****   /* Return function status */
 476:Drivers/STM32F4xx_HAL_Driver/Src/stm32f4xx_hal_tim_ex.c ****   return HAL_OK;
 979              		.loc 1 476 10
 980 0076 0023     		movs	r3, #0
 477:Drivers/STM32F4xx_HAL_Driver/Src/stm32f4xx_hal_tim_ex.c **** }
 981              		.loc 1 477 1
 982 0078 1846     		mov	r0, r3
 983 007a 0837     		adds	r7, r7, #8
 984              	.LCFI40:
 985              		.cfi_def_cfa_offset 8
 986 007c BD46     		mov	sp, r7
 987              	.LCFI41:
 988              		.cfi_def_cfa_register 13
 989              		@ sp needed
 990 007e 80BD     		pop	{r7, pc}
 991              		.cfi_endproc
 992              	.LFE137:
 994              		.section	.text.HAL_TIMEx_HallSensor_Start_DMA,"ax",%progbits
 995              		.align	1
 996              		.global	HAL_TIMEx_HallSensor_Start_DMA
 997              		.syntax unified
 998              		.thumb
 999              		.thumb_func
 1001              	HAL_TIMEx_HallSensor_Start_DMA:
 1002              	.LFB138:
 478:Drivers/STM32F4xx_HAL_Driver/Src/stm32f4xx_hal_tim_ex.c **** 
 479:Drivers/STM32F4xx_HAL_Driver/Src/stm32f4xx_hal_tim_ex.c **** /**
 480:Drivers/STM32F4xx_HAL_Driver/Src/stm32f4xx_hal_tim_ex.c ****   * @brief  Starts the TIM Hall Sensor Interface in DMA mode.
 481:Drivers/STM32F4xx_HAL_Driver/Src/stm32f4xx_hal_tim_ex.c ****   * @param  htim TIM Hall Sensor Interface handle
 482:Drivers/STM32F4xx_HAL_Driver/Src/stm32f4xx_hal_tim_ex.c ****   * @param  pData The destination Buffer address.
 483:Drivers/STM32F4xx_HAL_Driver/Src/stm32f4xx_hal_tim_ex.c ****   * @param  Length The length of data to be transferred from TIM peripheral to memory.
 484:Drivers/STM32F4xx_HAL_Driver/Src/stm32f4xx_hal_tim_ex.c ****   * @retval HAL status
 485:Drivers/STM32F4xx_HAL_Driver/Src/stm32f4xx_hal_tim_ex.c ****   */
 486:Drivers/STM32F4xx_HAL_Driver/Src/stm32f4xx_hal_tim_ex.c **** HAL_StatusTypeDef HAL_TIMEx_HallSensor_Start_DMA(TIM_HandleTypeDef *htim, uint32_t *pData, uint16_t
 487:Drivers/STM32F4xx_HAL_Driver/Src/stm32f4xx_hal_tim_ex.c **** {
 1003              		.loc 1 487 1
 1004              		.cfi_startproc
 1005              		@ args = 0, pretend = 0, frame = 24
 1006              		@ frame_needed = 1, uses_anonymous_args = 0
 1007 0000 80B5     		push	{r7, lr}
 1008              	.LCFI42:
 1009              		.cfi_def_cfa_offset 8
 1010              		.cfi_offset 7, -8
ARM GAS  C:\Users\DAELT-~1\AppData\Local\Temp\cc2rhEX6.s 			page 27


 1011              		.cfi_offset 14, -4
 1012 0002 86B0     		sub	sp, sp, #24
 1013              	.LCFI43:
 1014              		.cfi_def_cfa_offset 32
 1015 0004 00AF     		add	r7, sp, #0
 1016              	.LCFI44:
 1017              		.cfi_def_cfa_register 7
 1018 0006 F860     		str	r0, [r7, #12]
 1019 0008 B960     		str	r1, [r7, #8]
 1020 000a 1346     		mov	r3, r2
 1021 000c FB80     		strh	r3, [r7, #6]	@ movhi
 488:Drivers/STM32F4xx_HAL_Driver/Src/stm32f4xx_hal_tim_ex.c ****   uint32_t tmpsmcr;
 489:Drivers/STM32F4xx_HAL_Driver/Src/stm32f4xx_hal_tim_ex.c ****   HAL_TIM_ChannelStateTypeDef channel_1_state = TIM_CHANNEL_STATE_GET(htim, TIM_CHANNEL_1);
 1022              		.loc 1 489 31
 1023 000e FB68     		ldr	r3, [r7, #12]
 1024 0010 93F83E30 		ldrb	r3, [r3, #62]
 1025 0014 FB75     		strb	r3, [r7, #23]
 490:Drivers/STM32F4xx_HAL_Driver/Src/stm32f4xx_hal_tim_ex.c ****   HAL_TIM_ChannelStateTypeDef complementary_channel_1_state = TIM_CHANNEL_N_STATE_GET(htim, TIM_CHA
 1026              		.loc 1 490 31
 1027 0016 FB68     		ldr	r3, [r7, #12]
 1028 0018 93F84230 		ldrb	r3, [r3, #66]
 1029 001c BB75     		strb	r3, [r7, #22]
 491:Drivers/STM32F4xx_HAL_Driver/Src/stm32f4xx_hal_tim_ex.c **** 
 492:Drivers/STM32F4xx_HAL_Driver/Src/stm32f4xx_hal_tim_ex.c ****   /* Check the parameters */
 493:Drivers/STM32F4xx_HAL_Driver/Src/stm32f4xx_hal_tim_ex.c ****   assert_param(IS_TIM_HALL_SENSOR_INTERFACE_INSTANCE(htim->Instance));
 494:Drivers/STM32F4xx_HAL_Driver/Src/stm32f4xx_hal_tim_ex.c **** 
 495:Drivers/STM32F4xx_HAL_Driver/Src/stm32f4xx_hal_tim_ex.c ****   /* Set the TIM channel state */
 496:Drivers/STM32F4xx_HAL_Driver/Src/stm32f4xx_hal_tim_ex.c ****   if ((channel_1_state == HAL_TIM_CHANNEL_STATE_BUSY)
 1030              		.loc 1 496 6
 1031 001e FB7D     		ldrb	r3, [r7, #23]	@ zero_extendqisi2
 1032 0020 022B     		cmp	r3, #2
 1033 0022 02D0     		beq	.L38
 497:Drivers/STM32F4xx_HAL_Driver/Src/stm32f4xx_hal_tim_ex.c ****       || (complementary_channel_1_state == HAL_TIM_CHANNEL_STATE_BUSY))
 1034              		.loc 1 497 7
 1035 0024 BB7D     		ldrb	r3, [r7, #22]	@ zero_extendqisi2
 1036 0026 022B     		cmp	r3, #2
 1037 0028 01D1     		bne	.L39
 1038              	.L38:
 498:Drivers/STM32F4xx_HAL_Driver/Src/stm32f4xx_hal_tim_ex.c ****   {
 499:Drivers/STM32F4xx_HAL_Driver/Src/stm32f4xx_hal_tim_ex.c ****     return HAL_BUSY;
 1039              		.loc 1 499 12
 1040 002a 0223     		movs	r3, #2
 1041 002c 7CE0     		b	.L40
 1042              	.L39:
 500:Drivers/STM32F4xx_HAL_Driver/Src/stm32f4xx_hal_tim_ex.c ****   }
 501:Drivers/STM32F4xx_HAL_Driver/Src/stm32f4xx_hal_tim_ex.c ****   else if ((channel_1_state == HAL_TIM_CHANNEL_STATE_READY)
 1043              		.loc 1 501 11
 1044 002e FB7D     		ldrb	r3, [r7, #23]	@ zero_extendqisi2
 1045 0030 012B     		cmp	r3, #1
 1046 0032 34D1     		bne	.L41
 502:Drivers/STM32F4xx_HAL_Driver/Src/stm32f4xx_hal_tim_ex.c ****            && (complementary_channel_1_state == HAL_TIM_CHANNEL_STATE_READY))
 1047              		.loc 1 502 12
 1048 0034 BB7D     		ldrb	r3, [r7, #22]	@ zero_extendqisi2
 1049 0036 012B     		cmp	r3, #1
 1050 0038 31D1     		bne	.L41
 503:Drivers/STM32F4xx_HAL_Driver/Src/stm32f4xx_hal_tim_ex.c ****   {
 504:Drivers/STM32F4xx_HAL_Driver/Src/stm32f4xx_hal_tim_ex.c ****     if ((pData == NULL) && (Length > 0U))
ARM GAS  C:\Users\DAELT-~1\AppData\Local\Temp\cc2rhEX6.s 			page 28


 1051              		.loc 1 504 8
 1052 003a BB68     		ldr	r3, [r7, #8]
 1053 003c 002B     		cmp	r3, #0
 1054 003e 04D1     		bne	.L42
 1055              		.loc 1 504 25 discriminator 1
 1056 0040 FB88     		ldrh	r3, [r7, #6]
 1057 0042 002B     		cmp	r3, #0
 1058 0044 01D0     		beq	.L42
 505:Drivers/STM32F4xx_HAL_Driver/Src/stm32f4xx_hal_tim_ex.c ****     {
 506:Drivers/STM32F4xx_HAL_Driver/Src/stm32f4xx_hal_tim_ex.c ****       return HAL_ERROR;
 1059              		.loc 1 506 14
 1060 0046 0123     		movs	r3, #1
 1061 0048 6EE0     		b	.L40
 1062              	.L42:
 507:Drivers/STM32F4xx_HAL_Driver/Src/stm32f4xx_hal_tim_ex.c ****     }
 508:Drivers/STM32F4xx_HAL_Driver/Src/stm32f4xx_hal_tim_ex.c ****     else
 509:Drivers/STM32F4xx_HAL_Driver/Src/stm32f4xx_hal_tim_ex.c ****     {
 510:Drivers/STM32F4xx_HAL_Driver/Src/stm32f4xx_hal_tim_ex.c ****       TIM_CHANNEL_STATE_SET(htim, TIM_CHANNEL_1, HAL_TIM_CHANNEL_STATE_BUSY);
 1063              		.loc 1 510 7
 1064 004a FB68     		ldr	r3, [r7, #12]
 1065 004c 0222     		movs	r2, #2
 1066 004e 83F83E20 		strb	r2, [r3, #62]
 511:Drivers/STM32F4xx_HAL_Driver/Src/stm32f4xx_hal_tim_ex.c ****       TIM_CHANNEL_N_STATE_SET(htim, TIM_CHANNEL_1, HAL_TIM_CHANNEL_STATE_BUSY);
 1067              		.loc 1 511 7
 1068 0052 FB68     		ldr	r3, [r7, #12]
 1069 0054 0222     		movs	r2, #2
 1070 0056 83F84220 		strb	r2, [r3, #66]
 504:Drivers/STM32F4xx_HAL_Driver/Src/stm32f4xx_hal_tim_ex.c ****     {
 1071              		.loc 1 504 8
 1072 005a 00BF     		nop
 512:Drivers/STM32F4xx_HAL_Driver/Src/stm32f4xx_hal_tim_ex.c ****     }
 513:Drivers/STM32F4xx_HAL_Driver/Src/stm32f4xx_hal_tim_ex.c ****   }
 514:Drivers/STM32F4xx_HAL_Driver/Src/stm32f4xx_hal_tim_ex.c ****   else
 515:Drivers/STM32F4xx_HAL_Driver/Src/stm32f4xx_hal_tim_ex.c ****   {
 516:Drivers/STM32F4xx_HAL_Driver/Src/stm32f4xx_hal_tim_ex.c ****     return HAL_ERROR;
 517:Drivers/STM32F4xx_HAL_Driver/Src/stm32f4xx_hal_tim_ex.c ****   }
 518:Drivers/STM32F4xx_HAL_Driver/Src/stm32f4xx_hal_tim_ex.c **** 
 519:Drivers/STM32F4xx_HAL_Driver/Src/stm32f4xx_hal_tim_ex.c ****   /* Enable the Input Capture channel 1
 520:Drivers/STM32F4xx_HAL_Driver/Src/stm32f4xx_hal_tim_ex.c ****   (in the Hall Sensor Interface the three possible channels that can be used are TIM_CHANNEL_1,
 521:Drivers/STM32F4xx_HAL_Driver/Src/stm32f4xx_hal_tim_ex.c ****   TIM_CHANNEL_2 and TIM_CHANNEL_3) */
 522:Drivers/STM32F4xx_HAL_Driver/Src/stm32f4xx_hal_tim_ex.c ****   TIM_CCxChannelCmd(htim->Instance, TIM_CHANNEL_1, TIM_CCx_ENABLE);
 1073              		.loc 1 522 3
 1074 005c FB68     		ldr	r3, [r7, #12]
 1075 005e 1B68     		ldr	r3, [r3]
 1076 0060 0122     		movs	r2, #1
 1077 0062 0021     		movs	r1, #0
 1078 0064 1846     		mov	r0, r3
 1079 0066 FFF7FEFF 		bl	TIM_CCxChannelCmd
 523:Drivers/STM32F4xx_HAL_Driver/Src/stm32f4xx_hal_tim_ex.c **** 
 524:Drivers/STM32F4xx_HAL_Driver/Src/stm32f4xx_hal_tim_ex.c ****   /* Set the DMA Input Capture 1 Callbacks */
 525:Drivers/STM32F4xx_HAL_Driver/Src/stm32f4xx_hal_tim_ex.c ****   htim->hdma[TIM_DMA_ID_CC1]->XferCpltCallback = TIM_DMACaptureCplt;
 1080              		.loc 1 525 13
 1081 006a FB68     		ldr	r3, [r7, #12]
 1082 006c 5B6A     		ldr	r3, [r3, #36]
 1083              		.loc 1 525 48
 1084 006e 304A     		ldr	r2, .L50
 1085 0070 DA63     		str	r2, [r3, #60]
ARM GAS  C:\Users\DAELT-~1\AppData\Local\Temp\cc2rhEX6.s 			page 29


 526:Drivers/STM32F4xx_HAL_Driver/Src/stm32f4xx_hal_tim_ex.c ****   htim->hdma[TIM_DMA_ID_CC1]->XferHalfCpltCallback = TIM_DMACaptureHalfCplt;
 1086              		.loc 1 526 13
 1087 0072 FB68     		ldr	r3, [r7, #12]
 1088 0074 5B6A     		ldr	r3, [r3, #36]
 1089              		.loc 1 526 52
 1090 0076 2F4A     		ldr	r2, .L50+4
 1091 0078 1A64     		str	r2, [r3, #64]
 527:Drivers/STM32F4xx_HAL_Driver/Src/stm32f4xx_hal_tim_ex.c ****   /* Set the DMA error callback */
 528:Drivers/STM32F4xx_HAL_Driver/Src/stm32f4xx_hal_tim_ex.c ****   htim->hdma[TIM_DMA_ID_CC1]->XferErrorCallback = TIM_DMAError ;
 1092              		.loc 1 528 13
 1093 007a FB68     		ldr	r3, [r7, #12]
 1094 007c 5B6A     		ldr	r3, [r3, #36]
 1095              		.loc 1 528 49
 1096 007e 2E4A     		ldr	r2, .L50+8
 1097 0080 DA64     		str	r2, [r3, #76]
 529:Drivers/STM32F4xx_HAL_Driver/Src/stm32f4xx_hal_tim_ex.c **** 
 530:Drivers/STM32F4xx_HAL_Driver/Src/stm32f4xx_hal_tim_ex.c ****   /* Enable the DMA stream for Capture 1*/
 531:Drivers/STM32F4xx_HAL_Driver/Src/stm32f4xx_hal_tim_ex.c ****   if (HAL_DMA_Start_IT(htim->hdma[TIM_DMA_ID_CC1], (uint32_t)&htim->Instance->CCR1, (uint32_t)pData
 1098              		.loc 1 531 7
 1099 0082 FB68     		ldr	r3, [r7, #12]
 1100 0084 586A     		ldr	r0, [r3, #36]
 1101              		.loc 1 531 67
 1102 0086 FB68     		ldr	r3, [r7, #12]
 1103 0088 1B68     		ldr	r3, [r3]
 1104              		.loc 1 531 62
 1105 008a 3433     		adds	r3, r3, #52
 1106              		.loc 1 531 7
 1107 008c 1946     		mov	r1, r3
 1108 008e BA68     		ldr	r2, [r7, #8]
 1109 0090 FB88     		ldrh	r3, [r7, #6]
 1110 0092 FFF7FEFF 		bl	HAL_DMA_Start_IT
 1111 0096 0346     		mov	r3, r0
 1112              		.loc 1 531 6 discriminator 1
 1113 0098 002B     		cmp	r3, #0
 1114 009a 04D0     		beq	.L44
 1115 009c 01E0     		b	.L49
 1116              	.L41:
 516:Drivers/STM32F4xx_HAL_Driver/Src/stm32f4xx_hal_tim_ex.c ****   }
 1117              		.loc 1 516 12
 1118 009e 0123     		movs	r3, #1
 1119 00a0 42E0     		b	.L40
 1120              	.L49:
 532:Drivers/STM32F4xx_HAL_Driver/Src/stm32f4xx_hal_tim_ex.c ****   {
 533:Drivers/STM32F4xx_HAL_Driver/Src/stm32f4xx_hal_tim_ex.c ****     /* Return error status */
 534:Drivers/STM32F4xx_HAL_Driver/Src/stm32f4xx_hal_tim_ex.c ****     return HAL_ERROR;
 1121              		.loc 1 534 12
 1122 00a2 0123     		movs	r3, #1
 1123 00a4 40E0     		b	.L40
 1124              	.L44:
 535:Drivers/STM32F4xx_HAL_Driver/Src/stm32f4xx_hal_tim_ex.c ****   }
 536:Drivers/STM32F4xx_HAL_Driver/Src/stm32f4xx_hal_tim_ex.c ****   /* Enable the capture compare 1 Interrupt */
 537:Drivers/STM32F4xx_HAL_Driver/Src/stm32f4xx_hal_tim_ex.c ****   __HAL_TIM_ENABLE_DMA(htim, TIM_DMA_CC1);
 1125              		.loc 1 537 3
 1126 00a6 FB68     		ldr	r3, [r7, #12]
 1127 00a8 1B68     		ldr	r3, [r3]
 1128 00aa DA68     		ldr	r2, [r3, #12]
 1129 00ac FB68     		ldr	r3, [r7, #12]
ARM GAS  C:\Users\DAELT-~1\AppData\Local\Temp\cc2rhEX6.s 			page 30


 1130 00ae 1B68     		ldr	r3, [r3]
 1131 00b0 42F40072 		orr	r2, r2, #512
 1132 00b4 DA60     		str	r2, [r3, #12]
 538:Drivers/STM32F4xx_HAL_Driver/Src/stm32f4xx_hal_tim_ex.c **** 
 539:Drivers/STM32F4xx_HAL_Driver/Src/stm32f4xx_hal_tim_ex.c ****   /* Enable the Peripheral, except in trigger mode where enable is automatically done with trigger 
 540:Drivers/STM32F4xx_HAL_Driver/Src/stm32f4xx_hal_tim_ex.c ****   if (IS_TIM_SLAVE_INSTANCE(htim->Instance))
 1133              		.loc 1 540 7
 1134 00b6 FB68     		ldr	r3, [r7, #12]
 1135 00b8 1B68     		ldr	r3, [r3]
 1136              		.loc 1 540 6
 1137 00ba 204A     		ldr	r2, .L50+12
 1138 00bc 9342     		cmp	r3, r2
 1139 00be 18D0     		beq	.L45
 1140              		.loc 1 540 7 discriminator 1
 1141 00c0 FB68     		ldr	r3, [r7, #12]
 1142 00c2 1B68     		ldr	r3, [r3]
 1143 00c4 B3F1804F 		cmp	r3, #1073741824
 1144 00c8 13D0     		beq	.L45
 1145              		.loc 1 540 7 is_stmt 0 discriminator 2
 1146 00ca FB68     		ldr	r3, [r7, #12]
 1147 00cc 1B68     		ldr	r3, [r3]
 1148 00ce 1C4A     		ldr	r2, .L50+16
 1149 00d0 9342     		cmp	r3, r2
 1150 00d2 0ED0     		beq	.L45
 1151              		.loc 1 540 7 discriminator 3
 1152 00d4 FB68     		ldr	r3, [r7, #12]
 1153 00d6 1B68     		ldr	r3, [r3]
 1154 00d8 1A4A     		ldr	r2, .L50+20
 1155 00da 9342     		cmp	r3, r2
 1156 00dc 09D0     		beq	.L45
 1157              		.loc 1 540 7 discriminator 4
 1158 00de FB68     		ldr	r3, [r7, #12]
 1159 00e0 1B68     		ldr	r3, [r3]
 1160 00e2 194A     		ldr	r2, .L50+24
 1161 00e4 9342     		cmp	r3, r2
 1162 00e6 04D0     		beq	.L45
 1163              		.loc 1 540 7 discriminator 5
 1164 00e8 FB68     		ldr	r3, [r7, #12]
 1165 00ea 1B68     		ldr	r3, [r3]
 1166 00ec 174A     		ldr	r2, .L50+28
 1167 00ee 9342     		cmp	r3, r2
 1168 00f0 11D1     		bne	.L46
 1169              	.L45:
 541:Drivers/STM32F4xx_HAL_Driver/Src/stm32f4xx_hal_tim_ex.c ****   {
 542:Drivers/STM32F4xx_HAL_Driver/Src/stm32f4xx_hal_tim_ex.c ****     tmpsmcr = htim->Instance->SMCR & TIM_SMCR_SMS;
 1170              		.loc 1 542 19 is_stmt 1
 1171 00f2 FB68     		ldr	r3, [r7, #12]
 1172 00f4 1B68     		ldr	r3, [r3]
 1173              		.loc 1 542 29
 1174 00f6 9B68     		ldr	r3, [r3, #8]
 1175              		.loc 1 542 13
 1176 00f8 03F00703 		and	r3, r3, #7
 1177 00fc 3B61     		str	r3, [r7, #16]
 543:Drivers/STM32F4xx_HAL_Driver/Src/stm32f4xx_hal_tim_ex.c ****     if (!IS_TIM_SLAVEMODE_TRIGGER_ENABLED(tmpsmcr))
 1178              		.loc 1 543 8
 1179 00fe 3B69     		ldr	r3, [r7, #16]
 1180 0100 062B     		cmp	r3, #6
ARM GAS  C:\Users\DAELT-~1\AppData\Local\Temp\cc2rhEX6.s 			page 31


 1181 0102 10D0     		beq	.L48
 544:Drivers/STM32F4xx_HAL_Driver/Src/stm32f4xx_hal_tim_ex.c ****     {
 545:Drivers/STM32F4xx_HAL_Driver/Src/stm32f4xx_hal_tim_ex.c ****       __HAL_TIM_ENABLE(htim);
 1182              		.loc 1 545 7
 1183 0104 FB68     		ldr	r3, [r7, #12]
 1184 0106 1B68     		ldr	r3, [r3]
 1185 0108 1A68     		ldr	r2, [r3]
 1186 010a FB68     		ldr	r3, [r7, #12]
 1187 010c 1B68     		ldr	r3, [r3]
 1188 010e 42F00102 		orr	r2, r2, #1
 1189 0112 1A60     		str	r2, [r3]
 543:Drivers/STM32F4xx_HAL_Driver/Src/stm32f4xx_hal_tim_ex.c ****     if (!IS_TIM_SLAVEMODE_TRIGGER_ENABLED(tmpsmcr))
 1190              		.loc 1 543 8
 1191 0114 07E0     		b	.L48
 1192              	.L46:
 546:Drivers/STM32F4xx_HAL_Driver/Src/stm32f4xx_hal_tim_ex.c ****     }
 547:Drivers/STM32F4xx_HAL_Driver/Src/stm32f4xx_hal_tim_ex.c ****   }
 548:Drivers/STM32F4xx_HAL_Driver/Src/stm32f4xx_hal_tim_ex.c ****   else
 549:Drivers/STM32F4xx_HAL_Driver/Src/stm32f4xx_hal_tim_ex.c ****   {
 550:Drivers/STM32F4xx_HAL_Driver/Src/stm32f4xx_hal_tim_ex.c ****     __HAL_TIM_ENABLE(htim);
 1193              		.loc 1 550 5
 1194 0116 FB68     		ldr	r3, [r7, #12]
 1195 0118 1B68     		ldr	r3, [r3]
 1196 011a 1A68     		ldr	r2, [r3]
 1197 011c FB68     		ldr	r3, [r7, #12]
 1198 011e 1B68     		ldr	r3, [r3]
 1199 0120 42F00102 		orr	r2, r2, #1
 1200 0124 1A60     		str	r2, [r3]
 1201              	.L48:
 551:Drivers/STM32F4xx_HAL_Driver/Src/stm32f4xx_hal_tim_ex.c ****   }
 552:Drivers/STM32F4xx_HAL_Driver/Src/stm32f4xx_hal_tim_ex.c **** 
 553:Drivers/STM32F4xx_HAL_Driver/Src/stm32f4xx_hal_tim_ex.c ****   /* Return function status */
 554:Drivers/STM32F4xx_HAL_Driver/Src/stm32f4xx_hal_tim_ex.c ****   return HAL_OK;
 1202              		.loc 1 554 10
 1203 0126 0023     		movs	r3, #0
 1204              	.L40:
 555:Drivers/STM32F4xx_HAL_Driver/Src/stm32f4xx_hal_tim_ex.c **** }
 1205              		.loc 1 555 1
 1206 0128 1846     		mov	r0, r3
 1207 012a 1837     		adds	r7, r7, #24
 1208              	.LCFI45:
 1209              		.cfi_def_cfa_offset 8
 1210 012c BD46     		mov	sp, r7
 1211              	.LCFI46:
 1212              		.cfi_def_cfa_register 13
 1213              		@ sp needed
 1214 012e 80BD     		pop	{r7, pc}
 1215              	.L51:
 1216              		.align	2
 1217              	.L50:
 1218 0130 00000000 		.word	TIM_DMACaptureCplt
 1219 0134 00000000 		.word	TIM_DMACaptureHalfCplt
 1220 0138 00000000 		.word	TIM_DMAError
 1221 013c 00000140 		.word	1073807360
 1222 0140 00040040 		.word	1073742848
 1223 0144 00080040 		.word	1073743872
 1224 0148 000C0040 		.word	1073744896
ARM GAS  C:\Users\DAELT-~1\AppData\Local\Temp\cc2rhEX6.s 			page 32


 1225 014c 00400140 		.word	1073823744
 1226              		.cfi_endproc
 1227              	.LFE138:
 1229              		.section	.text.HAL_TIMEx_HallSensor_Stop_DMA,"ax",%progbits
 1230              		.align	1
 1231              		.global	HAL_TIMEx_HallSensor_Stop_DMA
 1232              		.syntax unified
 1233              		.thumb
 1234              		.thumb_func
 1236              	HAL_TIMEx_HallSensor_Stop_DMA:
 1237              	.LFB139:
 556:Drivers/STM32F4xx_HAL_Driver/Src/stm32f4xx_hal_tim_ex.c **** 
 557:Drivers/STM32F4xx_HAL_Driver/Src/stm32f4xx_hal_tim_ex.c **** /**
 558:Drivers/STM32F4xx_HAL_Driver/Src/stm32f4xx_hal_tim_ex.c ****   * @brief  Stops the TIM Hall Sensor Interface in DMA mode.
 559:Drivers/STM32F4xx_HAL_Driver/Src/stm32f4xx_hal_tim_ex.c ****   * @param  htim TIM Hall Sensor Interface handle
 560:Drivers/STM32F4xx_HAL_Driver/Src/stm32f4xx_hal_tim_ex.c ****   * @retval HAL status
 561:Drivers/STM32F4xx_HAL_Driver/Src/stm32f4xx_hal_tim_ex.c ****   */
 562:Drivers/STM32F4xx_HAL_Driver/Src/stm32f4xx_hal_tim_ex.c **** HAL_StatusTypeDef HAL_TIMEx_HallSensor_Stop_DMA(TIM_HandleTypeDef *htim)
 563:Drivers/STM32F4xx_HAL_Driver/Src/stm32f4xx_hal_tim_ex.c **** {
 1238              		.loc 1 563 1
 1239              		.cfi_startproc
 1240              		@ args = 0, pretend = 0, frame = 8
 1241              		@ frame_needed = 1, uses_anonymous_args = 0
 1242 0000 80B5     		push	{r7, lr}
 1243              	.LCFI47:
 1244              		.cfi_def_cfa_offset 8
 1245              		.cfi_offset 7, -8
 1246              		.cfi_offset 14, -4
 1247 0002 82B0     		sub	sp, sp, #8
 1248              	.LCFI48:
 1249              		.cfi_def_cfa_offset 16
 1250 0004 00AF     		add	r7, sp, #0
 1251              	.LCFI49:
 1252              		.cfi_def_cfa_register 7
 1253 0006 7860     		str	r0, [r7, #4]
 564:Drivers/STM32F4xx_HAL_Driver/Src/stm32f4xx_hal_tim_ex.c ****   /* Check the parameters */
 565:Drivers/STM32F4xx_HAL_Driver/Src/stm32f4xx_hal_tim_ex.c ****   assert_param(IS_TIM_HALL_SENSOR_INTERFACE_INSTANCE(htim->Instance));
 566:Drivers/STM32F4xx_HAL_Driver/Src/stm32f4xx_hal_tim_ex.c **** 
 567:Drivers/STM32F4xx_HAL_Driver/Src/stm32f4xx_hal_tim_ex.c ****   /* Disable the Input Capture channel 1
 568:Drivers/STM32F4xx_HAL_Driver/Src/stm32f4xx_hal_tim_ex.c ****   (in the Hall Sensor Interface the three possible channels that can be used are TIM_CHANNEL_1,
 569:Drivers/STM32F4xx_HAL_Driver/Src/stm32f4xx_hal_tim_ex.c ****   TIM_CHANNEL_2 and TIM_CHANNEL_3) */
 570:Drivers/STM32F4xx_HAL_Driver/Src/stm32f4xx_hal_tim_ex.c ****   TIM_CCxChannelCmd(htim->Instance, TIM_CHANNEL_1, TIM_CCx_DISABLE);
 1254              		.loc 1 570 3
 1255 0008 7B68     		ldr	r3, [r7, #4]
 1256 000a 1B68     		ldr	r3, [r3]
 1257 000c 0022     		movs	r2, #0
 1258 000e 0021     		movs	r1, #0
 1259 0010 1846     		mov	r0, r3
 1260 0012 FFF7FEFF 		bl	TIM_CCxChannelCmd
 571:Drivers/STM32F4xx_HAL_Driver/Src/stm32f4xx_hal_tim_ex.c **** 
 572:Drivers/STM32F4xx_HAL_Driver/Src/stm32f4xx_hal_tim_ex.c **** 
 573:Drivers/STM32F4xx_HAL_Driver/Src/stm32f4xx_hal_tim_ex.c ****   /* Disable the capture compare Interrupts 1 event */
 574:Drivers/STM32F4xx_HAL_Driver/Src/stm32f4xx_hal_tim_ex.c ****   __HAL_TIM_DISABLE_DMA(htim, TIM_DMA_CC1);
 1261              		.loc 1 574 3
 1262 0016 7B68     		ldr	r3, [r7, #4]
 1263 0018 1B68     		ldr	r3, [r3]
 1264 001a DA68     		ldr	r2, [r3, #12]
ARM GAS  C:\Users\DAELT-~1\AppData\Local\Temp\cc2rhEX6.s 			page 33


 1265 001c 7B68     		ldr	r3, [r7, #4]
 1266 001e 1B68     		ldr	r3, [r3]
 1267 0020 22F40072 		bic	r2, r2, #512
 1268 0024 DA60     		str	r2, [r3, #12]
 575:Drivers/STM32F4xx_HAL_Driver/Src/stm32f4xx_hal_tim_ex.c **** 
 576:Drivers/STM32F4xx_HAL_Driver/Src/stm32f4xx_hal_tim_ex.c ****   (void)HAL_DMA_Abort_IT(htim->hdma[TIM_DMA_ID_CC1]);
 1269              		.loc 1 576 9
 1270 0026 7B68     		ldr	r3, [r7, #4]
 1271 0028 5B6A     		ldr	r3, [r3, #36]
 1272 002a 1846     		mov	r0, r3
 1273 002c FFF7FEFF 		bl	HAL_DMA_Abort_IT
 577:Drivers/STM32F4xx_HAL_Driver/Src/stm32f4xx_hal_tim_ex.c **** 
 578:Drivers/STM32F4xx_HAL_Driver/Src/stm32f4xx_hal_tim_ex.c ****   /* Disable the Peripheral */
 579:Drivers/STM32F4xx_HAL_Driver/Src/stm32f4xx_hal_tim_ex.c ****   __HAL_TIM_DISABLE(htim);
 1274              		.loc 1 579 3
 1275 0030 7B68     		ldr	r3, [r7, #4]
 1276 0032 1B68     		ldr	r3, [r3]
 1277 0034 1A6A     		ldr	r2, [r3, #32]
 1278 0036 41F21113 		movw	r3, #4369
 1279 003a 1340     		ands	r3, r3, r2
 1280 003c 002B     		cmp	r3, #0
 1281 003e 0FD1     		bne	.L53
 1282              		.loc 1 579 3 is_stmt 0 discriminator 1
 1283 0040 7B68     		ldr	r3, [r7, #4]
 1284 0042 1B68     		ldr	r3, [r3]
 1285 0044 1A6A     		ldr	r2, [r3, #32]
 1286 0046 40F24443 		movw	r3, #1092
 1287 004a 1340     		ands	r3, r3, r2
 1288 004c 002B     		cmp	r3, #0
 1289 004e 07D1     		bne	.L53
 1290              		.loc 1 579 3 discriminator 2
 1291 0050 7B68     		ldr	r3, [r7, #4]
 1292 0052 1B68     		ldr	r3, [r3]
 1293 0054 1A68     		ldr	r2, [r3]
 1294 0056 7B68     		ldr	r3, [r7, #4]
 1295 0058 1B68     		ldr	r3, [r3]
 1296 005a 22F00102 		bic	r2, r2, #1
 1297 005e 1A60     		str	r2, [r3]
 1298              	.L53:
 580:Drivers/STM32F4xx_HAL_Driver/Src/stm32f4xx_hal_tim_ex.c **** 
 581:Drivers/STM32F4xx_HAL_Driver/Src/stm32f4xx_hal_tim_ex.c ****   /* Set the TIM channel state */
 582:Drivers/STM32F4xx_HAL_Driver/Src/stm32f4xx_hal_tim_ex.c ****   TIM_CHANNEL_STATE_SET(htim, TIM_CHANNEL_1, HAL_TIM_CHANNEL_STATE_READY);
 1299              		.loc 1 582 3 is_stmt 1
 1300 0060 7B68     		ldr	r3, [r7, #4]
 1301 0062 0122     		movs	r2, #1
 1302 0064 83F83E20 		strb	r2, [r3, #62]
 583:Drivers/STM32F4xx_HAL_Driver/Src/stm32f4xx_hal_tim_ex.c ****   TIM_CHANNEL_N_STATE_SET(htim, TIM_CHANNEL_1, HAL_TIM_CHANNEL_STATE_READY);
 1303              		.loc 1 583 3
 1304 0068 7B68     		ldr	r3, [r7, #4]
 1305 006a 0122     		movs	r2, #1
 1306 006c 83F84220 		strb	r2, [r3, #66]
 584:Drivers/STM32F4xx_HAL_Driver/Src/stm32f4xx_hal_tim_ex.c **** 
 585:Drivers/STM32F4xx_HAL_Driver/Src/stm32f4xx_hal_tim_ex.c ****   /* Return function status */
 586:Drivers/STM32F4xx_HAL_Driver/Src/stm32f4xx_hal_tim_ex.c ****   return HAL_OK;
 1307              		.loc 1 586 10
 1308 0070 0023     		movs	r3, #0
 587:Drivers/STM32F4xx_HAL_Driver/Src/stm32f4xx_hal_tim_ex.c **** }
ARM GAS  C:\Users\DAELT-~1\AppData\Local\Temp\cc2rhEX6.s 			page 34


 1309              		.loc 1 587 1
 1310 0072 1846     		mov	r0, r3
 1311 0074 0837     		adds	r7, r7, #8
 1312              	.LCFI50:
 1313              		.cfi_def_cfa_offset 8
 1314 0076 BD46     		mov	sp, r7
 1315              	.LCFI51:
 1316              		.cfi_def_cfa_register 13
 1317              		@ sp needed
 1318 0078 80BD     		pop	{r7, pc}
 1319              		.cfi_endproc
 1320              	.LFE139:
 1322              		.section	.text.HAL_TIMEx_OCN_Start,"ax",%progbits
 1323              		.align	1
 1324              		.global	HAL_TIMEx_OCN_Start
 1325              		.syntax unified
 1326              		.thumb
 1327              		.thumb_func
 1329              	HAL_TIMEx_OCN_Start:
 1330              	.LFB140:
 588:Drivers/STM32F4xx_HAL_Driver/Src/stm32f4xx_hal_tim_ex.c **** 
 589:Drivers/STM32F4xx_HAL_Driver/Src/stm32f4xx_hal_tim_ex.c **** /**
 590:Drivers/STM32F4xx_HAL_Driver/Src/stm32f4xx_hal_tim_ex.c ****   * @}
 591:Drivers/STM32F4xx_HAL_Driver/Src/stm32f4xx_hal_tim_ex.c ****   */
 592:Drivers/STM32F4xx_HAL_Driver/Src/stm32f4xx_hal_tim_ex.c **** 
 593:Drivers/STM32F4xx_HAL_Driver/Src/stm32f4xx_hal_tim_ex.c **** /** @defgroup TIMEx_Exported_Functions_Group2 Extended Timer Complementary Output Compare functions
 594:Drivers/STM32F4xx_HAL_Driver/Src/stm32f4xx_hal_tim_ex.c ****   *  @brief   Timer Complementary Output Compare functions
 595:Drivers/STM32F4xx_HAL_Driver/Src/stm32f4xx_hal_tim_ex.c ****   *
 596:Drivers/STM32F4xx_HAL_Driver/Src/stm32f4xx_hal_tim_ex.c **** @verbatim
 597:Drivers/STM32F4xx_HAL_Driver/Src/stm32f4xx_hal_tim_ex.c ****   ==============================================================================
 598:Drivers/STM32F4xx_HAL_Driver/Src/stm32f4xx_hal_tim_ex.c ****               ##### Timer Complementary Output Compare functions #####
 599:Drivers/STM32F4xx_HAL_Driver/Src/stm32f4xx_hal_tim_ex.c ****   ==============================================================================
 600:Drivers/STM32F4xx_HAL_Driver/Src/stm32f4xx_hal_tim_ex.c ****   [..]
 601:Drivers/STM32F4xx_HAL_Driver/Src/stm32f4xx_hal_tim_ex.c ****     This section provides functions allowing to:
 602:Drivers/STM32F4xx_HAL_Driver/Src/stm32f4xx_hal_tim_ex.c ****     (+) Start the Complementary Output Compare/PWM.
 603:Drivers/STM32F4xx_HAL_Driver/Src/stm32f4xx_hal_tim_ex.c ****     (+) Stop the Complementary Output Compare/PWM.
 604:Drivers/STM32F4xx_HAL_Driver/Src/stm32f4xx_hal_tim_ex.c ****     (+) Start the Complementary Output Compare/PWM and enable interrupts.
 605:Drivers/STM32F4xx_HAL_Driver/Src/stm32f4xx_hal_tim_ex.c ****     (+) Stop the Complementary Output Compare/PWM and disable interrupts.
 606:Drivers/STM32F4xx_HAL_Driver/Src/stm32f4xx_hal_tim_ex.c ****     (+) Start the Complementary Output Compare/PWM and enable DMA transfers.
 607:Drivers/STM32F4xx_HAL_Driver/Src/stm32f4xx_hal_tim_ex.c ****     (+) Stop the Complementary Output Compare/PWM and disable DMA transfers.
 608:Drivers/STM32F4xx_HAL_Driver/Src/stm32f4xx_hal_tim_ex.c **** 
 609:Drivers/STM32F4xx_HAL_Driver/Src/stm32f4xx_hal_tim_ex.c **** @endverbatim
 610:Drivers/STM32F4xx_HAL_Driver/Src/stm32f4xx_hal_tim_ex.c ****   * @{
 611:Drivers/STM32F4xx_HAL_Driver/Src/stm32f4xx_hal_tim_ex.c ****   */
 612:Drivers/STM32F4xx_HAL_Driver/Src/stm32f4xx_hal_tim_ex.c **** 
 613:Drivers/STM32F4xx_HAL_Driver/Src/stm32f4xx_hal_tim_ex.c **** /**
 614:Drivers/STM32F4xx_HAL_Driver/Src/stm32f4xx_hal_tim_ex.c ****   * @brief  Starts the TIM Output Compare signal generation on the complementary
 615:Drivers/STM32F4xx_HAL_Driver/Src/stm32f4xx_hal_tim_ex.c ****   *         output.
 616:Drivers/STM32F4xx_HAL_Driver/Src/stm32f4xx_hal_tim_ex.c ****   * @param  htim TIM Output Compare handle
 617:Drivers/STM32F4xx_HAL_Driver/Src/stm32f4xx_hal_tim_ex.c ****   * @param  Channel TIM Channel to be enabled
 618:Drivers/STM32F4xx_HAL_Driver/Src/stm32f4xx_hal_tim_ex.c ****   *          This parameter can be one of the following values:
 619:Drivers/STM32F4xx_HAL_Driver/Src/stm32f4xx_hal_tim_ex.c ****   *            @arg TIM_CHANNEL_1: TIM Channel 1 selected
 620:Drivers/STM32F4xx_HAL_Driver/Src/stm32f4xx_hal_tim_ex.c ****   *            @arg TIM_CHANNEL_2: TIM Channel 2 selected
 621:Drivers/STM32F4xx_HAL_Driver/Src/stm32f4xx_hal_tim_ex.c ****   *            @arg TIM_CHANNEL_3: TIM Channel 3 selected
 622:Drivers/STM32F4xx_HAL_Driver/Src/stm32f4xx_hal_tim_ex.c ****   * @retval HAL status
 623:Drivers/STM32F4xx_HAL_Driver/Src/stm32f4xx_hal_tim_ex.c ****   */
 624:Drivers/STM32F4xx_HAL_Driver/Src/stm32f4xx_hal_tim_ex.c **** HAL_StatusTypeDef HAL_TIMEx_OCN_Start(TIM_HandleTypeDef *htim, uint32_t Channel)
ARM GAS  C:\Users\DAELT-~1\AppData\Local\Temp\cc2rhEX6.s 			page 35


 625:Drivers/STM32F4xx_HAL_Driver/Src/stm32f4xx_hal_tim_ex.c **** {
 1331              		.loc 1 625 1
 1332              		.cfi_startproc
 1333              		@ args = 0, pretend = 0, frame = 16
 1334              		@ frame_needed = 1, uses_anonymous_args = 0
 1335 0000 80B5     		push	{r7, lr}
 1336              	.LCFI52:
 1337              		.cfi_def_cfa_offset 8
 1338              		.cfi_offset 7, -8
 1339              		.cfi_offset 14, -4
 1340 0002 84B0     		sub	sp, sp, #16
 1341              	.LCFI53:
 1342              		.cfi_def_cfa_offset 24
 1343 0004 00AF     		add	r7, sp, #0
 1344              	.LCFI54:
 1345              		.cfi_def_cfa_register 7
 1346 0006 7860     		str	r0, [r7, #4]
 1347 0008 3960     		str	r1, [r7]
 626:Drivers/STM32F4xx_HAL_Driver/Src/stm32f4xx_hal_tim_ex.c ****   uint32_t tmpsmcr;
 627:Drivers/STM32F4xx_HAL_Driver/Src/stm32f4xx_hal_tim_ex.c **** 
 628:Drivers/STM32F4xx_HAL_Driver/Src/stm32f4xx_hal_tim_ex.c ****   /* Check the parameters */
 629:Drivers/STM32F4xx_HAL_Driver/Src/stm32f4xx_hal_tim_ex.c ****   assert_param(IS_TIM_CCXN_INSTANCE(htim->Instance, Channel));
 630:Drivers/STM32F4xx_HAL_Driver/Src/stm32f4xx_hal_tim_ex.c **** 
 631:Drivers/STM32F4xx_HAL_Driver/Src/stm32f4xx_hal_tim_ex.c ****   /* Check the TIM complementary channel state */
 632:Drivers/STM32F4xx_HAL_Driver/Src/stm32f4xx_hal_tim_ex.c ****   if (TIM_CHANNEL_N_STATE_GET(htim, Channel) != HAL_TIM_CHANNEL_STATE_READY)
 1348              		.loc 1 632 46
 1349 000a 3B68     		ldr	r3, [r7]
 1350 000c 002B     		cmp	r3, #0
 1351 000e 09D1     		bne	.L56
 1352              		.loc 1 632 7 discriminator 1
 1353 0010 7B68     		ldr	r3, [r7, #4]
 1354 0012 93F84230 		ldrb	r3, [r3, #66]
 1355 0016 DBB2     		uxtb	r3, r3
 1356              		.loc 1 632 46 discriminator 1
 1357 0018 012B     		cmp	r3, #1
 1358 001a 14BF     		ite	ne
 1359 001c 0123     		movne	r3, #1
 1360 001e 0023     		moveq	r3, #0
 1361 0020 DBB2     		uxtb	r3, r3
 1362 0022 22E0     		b	.L57
 1363              	.L56:
 1364              		.loc 1 632 46 is_stmt 0 discriminator 2
 1365 0024 3B68     		ldr	r3, [r7]
 1366 0026 042B     		cmp	r3, #4
 1367 0028 09D1     		bne	.L58
 1368              		.loc 1 632 7 is_stmt 1 discriminator 4
 1369 002a 7B68     		ldr	r3, [r7, #4]
 1370 002c 93F84330 		ldrb	r3, [r3, #67]
 1371 0030 DBB2     		uxtb	r3, r3
 1372              		.loc 1 632 46 discriminator 4
 1373 0032 012B     		cmp	r3, #1
 1374 0034 14BF     		ite	ne
 1375 0036 0123     		movne	r3, #1
 1376 0038 0023     		moveq	r3, #0
 1377 003a DBB2     		uxtb	r3, r3
 1378 003c 15E0     		b	.L57
 1379              	.L58:
ARM GAS  C:\Users\DAELT-~1\AppData\Local\Temp\cc2rhEX6.s 			page 36


 1380              		.loc 1 632 46 is_stmt 0 discriminator 5
 1381 003e 3B68     		ldr	r3, [r7]
 1382 0040 082B     		cmp	r3, #8
 1383 0042 09D1     		bne	.L60
 1384              		.loc 1 632 7 is_stmt 1 discriminator 7
 1385 0044 7B68     		ldr	r3, [r7, #4]
 1386 0046 93F84430 		ldrb	r3, [r3, #68]
 1387 004a DBB2     		uxtb	r3, r3
 1388              		.loc 1 632 46 discriminator 7
 1389 004c 012B     		cmp	r3, #1
 1390 004e 14BF     		ite	ne
 1391 0050 0123     		movne	r3, #1
 1392 0052 0023     		moveq	r3, #0
 1393 0054 DBB2     		uxtb	r3, r3
 1394 0056 08E0     		b	.L57
 1395              	.L60:
 1396              		.loc 1 632 7 discriminator 8
 1397 0058 7B68     		ldr	r3, [r7, #4]
 1398 005a 93F84530 		ldrb	r3, [r3, #69]
 1399 005e DBB2     		uxtb	r3, r3
 1400              		.loc 1 632 46 discriminator 8
 1401 0060 012B     		cmp	r3, #1
 1402 0062 14BF     		ite	ne
 1403 0064 0123     		movne	r3, #1
 1404 0066 0023     		moveq	r3, #0
 1405 0068 DBB2     		uxtb	r3, r3
 1406              	.L57:
 1407              		.loc 1 632 6 discriminator 12
 1408 006a 002B     		cmp	r3, #0
 1409 006c 01D0     		beq	.L62
 633:Drivers/STM32F4xx_HAL_Driver/Src/stm32f4xx_hal_tim_ex.c ****   {
 634:Drivers/STM32F4xx_HAL_Driver/Src/stm32f4xx_hal_tim_ex.c ****     return HAL_ERROR;
 1410              		.loc 1 634 12
 1411 006e 0123     		movs	r3, #1
 1412 0070 63E0     		b	.L63
 1413              	.L62:
 635:Drivers/STM32F4xx_HAL_Driver/Src/stm32f4xx_hal_tim_ex.c ****   }
 636:Drivers/STM32F4xx_HAL_Driver/Src/stm32f4xx_hal_tim_ex.c **** 
 637:Drivers/STM32F4xx_HAL_Driver/Src/stm32f4xx_hal_tim_ex.c ****   /* Set the TIM complementary channel state */
 638:Drivers/STM32F4xx_HAL_Driver/Src/stm32f4xx_hal_tim_ex.c ****   TIM_CHANNEL_N_STATE_SET(htim, Channel, HAL_TIM_CHANNEL_STATE_BUSY);
 1414              		.loc 1 638 3
 1415 0072 3B68     		ldr	r3, [r7]
 1416 0074 002B     		cmp	r3, #0
 1417 0076 04D1     		bne	.L64
 1418              		.loc 1 638 3 is_stmt 0 discriminator 1
 1419 0078 7B68     		ldr	r3, [r7, #4]
 1420 007a 0222     		movs	r2, #2
 1421 007c 83F84220 		strb	r2, [r3, #66]
 1422 0080 13E0     		b	.L65
 1423              	.L64:
 1424              		.loc 1 638 3 discriminator 2
 1425 0082 3B68     		ldr	r3, [r7]
 1426 0084 042B     		cmp	r3, #4
 1427 0086 04D1     		bne	.L66
 1428              		.loc 1 638 3 discriminator 3
 1429 0088 7B68     		ldr	r3, [r7, #4]
 1430 008a 0222     		movs	r2, #2
ARM GAS  C:\Users\DAELT-~1\AppData\Local\Temp\cc2rhEX6.s 			page 37


 1431 008c 83F84320 		strb	r2, [r3, #67]
 1432 0090 0BE0     		b	.L65
 1433              	.L66:
 1434              		.loc 1 638 3 discriminator 4
 1435 0092 3B68     		ldr	r3, [r7]
 1436 0094 082B     		cmp	r3, #8
 1437 0096 04D1     		bne	.L68
 1438              		.loc 1 638 3 discriminator 6
 1439 0098 7B68     		ldr	r3, [r7, #4]
 1440 009a 0222     		movs	r2, #2
 1441 009c 83F84420 		strb	r2, [r3, #68]
 1442 00a0 03E0     		b	.L65
 1443              	.L68:
 1444              		.loc 1 638 3 discriminator 7
 1445 00a2 7B68     		ldr	r3, [r7, #4]
 1446 00a4 0222     		movs	r2, #2
 1447 00a6 83F84520 		strb	r2, [r3, #69]
 1448              	.L65:
 639:Drivers/STM32F4xx_HAL_Driver/Src/stm32f4xx_hal_tim_ex.c **** 
 640:Drivers/STM32F4xx_HAL_Driver/Src/stm32f4xx_hal_tim_ex.c ****   /* Enable the Capture compare channel N */
 641:Drivers/STM32F4xx_HAL_Driver/Src/stm32f4xx_hal_tim_ex.c ****   TIM_CCxNChannelCmd(htim->Instance, Channel, TIM_CCxN_ENABLE);
 1449              		.loc 1 641 3 is_stmt 1
 1450 00aa 7B68     		ldr	r3, [r7, #4]
 1451 00ac 1B68     		ldr	r3, [r3]
 1452 00ae 0422     		movs	r2, #4
 1453 00b0 3968     		ldr	r1, [r7]
 1454 00b2 1846     		mov	r0, r3
 1455 00b4 FFF7FEFF 		bl	TIM_CCxNChannelCmd
 642:Drivers/STM32F4xx_HAL_Driver/Src/stm32f4xx_hal_tim_ex.c **** 
 643:Drivers/STM32F4xx_HAL_Driver/Src/stm32f4xx_hal_tim_ex.c ****   /* Enable the Main Output */
 644:Drivers/STM32F4xx_HAL_Driver/Src/stm32f4xx_hal_tim_ex.c ****   __HAL_TIM_MOE_ENABLE(htim);
 1456              		.loc 1 644 3
 1457 00b8 7B68     		ldr	r3, [r7, #4]
 1458 00ba 1B68     		ldr	r3, [r3]
 1459 00bc 5A6C     		ldr	r2, [r3, #68]
 1460 00be 7B68     		ldr	r3, [r7, #4]
 1461 00c0 1B68     		ldr	r3, [r3]
 1462 00c2 42F40042 		orr	r2, r2, #32768
 1463 00c6 5A64     		str	r2, [r3, #68]
 645:Drivers/STM32F4xx_HAL_Driver/Src/stm32f4xx_hal_tim_ex.c **** 
 646:Drivers/STM32F4xx_HAL_Driver/Src/stm32f4xx_hal_tim_ex.c ****   /* Enable the Peripheral, except in trigger mode where enable is automatically done with trigger 
 647:Drivers/STM32F4xx_HAL_Driver/Src/stm32f4xx_hal_tim_ex.c ****   if (IS_TIM_SLAVE_INSTANCE(htim->Instance))
 1464              		.loc 1 647 7
 1465 00c8 7B68     		ldr	r3, [r7, #4]
 1466 00ca 1B68     		ldr	r3, [r3]
 1467              		.loc 1 647 6
 1468 00cc 1D4A     		ldr	r2, .L74
 1469 00ce 9342     		cmp	r3, r2
 1470 00d0 18D0     		beq	.L70
 1471              		.loc 1 647 7 discriminator 1
 1472 00d2 7B68     		ldr	r3, [r7, #4]
 1473 00d4 1B68     		ldr	r3, [r3]
 1474 00d6 B3F1804F 		cmp	r3, #1073741824
 1475 00da 13D0     		beq	.L70
 1476              		.loc 1 647 7 is_stmt 0 discriminator 2
 1477 00dc 7B68     		ldr	r3, [r7, #4]
 1478 00de 1B68     		ldr	r3, [r3]
ARM GAS  C:\Users\DAELT-~1\AppData\Local\Temp\cc2rhEX6.s 			page 38


 1479 00e0 194A     		ldr	r2, .L74+4
 1480 00e2 9342     		cmp	r3, r2
 1481 00e4 0ED0     		beq	.L70
 1482              		.loc 1 647 7 discriminator 3
 1483 00e6 7B68     		ldr	r3, [r7, #4]
 1484 00e8 1B68     		ldr	r3, [r3]
 1485 00ea 184A     		ldr	r2, .L74+8
 1486 00ec 9342     		cmp	r3, r2
 1487 00ee 09D0     		beq	.L70
 1488              		.loc 1 647 7 discriminator 4
 1489 00f0 7B68     		ldr	r3, [r7, #4]
 1490 00f2 1B68     		ldr	r3, [r3]
 1491 00f4 164A     		ldr	r2, .L74+12
 1492 00f6 9342     		cmp	r3, r2
 1493 00f8 04D0     		beq	.L70
 1494              		.loc 1 647 7 discriminator 5
 1495 00fa 7B68     		ldr	r3, [r7, #4]
 1496 00fc 1B68     		ldr	r3, [r3]
 1497 00fe 154A     		ldr	r2, .L74+16
 1498 0100 9342     		cmp	r3, r2
 1499 0102 11D1     		bne	.L71
 1500              	.L70:
 648:Drivers/STM32F4xx_HAL_Driver/Src/stm32f4xx_hal_tim_ex.c ****   {
 649:Drivers/STM32F4xx_HAL_Driver/Src/stm32f4xx_hal_tim_ex.c ****     tmpsmcr = htim->Instance->SMCR & TIM_SMCR_SMS;
 1501              		.loc 1 649 19 is_stmt 1
 1502 0104 7B68     		ldr	r3, [r7, #4]
 1503 0106 1B68     		ldr	r3, [r3]
 1504              		.loc 1 649 29
 1505 0108 9B68     		ldr	r3, [r3, #8]
 1506              		.loc 1 649 13
 1507 010a 03F00703 		and	r3, r3, #7
 1508 010e FB60     		str	r3, [r7, #12]
 650:Drivers/STM32F4xx_HAL_Driver/Src/stm32f4xx_hal_tim_ex.c ****     if (!IS_TIM_SLAVEMODE_TRIGGER_ENABLED(tmpsmcr))
 1509              		.loc 1 650 8
 1510 0110 FB68     		ldr	r3, [r7, #12]
 1511 0112 062B     		cmp	r3, #6
 1512 0114 10D0     		beq	.L73
 651:Drivers/STM32F4xx_HAL_Driver/Src/stm32f4xx_hal_tim_ex.c ****     {
 652:Drivers/STM32F4xx_HAL_Driver/Src/stm32f4xx_hal_tim_ex.c ****       __HAL_TIM_ENABLE(htim);
 1513              		.loc 1 652 7
 1514 0116 7B68     		ldr	r3, [r7, #4]
 1515 0118 1B68     		ldr	r3, [r3]
 1516 011a 1A68     		ldr	r2, [r3]
 1517 011c 7B68     		ldr	r3, [r7, #4]
 1518 011e 1B68     		ldr	r3, [r3]
 1519 0120 42F00102 		orr	r2, r2, #1
 1520 0124 1A60     		str	r2, [r3]
 650:Drivers/STM32F4xx_HAL_Driver/Src/stm32f4xx_hal_tim_ex.c ****     if (!IS_TIM_SLAVEMODE_TRIGGER_ENABLED(tmpsmcr))
 1521              		.loc 1 650 8
 1522 0126 07E0     		b	.L73
 1523              	.L71:
 653:Drivers/STM32F4xx_HAL_Driver/Src/stm32f4xx_hal_tim_ex.c ****     }
 654:Drivers/STM32F4xx_HAL_Driver/Src/stm32f4xx_hal_tim_ex.c ****   }
 655:Drivers/STM32F4xx_HAL_Driver/Src/stm32f4xx_hal_tim_ex.c ****   else
 656:Drivers/STM32F4xx_HAL_Driver/Src/stm32f4xx_hal_tim_ex.c ****   {
 657:Drivers/STM32F4xx_HAL_Driver/Src/stm32f4xx_hal_tim_ex.c ****     __HAL_TIM_ENABLE(htim);
 1524              		.loc 1 657 5
ARM GAS  C:\Users\DAELT-~1\AppData\Local\Temp\cc2rhEX6.s 			page 39


 1525 0128 7B68     		ldr	r3, [r7, #4]
 1526 012a 1B68     		ldr	r3, [r3]
 1527 012c 1A68     		ldr	r2, [r3]
 1528 012e 7B68     		ldr	r3, [r7, #4]
 1529 0130 1B68     		ldr	r3, [r3]
 1530 0132 42F00102 		orr	r2, r2, #1
 1531 0136 1A60     		str	r2, [r3]
 1532              	.L73:
 658:Drivers/STM32F4xx_HAL_Driver/Src/stm32f4xx_hal_tim_ex.c ****   }
 659:Drivers/STM32F4xx_HAL_Driver/Src/stm32f4xx_hal_tim_ex.c **** 
 660:Drivers/STM32F4xx_HAL_Driver/Src/stm32f4xx_hal_tim_ex.c ****   /* Return function status */
 661:Drivers/STM32F4xx_HAL_Driver/Src/stm32f4xx_hal_tim_ex.c ****   return HAL_OK;
 1533              		.loc 1 661 10
 1534 0138 0023     		movs	r3, #0
 1535              	.L63:
 662:Drivers/STM32F4xx_HAL_Driver/Src/stm32f4xx_hal_tim_ex.c **** }
 1536              		.loc 1 662 1
 1537 013a 1846     		mov	r0, r3
 1538 013c 1037     		adds	r7, r7, #16
 1539              	.LCFI55:
 1540              		.cfi_def_cfa_offset 8
 1541 013e BD46     		mov	sp, r7
 1542              	.LCFI56:
 1543              		.cfi_def_cfa_register 13
 1544              		@ sp needed
 1545 0140 80BD     		pop	{r7, pc}
 1546              	.L75:
 1547 0142 00BF     		.align	2
 1548              	.L74:
 1549 0144 00000140 		.word	1073807360
 1550 0148 00040040 		.word	1073742848
 1551 014c 00080040 		.word	1073743872
 1552 0150 000C0040 		.word	1073744896
 1553 0154 00400140 		.word	1073823744
 1554              		.cfi_endproc
 1555              	.LFE140:
 1557              		.section	.text.HAL_TIMEx_OCN_Stop,"ax",%progbits
 1558              		.align	1
 1559              		.global	HAL_TIMEx_OCN_Stop
 1560              		.syntax unified
 1561              		.thumb
 1562              		.thumb_func
 1564              	HAL_TIMEx_OCN_Stop:
 1565              	.LFB141:
 663:Drivers/STM32F4xx_HAL_Driver/Src/stm32f4xx_hal_tim_ex.c **** 
 664:Drivers/STM32F4xx_HAL_Driver/Src/stm32f4xx_hal_tim_ex.c **** /**
 665:Drivers/STM32F4xx_HAL_Driver/Src/stm32f4xx_hal_tim_ex.c ****   * @brief  Stops the TIM Output Compare signal generation on the complementary
 666:Drivers/STM32F4xx_HAL_Driver/Src/stm32f4xx_hal_tim_ex.c ****   *         output.
 667:Drivers/STM32F4xx_HAL_Driver/Src/stm32f4xx_hal_tim_ex.c ****   * @param  htim TIM handle
 668:Drivers/STM32F4xx_HAL_Driver/Src/stm32f4xx_hal_tim_ex.c ****   * @param  Channel TIM Channel to be disabled
 669:Drivers/STM32F4xx_HAL_Driver/Src/stm32f4xx_hal_tim_ex.c ****   *          This parameter can be one of the following values:
 670:Drivers/STM32F4xx_HAL_Driver/Src/stm32f4xx_hal_tim_ex.c ****   *            @arg TIM_CHANNEL_1: TIM Channel 1 selected
 671:Drivers/STM32F4xx_HAL_Driver/Src/stm32f4xx_hal_tim_ex.c ****   *            @arg TIM_CHANNEL_2: TIM Channel 2 selected
 672:Drivers/STM32F4xx_HAL_Driver/Src/stm32f4xx_hal_tim_ex.c ****   *            @arg TIM_CHANNEL_3: TIM Channel 3 selected
 673:Drivers/STM32F4xx_HAL_Driver/Src/stm32f4xx_hal_tim_ex.c ****   * @retval HAL status
 674:Drivers/STM32F4xx_HAL_Driver/Src/stm32f4xx_hal_tim_ex.c ****   */
 675:Drivers/STM32F4xx_HAL_Driver/Src/stm32f4xx_hal_tim_ex.c **** HAL_StatusTypeDef HAL_TIMEx_OCN_Stop(TIM_HandleTypeDef *htim, uint32_t Channel)
ARM GAS  C:\Users\DAELT-~1\AppData\Local\Temp\cc2rhEX6.s 			page 40


 676:Drivers/STM32F4xx_HAL_Driver/Src/stm32f4xx_hal_tim_ex.c **** {
 1566              		.loc 1 676 1
 1567              		.cfi_startproc
 1568              		@ args = 0, pretend = 0, frame = 8
 1569              		@ frame_needed = 1, uses_anonymous_args = 0
 1570 0000 80B5     		push	{r7, lr}
 1571              	.LCFI57:
 1572              		.cfi_def_cfa_offset 8
 1573              		.cfi_offset 7, -8
 1574              		.cfi_offset 14, -4
 1575 0002 82B0     		sub	sp, sp, #8
 1576              	.LCFI58:
 1577              		.cfi_def_cfa_offset 16
 1578 0004 00AF     		add	r7, sp, #0
 1579              	.LCFI59:
 1580              		.cfi_def_cfa_register 7
 1581 0006 7860     		str	r0, [r7, #4]
 1582 0008 3960     		str	r1, [r7]
 677:Drivers/STM32F4xx_HAL_Driver/Src/stm32f4xx_hal_tim_ex.c ****   /* Check the parameters */
 678:Drivers/STM32F4xx_HAL_Driver/Src/stm32f4xx_hal_tim_ex.c ****   assert_param(IS_TIM_CCXN_INSTANCE(htim->Instance, Channel));
 679:Drivers/STM32F4xx_HAL_Driver/Src/stm32f4xx_hal_tim_ex.c **** 
 680:Drivers/STM32F4xx_HAL_Driver/Src/stm32f4xx_hal_tim_ex.c ****   /* Disable the Capture compare channel N */
 681:Drivers/STM32F4xx_HAL_Driver/Src/stm32f4xx_hal_tim_ex.c ****   TIM_CCxNChannelCmd(htim->Instance, Channel, TIM_CCxN_DISABLE);
 1583              		.loc 1 681 3
 1584 000a 7B68     		ldr	r3, [r7, #4]
 1585 000c 1B68     		ldr	r3, [r3]
 1586 000e 0022     		movs	r2, #0
 1587 0010 3968     		ldr	r1, [r7]
 1588 0012 1846     		mov	r0, r3
 1589 0014 FFF7FEFF 		bl	TIM_CCxNChannelCmd
 682:Drivers/STM32F4xx_HAL_Driver/Src/stm32f4xx_hal_tim_ex.c **** 
 683:Drivers/STM32F4xx_HAL_Driver/Src/stm32f4xx_hal_tim_ex.c ****   /* Disable the Main Output */
 684:Drivers/STM32F4xx_HAL_Driver/Src/stm32f4xx_hal_tim_ex.c ****   __HAL_TIM_MOE_DISABLE(htim);
 1590              		.loc 1 684 3
 1591 0018 7B68     		ldr	r3, [r7, #4]
 1592 001a 1B68     		ldr	r3, [r3]
 1593 001c 1A6A     		ldr	r2, [r3, #32]
 1594 001e 41F21113 		movw	r3, #4369
 1595 0022 1340     		ands	r3, r3, r2
 1596 0024 002B     		cmp	r3, #0
 1597 0026 0FD1     		bne	.L77
 1598              		.loc 1 684 3 is_stmt 0 discriminator 1
 1599 0028 7B68     		ldr	r3, [r7, #4]
 1600 002a 1B68     		ldr	r3, [r3]
 1601 002c 1A6A     		ldr	r2, [r3, #32]
 1602 002e 40F24443 		movw	r3, #1092
 1603 0032 1340     		ands	r3, r3, r2
 1604 0034 002B     		cmp	r3, #0
 1605 0036 07D1     		bne	.L77
 1606              		.loc 1 684 3 discriminator 2
 1607 0038 7B68     		ldr	r3, [r7, #4]
 1608 003a 1B68     		ldr	r3, [r3]
 1609 003c 5A6C     		ldr	r2, [r3, #68]
 1610 003e 7B68     		ldr	r3, [r7, #4]
 1611 0040 1B68     		ldr	r3, [r3]
 1612 0042 22F40042 		bic	r2, r2, #32768
 1613 0046 5A64     		str	r2, [r3, #68]
ARM GAS  C:\Users\DAELT-~1\AppData\Local\Temp\cc2rhEX6.s 			page 41


 1614              	.L77:
 685:Drivers/STM32F4xx_HAL_Driver/Src/stm32f4xx_hal_tim_ex.c **** 
 686:Drivers/STM32F4xx_HAL_Driver/Src/stm32f4xx_hal_tim_ex.c ****   /* Disable the Peripheral */
 687:Drivers/STM32F4xx_HAL_Driver/Src/stm32f4xx_hal_tim_ex.c ****   __HAL_TIM_DISABLE(htim);
 1615              		.loc 1 687 3 is_stmt 1
 1616 0048 7B68     		ldr	r3, [r7, #4]
 1617 004a 1B68     		ldr	r3, [r3]
 1618 004c 1A6A     		ldr	r2, [r3, #32]
 1619 004e 41F21113 		movw	r3, #4369
 1620 0052 1340     		ands	r3, r3, r2
 1621 0054 002B     		cmp	r3, #0
 1622 0056 0FD1     		bne	.L78
 1623              		.loc 1 687 3 is_stmt 0 discriminator 1
 1624 0058 7B68     		ldr	r3, [r7, #4]
 1625 005a 1B68     		ldr	r3, [r3]
 1626 005c 1A6A     		ldr	r2, [r3, #32]
 1627 005e 40F24443 		movw	r3, #1092
 1628 0062 1340     		ands	r3, r3, r2
 1629 0064 002B     		cmp	r3, #0
 1630 0066 07D1     		bne	.L78
 1631              		.loc 1 687 3 discriminator 2
 1632 0068 7B68     		ldr	r3, [r7, #4]
 1633 006a 1B68     		ldr	r3, [r3]
 1634 006c 1A68     		ldr	r2, [r3]
 1635 006e 7B68     		ldr	r3, [r7, #4]
 1636 0070 1B68     		ldr	r3, [r3]
 1637 0072 22F00102 		bic	r2, r2, #1
 1638 0076 1A60     		str	r2, [r3]
 1639              	.L78:
 688:Drivers/STM32F4xx_HAL_Driver/Src/stm32f4xx_hal_tim_ex.c **** 
 689:Drivers/STM32F4xx_HAL_Driver/Src/stm32f4xx_hal_tim_ex.c ****   /* Set the TIM complementary channel state */
 690:Drivers/STM32F4xx_HAL_Driver/Src/stm32f4xx_hal_tim_ex.c ****   TIM_CHANNEL_N_STATE_SET(htim, Channel, HAL_TIM_CHANNEL_STATE_READY);
 1640              		.loc 1 690 3 is_stmt 1
 1641 0078 3B68     		ldr	r3, [r7]
 1642 007a 002B     		cmp	r3, #0
 1643 007c 04D1     		bne	.L79
 1644              		.loc 1 690 3 is_stmt 0 discriminator 1
 1645 007e 7B68     		ldr	r3, [r7, #4]
 1646 0080 0122     		movs	r2, #1
 1647 0082 83F84220 		strb	r2, [r3, #66]
 1648 0086 13E0     		b	.L80
 1649              	.L79:
 1650              		.loc 1 690 3 discriminator 2
 1651 0088 3B68     		ldr	r3, [r7]
 1652 008a 042B     		cmp	r3, #4
 1653 008c 04D1     		bne	.L81
 1654              		.loc 1 690 3 discriminator 3
 1655 008e 7B68     		ldr	r3, [r7, #4]
 1656 0090 0122     		movs	r2, #1
 1657 0092 83F84320 		strb	r2, [r3, #67]
 1658 0096 0BE0     		b	.L80
 1659              	.L81:
 1660              		.loc 1 690 3 discriminator 4
 1661 0098 3B68     		ldr	r3, [r7]
 1662 009a 082B     		cmp	r3, #8
 1663 009c 04D1     		bne	.L83
 1664              		.loc 1 690 3 discriminator 6
ARM GAS  C:\Users\DAELT-~1\AppData\Local\Temp\cc2rhEX6.s 			page 42


 1665 009e 7B68     		ldr	r3, [r7, #4]
 1666 00a0 0122     		movs	r2, #1
 1667 00a2 83F84420 		strb	r2, [r3, #68]
 1668 00a6 03E0     		b	.L80
 1669              	.L83:
 1670              		.loc 1 690 3 discriminator 7
 1671 00a8 7B68     		ldr	r3, [r7, #4]
 1672 00aa 0122     		movs	r2, #1
 1673 00ac 83F84520 		strb	r2, [r3, #69]
 1674              	.L80:
 691:Drivers/STM32F4xx_HAL_Driver/Src/stm32f4xx_hal_tim_ex.c **** 
 692:Drivers/STM32F4xx_HAL_Driver/Src/stm32f4xx_hal_tim_ex.c ****   /* Return function status */
 693:Drivers/STM32F4xx_HAL_Driver/Src/stm32f4xx_hal_tim_ex.c ****   return HAL_OK;
 1675              		.loc 1 693 10 is_stmt 1
 1676 00b0 0023     		movs	r3, #0
 694:Drivers/STM32F4xx_HAL_Driver/Src/stm32f4xx_hal_tim_ex.c **** }
 1677              		.loc 1 694 1
 1678 00b2 1846     		mov	r0, r3
 1679 00b4 0837     		adds	r7, r7, #8
 1680              	.LCFI60:
 1681              		.cfi_def_cfa_offset 8
 1682 00b6 BD46     		mov	sp, r7
 1683              	.LCFI61:
 1684              		.cfi_def_cfa_register 13
 1685              		@ sp needed
 1686 00b8 80BD     		pop	{r7, pc}
 1687              		.cfi_endproc
 1688              	.LFE141:
 1690              		.section	.text.HAL_TIMEx_OCN_Start_IT,"ax",%progbits
 1691              		.align	1
 1692              		.global	HAL_TIMEx_OCN_Start_IT
 1693              		.syntax unified
 1694              		.thumb
 1695              		.thumb_func
 1697              	HAL_TIMEx_OCN_Start_IT:
 1698              	.LFB142:
 695:Drivers/STM32F4xx_HAL_Driver/Src/stm32f4xx_hal_tim_ex.c **** 
 696:Drivers/STM32F4xx_HAL_Driver/Src/stm32f4xx_hal_tim_ex.c **** /**
 697:Drivers/STM32F4xx_HAL_Driver/Src/stm32f4xx_hal_tim_ex.c ****   * @brief  Starts the TIM Output Compare signal generation in interrupt mode
 698:Drivers/STM32F4xx_HAL_Driver/Src/stm32f4xx_hal_tim_ex.c ****   *         on the complementary output.
 699:Drivers/STM32F4xx_HAL_Driver/Src/stm32f4xx_hal_tim_ex.c ****   * @param  htim TIM OC handle
 700:Drivers/STM32F4xx_HAL_Driver/Src/stm32f4xx_hal_tim_ex.c ****   * @param  Channel TIM Channel to be enabled
 701:Drivers/STM32F4xx_HAL_Driver/Src/stm32f4xx_hal_tim_ex.c ****   *          This parameter can be one of the following values:
 702:Drivers/STM32F4xx_HAL_Driver/Src/stm32f4xx_hal_tim_ex.c ****   *            @arg TIM_CHANNEL_1: TIM Channel 1 selected
 703:Drivers/STM32F4xx_HAL_Driver/Src/stm32f4xx_hal_tim_ex.c ****   *            @arg TIM_CHANNEL_2: TIM Channel 2 selected
 704:Drivers/STM32F4xx_HAL_Driver/Src/stm32f4xx_hal_tim_ex.c ****   *            @arg TIM_CHANNEL_3: TIM Channel 3 selected
 705:Drivers/STM32F4xx_HAL_Driver/Src/stm32f4xx_hal_tim_ex.c ****   * @retval HAL status
 706:Drivers/STM32F4xx_HAL_Driver/Src/stm32f4xx_hal_tim_ex.c ****   */
 707:Drivers/STM32F4xx_HAL_Driver/Src/stm32f4xx_hal_tim_ex.c **** HAL_StatusTypeDef HAL_TIMEx_OCN_Start_IT(TIM_HandleTypeDef *htim, uint32_t Channel)
 708:Drivers/STM32F4xx_HAL_Driver/Src/stm32f4xx_hal_tim_ex.c **** {
 1699              		.loc 1 708 1
 1700              		.cfi_startproc
 1701              		@ args = 0, pretend = 0, frame = 16
 1702              		@ frame_needed = 1, uses_anonymous_args = 0
 1703 0000 80B5     		push	{r7, lr}
 1704              	.LCFI62:
 1705              		.cfi_def_cfa_offset 8
ARM GAS  C:\Users\DAELT-~1\AppData\Local\Temp\cc2rhEX6.s 			page 43


 1706              		.cfi_offset 7, -8
 1707              		.cfi_offset 14, -4
 1708 0002 84B0     		sub	sp, sp, #16
 1709              	.LCFI63:
 1710              		.cfi_def_cfa_offset 24
 1711 0004 00AF     		add	r7, sp, #0
 1712              	.LCFI64:
 1713              		.cfi_def_cfa_register 7
 1714 0006 7860     		str	r0, [r7, #4]
 1715 0008 3960     		str	r1, [r7]
 709:Drivers/STM32F4xx_HAL_Driver/Src/stm32f4xx_hal_tim_ex.c ****   HAL_StatusTypeDef status = HAL_OK;
 1716              		.loc 1 709 21
 1717 000a 0023     		movs	r3, #0
 1718 000c FB73     		strb	r3, [r7, #15]
 710:Drivers/STM32F4xx_HAL_Driver/Src/stm32f4xx_hal_tim_ex.c ****   uint32_t tmpsmcr;
 711:Drivers/STM32F4xx_HAL_Driver/Src/stm32f4xx_hal_tim_ex.c **** 
 712:Drivers/STM32F4xx_HAL_Driver/Src/stm32f4xx_hal_tim_ex.c ****   /* Check the parameters */
 713:Drivers/STM32F4xx_HAL_Driver/Src/stm32f4xx_hal_tim_ex.c ****   assert_param(IS_TIM_CCXN_INSTANCE(htim->Instance, Channel));
 714:Drivers/STM32F4xx_HAL_Driver/Src/stm32f4xx_hal_tim_ex.c **** 
 715:Drivers/STM32F4xx_HAL_Driver/Src/stm32f4xx_hal_tim_ex.c ****   /* Check the TIM complementary channel state */
 716:Drivers/STM32F4xx_HAL_Driver/Src/stm32f4xx_hal_tim_ex.c ****   if (TIM_CHANNEL_N_STATE_GET(htim, Channel) != HAL_TIM_CHANNEL_STATE_READY)
 1719              		.loc 1 716 46
 1720 000e 3B68     		ldr	r3, [r7]
 1721 0010 002B     		cmp	r3, #0
 1722 0012 09D1     		bne	.L87
 1723              		.loc 1 716 7 discriminator 1
 1724 0014 7B68     		ldr	r3, [r7, #4]
 1725 0016 93F84230 		ldrb	r3, [r3, #66]
 1726 001a DBB2     		uxtb	r3, r3
 1727              		.loc 1 716 46 discriminator 1
 1728 001c 012B     		cmp	r3, #1
 1729 001e 14BF     		ite	ne
 1730 0020 0123     		movne	r3, #1
 1731 0022 0023     		moveq	r3, #0
 1732 0024 DBB2     		uxtb	r3, r3
 1733 0026 22E0     		b	.L88
 1734              	.L87:
 1735              		.loc 1 716 46 is_stmt 0 discriminator 2
 1736 0028 3B68     		ldr	r3, [r7]
 1737 002a 042B     		cmp	r3, #4
 1738 002c 09D1     		bne	.L89
 1739              		.loc 1 716 7 is_stmt 1 discriminator 4
 1740 002e 7B68     		ldr	r3, [r7, #4]
 1741 0030 93F84330 		ldrb	r3, [r3, #67]
 1742 0034 DBB2     		uxtb	r3, r3
 1743              		.loc 1 716 46 discriminator 4
 1744 0036 012B     		cmp	r3, #1
 1745 0038 14BF     		ite	ne
 1746 003a 0123     		movne	r3, #1
 1747 003c 0023     		moveq	r3, #0
 1748 003e DBB2     		uxtb	r3, r3
 1749 0040 15E0     		b	.L88
 1750              	.L89:
 1751              		.loc 1 716 46 is_stmt 0 discriminator 5
 1752 0042 3B68     		ldr	r3, [r7]
 1753 0044 082B     		cmp	r3, #8
 1754 0046 09D1     		bne	.L91
ARM GAS  C:\Users\DAELT-~1\AppData\Local\Temp\cc2rhEX6.s 			page 44


 1755              		.loc 1 716 7 is_stmt 1 discriminator 7
 1756 0048 7B68     		ldr	r3, [r7, #4]
 1757 004a 93F84430 		ldrb	r3, [r3, #68]
 1758 004e DBB2     		uxtb	r3, r3
 1759              		.loc 1 716 46 discriminator 7
 1760 0050 012B     		cmp	r3, #1
 1761 0052 14BF     		ite	ne
 1762 0054 0123     		movne	r3, #1
 1763 0056 0023     		moveq	r3, #0
 1764 0058 DBB2     		uxtb	r3, r3
 1765 005a 08E0     		b	.L88
 1766              	.L91:
 1767              		.loc 1 716 7 discriminator 8
 1768 005c 7B68     		ldr	r3, [r7, #4]
 1769 005e 93F84530 		ldrb	r3, [r3, #69]
 1770 0062 DBB2     		uxtb	r3, r3
 1771              		.loc 1 716 46 discriminator 8
 1772 0064 012B     		cmp	r3, #1
 1773 0066 14BF     		ite	ne
 1774 0068 0123     		movne	r3, #1
 1775 006a 0023     		moveq	r3, #0
 1776 006c DBB2     		uxtb	r3, r3
 1777              	.L88:
 1778              		.loc 1 716 6 discriminator 12
 1779 006e 002B     		cmp	r3, #0
 1780 0070 01D0     		beq	.L93
 717:Drivers/STM32F4xx_HAL_Driver/Src/stm32f4xx_hal_tim_ex.c ****   {
 718:Drivers/STM32F4xx_HAL_Driver/Src/stm32f4xx_hal_tim_ex.c ****     return HAL_ERROR;
 1781              		.loc 1 718 12
 1782 0072 0123     		movs	r3, #1
 1783 0074 99E0     		b	.L94
 1784              	.L93:
 719:Drivers/STM32F4xx_HAL_Driver/Src/stm32f4xx_hal_tim_ex.c ****   }
 720:Drivers/STM32F4xx_HAL_Driver/Src/stm32f4xx_hal_tim_ex.c **** 
 721:Drivers/STM32F4xx_HAL_Driver/Src/stm32f4xx_hal_tim_ex.c ****   /* Set the TIM complementary channel state */
 722:Drivers/STM32F4xx_HAL_Driver/Src/stm32f4xx_hal_tim_ex.c ****   TIM_CHANNEL_N_STATE_SET(htim, Channel, HAL_TIM_CHANNEL_STATE_BUSY);
 1785              		.loc 1 722 3
 1786 0076 3B68     		ldr	r3, [r7]
 1787 0078 002B     		cmp	r3, #0
 1788 007a 04D1     		bne	.L95
 1789              		.loc 1 722 3 is_stmt 0 discriminator 1
 1790 007c 7B68     		ldr	r3, [r7, #4]
 1791 007e 0222     		movs	r2, #2
 1792 0080 83F84220 		strb	r2, [r3, #66]
 1793 0084 13E0     		b	.L96
 1794              	.L95:
 1795              		.loc 1 722 3 discriminator 2
 1796 0086 3B68     		ldr	r3, [r7]
 1797 0088 042B     		cmp	r3, #4
 1798 008a 04D1     		bne	.L97
 1799              		.loc 1 722 3 discriminator 3
 1800 008c 7B68     		ldr	r3, [r7, #4]
 1801 008e 0222     		movs	r2, #2
 1802 0090 83F84320 		strb	r2, [r3, #67]
 1803 0094 0BE0     		b	.L96
 1804              	.L97:
 1805              		.loc 1 722 3 discriminator 4
ARM GAS  C:\Users\DAELT-~1\AppData\Local\Temp\cc2rhEX6.s 			page 45


 1806 0096 3B68     		ldr	r3, [r7]
 1807 0098 082B     		cmp	r3, #8
 1808 009a 04D1     		bne	.L99
 1809              		.loc 1 722 3 discriminator 6
 1810 009c 7B68     		ldr	r3, [r7, #4]
 1811 009e 0222     		movs	r2, #2
 1812 00a0 83F84420 		strb	r2, [r3, #68]
 1813 00a4 03E0     		b	.L96
 1814              	.L99:
 1815              		.loc 1 722 3 discriminator 7
 1816 00a6 7B68     		ldr	r3, [r7, #4]
 1817 00a8 0222     		movs	r2, #2
 1818 00aa 83F84520 		strb	r2, [r3, #69]
 1819              	.L96:
 723:Drivers/STM32F4xx_HAL_Driver/Src/stm32f4xx_hal_tim_ex.c **** 
 724:Drivers/STM32F4xx_HAL_Driver/Src/stm32f4xx_hal_tim_ex.c ****   switch (Channel)
 1820              		.loc 1 724 3 is_stmt 1
 1821 00ae 3B68     		ldr	r3, [r7]
 1822 00b0 082B     		cmp	r3, #8
 1823 00b2 1BD0     		beq	.L101
 1824 00b4 3B68     		ldr	r3, [r7]
 1825 00b6 082B     		cmp	r3, #8
 1826 00b8 21D8     		bhi	.L102
 1827 00ba 3B68     		ldr	r3, [r7]
 1828 00bc 002B     		cmp	r3, #0
 1829 00be 03D0     		beq	.L103
 1830 00c0 3B68     		ldr	r3, [r7]
 1831 00c2 042B     		cmp	r3, #4
 1832 00c4 09D0     		beq	.L104
 1833 00c6 1AE0     		b	.L102
 1834              	.L103:
 725:Drivers/STM32F4xx_HAL_Driver/Src/stm32f4xx_hal_tim_ex.c ****   {
 726:Drivers/STM32F4xx_HAL_Driver/Src/stm32f4xx_hal_tim_ex.c ****     case TIM_CHANNEL_1:
 727:Drivers/STM32F4xx_HAL_Driver/Src/stm32f4xx_hal_tim_ex.c ****     {
 728:Drivers/STM32F4xx_HAL_Driver/Src/stm32f4xx_hal_tim_ex.c ****       /* Enable the TIM Output Compare interrupt */
 729:Drivers/STM32F4xx_HAL_Driver/Src/stm32f4xx_hal_tim_ex.c ****       __HAL_TIM_ENABLE_IT(htim, TIM_IT_CC1);
 1835              		.loc 1 729 7
 1836 00c8 7B68     		ldr	r3, [r7, #4]
 1837 00ca 1B68     		ldr	r3, [r3]
 1838 00cc DA68     		ldr	r2, [r3, #12]
 1839 00ce 7B68     		ldr	r3, [r7, #4]
 1840 00d0 1B68     		ldr	r3, [r3]
 1841 00d2 42F00202 		orr	r2, r2, #2
 1842 00d6 DA60     		str	r2, [r3, #12]
 730:Drivers/STM32F4xx_HAL_Driver/Src/stm32f4xx_hal_tim_ex.c ****       break;
 1843              		.loc 1 730 7
 1844 00d8 14E0     		b	.L105
 1845              	.L104:
 731:Drivers/STM32F4xx_HAL_Driver/Src/stm32f4xx_hal_tim_ex.c ****     }
 732:Drivers/STM32F4xx_HAL_Driver/Src/stm32f4xx_hal_tim_ex.c **** 
 733:Drivers/STM32F4xx_HAL_Driver/Src/stm32f4xx_hal_tim_ex.c ****     case TIM_CHANNEL_2:
 734:Drivers/STM32F4xx_HAL_Driver/Src/stm32f4xx_hal_tim_ex.c ****     {
 735:Drivers/STM32F4xx_HAL_Driver/Src/stm32f4xx_hal_tim_ex.c ****       /* Enable the TIM Output Compare interrupt */
 736:Drivers/STM32F4xx_HAL_Driver/Src/stm32f4xx_hal_tim_ex.c ****       __HAL_TIM_ENABLE_IT(htim, TIM_IT_CC2);
 1846              		.loc 1 736 7
 1847 00da 7B68     		ldr	r3, [r7, #4]
 1848 00dc 1B68     		ldr	r3, [r3]
ARM GAS  C:\Users\DAELT-~1\AppData\Local\Temp\cc2rhEX6.s 			page 46


 1849 00de DA68     		ldr	r2, [r3, #12]
 1850 00e0 7B68     		ldr	r3, [r7, #4]
 1851 00e2 1B68     		ldr	r3, [r3]
 1852 00e4 42F00402 		orr	r2, r2, #4
 1853 00e8 DA60     		str	r2, [r3, #12]
 737:Drivers/STM32F4xx_HAL_Driver/Src/stm32f4xx_hal_tim_ex.c ****       break;
 1854              		.loc 1 737 7
 1855 00ea 0BE0     		b	.L105
 1856              	.L101:
 738:Drivers/STM32F4xx_HAL_Driver/Src/stm32f4xx_hal_tim_ex.c ****     }
 739:Drivers/STM32F4xx_HAL_Driver/Src/stm32f4xx_hal_tim_ex.c **** 
 740:Drivers/STM32F4xx_HAL_Driver/Src/stm32f4xx_hal_tim_ex.c ****     case TIM_CHANNEL_3:
 741:Drivers/STM32F4xx_HAL_Driver/Src/stm32f4xx_hal_tim_ex.c ****     {
 742:Drivers/STM32F4xx_HAL_Driver/Src/stm32f4xx_hal_tim_ex.c ****       /* Enable the TIM Output Compare interrupt */
 743:Drivers/STM32F4xx_HAL_Driver/Src/stm32f4xx_hal_tim_ex.c ****       __HAL_TIM_ENABLE_IT(htim, TIM_IT_CC3);
 1857              		.loc 1 743 7
 1858 00ec 7B68     		ldr	r3, [r7, #4]
 1859 00ee 1B68     		ldr	r3, [r3]
 1860 00f0 DA68     		ldr	r2, [r3, #12]
 1861 00f2 7B68     		ldr	r3, [r7, #4]
 1862 00f4 1B68     		ldr	r3, [r3]
 1863 00f6 42F00802 		orr	r2, r2, #8
 1864 00fa DA60     		str	r2, [r3, #12]
 744:Drivers/STM32F4xx_HAL_Driver/Src/stm32f4xx_hal_tim_ex.c ****       break;
 1865              		.loc 1 744 7
 1866 00fc 02E0     		b	.L105
 1867              	.L102:
 745:Drivers/STM32F4xx_HAL_Driver/Src/stm32f4xx_hal_tim_ex.c ****     }
 746:Drivers/STM32F4xx_HAL_Driver/Src/stm32f4xx_hal_tim_ex.c **** 
 747:Drivers/STM32F4xx_HAL_Driver/Src/stm32f4xx_hal_tim_ex.c **** 
 748:Drivers/STM32F4xx_HAL_Driver/Src/stm32f4xx_hal_tim_ex.c ****     default:
 749:Drivers/STM32F4xx_HAL_Driver/Src/stm32f4xx_hal_tim_ex.c ****       status = HAL_ERROR;
 1868              		.loc 1 749 14
 1869 00fe 0123     		movs	r3, #1
 1870 0100 FB73     		strb	r3, [r7, #15]
 750:Drivers/STM32F4xx_HAL_Driver/Src/stm32f4xx_hal_tim_ex.c ****       break;
 1871              		.loc 1 750 7
 1872 0102 00BF     		nop
 1873              	.L105:
 751:Drivers/STM32F4xx_HAL_Driver/Src/stm32f4xx_hal_tim_ex.c ****   }
 752:Drivers/STM32F4xx_HAL_Driver/Src/stm32f4xx_hal_tim_ex.c **** 
 753:Drivers/STM32F4xx_HAL_Driver/Src/stm32f4xx_hal_tim_ex.c ****   if (status == HAL_OK)
 1874              		.loc 1 753 6
 1875 0104 FB7B     		ldrb	r3, [r7, #15]	@ zero_extendqisi2
 1876 0106 002B     		cmp	r3, #0
 1877 0108 4ED1     		bne	.L106
 754:Drivers/STM32F4xx_HAL_Driver/Src/stm32f4xx_hal_tim_ex.c ****   {
 755:Drivers/STM32F4xx_HAL_Driver/Src/stm32f4xx_hal_tim_ex.c ****     /* Enable the TIM Break interrupt */
 756:Drivers/STM32F4xx_HAL_Driver/Src/stm32f4xx_hal_tim_ex.c ****     __HAL_TIM_ENABLE_IT(htim, TIM_IT_BREAK);
 1878              		.loc 1 756 5
 1879 010a 7B68     		ldr	r3, [r7, #4]
 1880 010c 1B68     		ldr	r3, [r3]
 1881 010e DA68     		ldr	r2, [r3, #12]
 1882 0110 7B68     		ldr	r3, [r7, #4]
 1883 0112 1B68     		ldr	r3, [r3]
 1884 0114 42F08002 		orr	r2, r2, #128
 1885 0118 DA60     		str	r2, [r3, #12]
ARM GAS  C:\Users\DAELT-~1\AppData\Local\Temp\cc2rhEX6.s 			page 47


 757:Drivers/STM32F4xx_HAL_Driver/Src/stm32f4xx_hal_tim_ex.c **** 
 758:Drivers/STM32F4xx_HAL_Driver/Src/stm32f4xx_hal_tim_ex.c ****     /* Enable the Capture compare channel N */
 759:Drivers/STM32F4xx_HAL_Driver/Src/stm32f4xx_hal_tim_ex.c ****     TIM_CCxNChannelCmd(htim->Instance, Channel, TIM_CCxN_ENABLE);
 1886              		.loc 1 759 5
 1887 011a 7B68     		ldr	r3, [r7, #4]
 1888 011c 1B68     		ldr	r3, [r3]
 1889 011e 0422     		movs	r2, #4
 1890 0120 3968     		ldr	r1, [r7]
 1891 0122 1846     		mov	r0, r3
 1892 0124 FFF7FEFF 		bl	TIM_CCxNChannelCmd
 760:Drivers/STM32F4xx_HAL_Driver/Src/stm32f4xx_hal_tim_ex.c **** 
 761:Drivers/STM32F4xx_HAL_Driver/Src/stm32f4xx_hal_tim_ex.c ****     /* Enable the Main Output */
 762:Drivers/STM32F4xx_HAL_Driver/Src/stm32f4xx_hal_tim_ex.c ****     __HAL_TIM_MOE_ENABLE(htim);
 1893              		.loc 1 762 5
 1894 0128 7B68     		ldr	r3, [r7, #4]
 1895 012a 1B68     		ldr	r3, [r3]
 1896 012c 5A6C     		ldr	r2, [r3, #68]
 1897 012e 7B68     		ldr	r3, [r7, #4]
 1898 0130 1B68     		ldr	r3, [r3]
 1899 0132 42F40042 		orr	r2, r2, #32768
 1900 0136 5A64     		str	r2, [r3, #68]
 763:Drivers/STM32F4xx_HAL_Driver/Src/stm32f4xx_hal_tim_ex.c **** 
 764:Drivers/STM32F4xx_HAL_Driver/Src/stm32f4xx_hal_tim_ex.c ****     /* Enable the Peripheral, except in trigger mode where enable is automatically done with trigge
 765:Drivers/STM32F4xx_HAL_Driver/Src/stm32f4xx_hal_tim_ex.c ****     if (IS_TIM_SLAVE_INSTANCE(htim->Instance))
 1901              		.loc 1 765 9
 1902 0138 7B68     		ldr	r3, [r7, #4]
 1903 013a 1B68     		ldr	r3, [r3]
 1904              		.loc 1 765 8
 1905 013c 1D4A     		ldr	r2, .L110
 1906 013e 9342     		cmp	r3, r2
 1907 0140 18D0     		beq	.L107
 1908              		.loc 1 765 9 discriminator 1
 1909 0142 7B68     		ldr	r3, [r7, #4]
 1910 0144 1B68     		ldr	r3, [r3]
 1911 0146 B3F1804F 		cmp	r3, #1073741824
 1912 014a 13D0     		beq	.L107
 1913              		.loc 1 765 9 is_stmt 0 discriminator 2
 1914 014c 7B68     		ldr	r3, [r7, #4]
 1915 014e 1B68     		ldr	r3, [r3]
 1916 0150 194A     		ldr	r2, .L110+4
 1917 0152 9342     		cmp	r3, r2
 1918 0154 0ED0     		beq	.L107
 1919              		.loc 1 765 9 discriminator 3
 1920 0156 7B68     		ldr	r3, [r7, #4]
 1921 0158 1B68     		ldr	r3, [r3]
 1922 015a 184A     		ldr	r2, .L110+8
 1923 015c 9342     		cmp	r3, r2
 1924 015e 09D0     		beq	.L107
 1925              		.loc 1 765 9 discriminator 4
 1926 0160 7B68     		ldr	r3, [r7, #4]
 1927 0162 1B68     		ldr	r3, [r3]
 1928 0164 164A     		ldr	r2, .L110+12
 1929 0166 9342     		cmp	r3, r2
 1930 0168 04D0     		beq	.L107
 1931              		.loc 1 765 9 discriminator 5
 1932 016a 7B68     		ldr	r3, [r7, #4]
 1933 016c 1B68     		ldr	r3, [r3]
ARM GAS  C:\Users\DAELT-~1\AppData\Local\Temp\cc2rhEX6.s 			page 48


 1934 016e 154A     		ldr	r2, .L110+16
 1935 0170 9342     		cmp	r3, r2
 1936 0172 11D1     		bne	.L108
 1937              	.L107:
 766:Drivers/STM32F4xx_HAL_Driver/Src/stm32f4xx_hal_tim_ex.c ****     {
 767:Drivers/STM32F4xx_HAL_Driver/Src/stm32f4xx_hal_tim_ex.c ****       tmpsmcr = htim->Instance->SMCR & TIM_SMCR_SMS;
 1938              		.loc 1 767 21 is_stmt 1
 1939 0174 7B68     		ldr	r3, [r7, #4]
 1940 0176 1B68     		ldr	r3, [r3]
 1941              		.loc 1 767 31
 1942 0178 9B68     		ldr	r3, [r3, #8]
 1943              		.loc 1 767 15
 1944 017a 03F00703 		and	r3, r3, #7
 1945 017e BB60     		str	r3, [r7, #8]
 768:Drivers/STM32F4xx_HAL_Driver/Src/stm32f4xx_hal_tim_ex.c ****       if (!IS_TIM_SLAVEMODE_TRIGGER_ENABLED(tmpsmcr))
 1946              		.loc 1 768 10
 1947 0180 BB68     		ldr	r3, [r7, #8]
 1948 0182 062B     		cmp	r3, #6
 1949 0184 10D0     		beq	.L106
 769:Drivers/STM32F4xx_HAL_Driver/Src/stm32f4xx_hal_tim_ex.c ****       {
 770:Drivers/STM32F4xx_HAL_Driver/Src/stm32f4xx_hal_tim_ex.c ****         __HAL_TIM_ENABLE(htim);
 1950              		.loc 1 770 9
 1951 0186 7B68     		ldr	r3, [r7, #4]
 1952 0188 1B68     		ldr	r3, [r3]
 1953 018a 1A68     		ldr	r2, [r3]
 1954 018c 7B68     		ldr	r3, [r7, #4]
 1955 018e 1B68     		ldr	r3, [r3]
 1956 0190 42F00102 		orr	r2, r2, #1
 1957 0194 1A60     		str	r2, [r3]
 768:Drivers/STM32F4xx_HAL_Driver/Src/stm32f4xx_hal_tim_ex.c ****       if (!IS_TIM_SLAVEMODE_TRIGGER_ENABLED(tmpsmcr))
 1958              		.loc 1 768 10
 1959 0196 07E0     		b	.L106
 1960              	.L108:
 771:Drivers/STM32F4xx_HAL_Driver/Src/stm32f4xx_hal_tim_ex.c ****       }
 772:Drivers/STM32F4xx_HAL_Driver/Src/stm32f4xx_hal_tim_ex.c ****     }
 773:Drivers/STM32F4xx_HAL_Driver/Src/stm32f4xx_hal_tim_ex.c ****     else
 774:Drivers/STM32F4xx_HAL_Driver/Src/stm32f4xx_hal_tim_ex.c ****     {
 775:Drivers/STM32F4xx_HAL_Driver/Src/stm32f4xx_hal_tim_ex.c ****       __HAL_TIM_ENABLE(htim);
 1961              		.loc 1 775 7
 1962 0198 7B68     		ldr	r3, [r7, #4]
 1963 019a 1B68     		ldr	r3, [r3]
 1964 019c 1A68     		ldr	r2, [r3]
 1965 019e 7B68     		ldr	r3, [r7, #4]
 1966 01a0 1B68     		ldr	r3, [r3]
 1967 01a2 42F00102 		orr	r2, r2, #1
 1968 01a6 1A60     		str	r2, [r3]
 1969              	.L106:
 776:Drivers/STM32F4xx_HAL_Driver/Src/stm32f4xx_hal_tim_ex.c ****     }
 777:Drivers/STM32F4xx_HAL_Driver/Src/stm32f4xx_hal_tim_ex.c ****   }
 778:Drivers/STM32F4xx_HAL_Driver/Src/stm32f4xx_hal_tim_ex.c **** 
 779:Drivers/STM32F4xx_HAL_Driver/Src/stm32f4xx_hal_tim_ex.c ****   /* Return function status */
 780:Drivers/STM32F4xx_HAL_Driver/Src/stm32f4xx_hal_tim_ex.c ****   return status;
 1970              		.loc 1 780 10
 1971 01a8 FB7B     		ldrb	r3, [r7, #15]	@ zero_extendqisi2
 1972              	.L94:
 781:Drivers/STM32F4xx_HAL_Driver/Src/stm32f4xx_hal_tim_ex.c **** }
 1973              		.loc 1 781 1
ARM GAS  C:\Users\DAELT-~1\AppData\Local\Temp\cc2rhEX6.s 			page 49


 1974 01aa 1846     		mov	r0, r3
 1975 01ac 1037     		adds	r7, r7, #16
 1976              	.LCFI65:
 1977              		.cfi_def_cfa_offset 8
 1978 01ae BD46     		mov	sp, r7
 1979              	.LCFI66:
 1980              		.cfi_def_cfa_register 13
 1981              		@ sp needed
 1982 01b0 80BD     		pop	{r7, pc}
 1983              	.L111:
 1984 01b2 00BF     		.align	2
 1985              	.L110:
 1986 01b4 00000140 		.word	1073807360
 1987 01b8 00040040 		.word	1073742848
 1988 01bc 00080040 		.word	1073743872
 1989 01c0 000C0040 		.word	1073744896
 1990 01c4 00400140 		.word	1073823744
 1991              		.cfi_endproc
 1992              	.LFE142:
 1994              		.section	.text.HAL_TIMEx_OCN_Stop_IT,"ax",%progbits
 1995              		.align	1
 1996              		.global	HAL_TIMEx_OCN_Stop_IT
 1997              		.syntax unified
 1998              		.thumb
 1999              		.thumb_func
 2001              	HAL_TIMEx_OCN_Stop_IT:
 2002              	.LFB143:
 782:Drivers/STM32F4xx_HAL_Driver/Src/stm32f4xx_hal_tim_ex.c **** 
 783:Drivers/STM32F4xx_HAL_Driver/Src/stm32f4xx_hal_tim_ex.c **** /**
 784:Drivers/STM32F4xx_HAL_Driver/Src/stm32f4xx_hal_tim_ex.c ****   * @brief  Stops the TIM Output Compare signal generation in interrupt mode
 785:Drivers/STM32F4xx_HAL_Driver/Src/stm32f4xx_hal_tim_ex.c ****   *         on the complementary output.
 786:Drivers/STM32F4xx_HAL_Driver/Src/stm32f4xx_hal_tim_ex.c ****   * @param  htim TIM Output Compare handle
 787:Drivers/STM32F4xx_HAL_Driver/Src/stm32f4xx_hal_tim_ex.c ****   * @param  Channel TIM Channel to be disabled
 788:Drivers/STM32F4xx_HAL_Driver/Src/stm32f4xx_hal_tim_ex.c ****   *          This parameter can be one of the following values:
 789:Drivers/STM32F4xx_HAL_Driver/Src/stm32f4xx_hal_tim_ex.c ****   *            @arg TIM_CHANNEL_1: TIM Channel 1 selected
 790:Drivers/STM32F4xx_HAL_Driver/Src/stm32f4xx_hal_tim_ex.c ****   *            @arg TIM_CHANNEL_2: TIM Channel 2 selected
 791:Drivers/STM32F4xx_HAL_Driver/Src/stm32f4xx_hal_tim_ex.c ****   *            @arg TIM_CHANNEL_3: TIM Channel 3 selected
 792:Drivers/STM32F4xx_HAL_Driver/Src/stm32f4xx_hal_tim_ex.c ****   * @retval HAL status
 793:Drivers/STM32F4xx_HAL_Driver/Src/stm32f4xx_hal_tim_ex.c ****   */
 794:Drivers/STM32F4xx_HAL_Driver/Src/stm32f4xx_hal_tim_ex.c **** HAL_StatusTypeDef HAL_TIMEx_OCN_Stop_IT(TIM_HandleTypeDef *htim, uint32_t Channel)
 795:Drivers/STM32F4xx_HAL_Driver/Src/stm32f4xx_hal_tim_ex.c **** {
 2003              		.loc 1 795 1
 2004              		.cfi_startproc
 2005              		@ args = 0, pretend = 0, frame = 16
 2006              		@ frame_needed = 1, uses_anonymous_args = 0
 2007 0000 80B5     		push	{r7, lr}
 2008              	.LCFI67:
 2009              		.cfi_def_cfa_offset 8
 2010              		.cfi_offset 7, -8
 2011              		.cfi_offset 14, -4
 2012 0002 84B0     		sub	sp, sp, #16
 2013              	.LCFI68:
 2014              		.cfi_def_cfa_offset 24
 2015 0004 00AF     		add	r7, sp, #0
 2016              	.LCFI69:
 2017              		.cfi_def_cfa_register 7
 2018 0006 7860     		str	r0, [r7, #4]
ARM GAS  C:\Users\DAELT-~1\AppData\Local\Temp\cc2rhEX6.s 			page 50


 2019 0008 3960     		str	r1, [r7]
 796:Drivers/STM32F4xx_HAL_Driver/Src/stm32f4xx_hal_tim_ex.c ****   HAL_StatusTypeDef status = HAL_OK;
 2020              		.loc 1 796 21
 2021 000a 0023     		movs	r3, #0
 2022 000c FB73     		strb	r3, [r7, #15]
 797:Drivers/STM32F4xx_HAL_Driver/Src/stm32f4xx_hal_tim_ex.c ****   uint32_t tmpccer;
 798:Drivers/STM32F4xx_HAL_Driver/Src/stm32f4xx_hal_tim_ex.c **** 
 799:Drivers/STM32F4xx_HAL_Driver/Src/stm32f4xx_hal_tim_ex.c ****   /* Check the parameters */
 800:Drivers/STM32F4xx_HAL_Driver/Src/stm32f4xx_hal_tim_ex.c ****   assert_param(IS_TIM_CCXN_INSTANCE(htim->Instance, Channel));
 801:Drivers/STM32F4xx_HAL_Driver/Src/stm32f4xx_hal_tim_ex.c **** 
 802:Drivers/STM32F4xx_HAL_Driver/Src/stm32f4xx_hal_tim_ex.c ****   switch (Channel)
 2023              		.loc 1 802 3
 2024 000e 3B68     		ldr	r3, [r7]
 2025 0010 082B     		cmp	r3, #8
 2026 0012 1BD0     		beq	.L113
 2027 0014 3B68     		ldr	r3, [r7]
 2028 0016 082B     		cmp	r3, #8
 2029 0018 21D8     		bhi	.L114
 2030 001a 3B68     		ldr	r3, [r7]
 2031 001c 002B     		cmp	r3, #0
 2032 001e 03D0     		beq	.L115
 2033 0020 3B68     		ldr	r3, [r7]
 2034 0022 042B     		cmp	r3, #4
 2035 0024 09D0     		beq	.L116
 2036 0026 1AE0     		b	.L114
 2037              	.L115:
 803:Drivers/STM32F4xx_HAL_Driver/Src/stm32f4xx_hal_tim_ex.c ****   {
 804:Drivers/STM32F4xx_HAL_Driver/Src/stm32f4xx_hal_tim_ex.c ****     case TIM_CHANNEL_1:
 805:Drivers/STM32F4xx_HAL_Driver/Src/stm32f4xx_hal_tim_ex.c ****     {
 806:Drivers/STM32F4xx_HAL_Driver/Src/stm32f4xx_hal_tim_ex.c ****       /* Disable the TIM Output Compare interrupt */
 807:Drivers/STM32F4xx_HAL_Driver/Src/stm32f4xx_hal_tim_ex.c ****       __HAL_TIM_DISABLE_IT(htim, TIM_IT_CC1);
 2038              		.loc 1 807 7
 2039 0028 7B68     		ldr	r3, [r7, #4]
 2040 002a 1B68     		ldr	r3, [r3]
 2041 002c DA68     		ldr	r2, [r3, #12]
 2042 002e 7B68     		ldr	r3, [r7, #4]
 2043 0030 1B68     		ldr	r3, [r3]
 2044 0032 22F00202 		bic	r2, r2, #2
 2045 0036 DA60     		str	r2, [r3, #12]
 808:Drivers/STM32F4xx_HAL_Driver/Src/stm32f4xx_hal_tim_ex.c ****       break;
 2046              		.loc 1 808 7
 2047 0038 14E0     		b	.L117
 2048              	.L116:
 809:Drivers/STM32F4xx_HAL_Driver/Src/stm32f4xx_hal_tim_ex.c ****     }
 810:Drivers/STM32F4xx_HAL_Driver/Src/stm32f4xx_hal_tim_ex.c **** 
 811:Drivers/STM32F4xx_HAL_Driver/Src/stm32f4xx_hal_tim_ex.c ****     case TIM_CHANNEL_2:
 812:Drivers/STM32F4xx_HAL_Driver/Src/stm32f4xx_hal_tim_ex.c ****     {
 813:Drivers/STM32F4xx_HAL_Driver/Src/stm32f4xx_hal_tim_ex.c ****       /* Disable the TIM Output Compare interrupt */
 814:Drivers/STM32F4xx_HAL_Driver/Src/stm32f4xx_hal_tim_ex.c ****       __HAL_TIM_DISABLE_IT(htim, TIM_IT_CC2);
 2049              		.loc 1 814 7
 2050 003a 7B68     		ldr	r3, [r7, #4]
 2051 003c 1B68     		ldr	r3, [r3]
 2052 003e DA68     		ldr	r2, [r3, #12]
 2053 0040 7B68     		ldr	r3, [r7, #4]
 2054 0042 1B68     		ldr	r3, [r3]
 2055 0044 22F00402 		bic	r2, r2, #4
 2056 0048 DA60     		str	r2, [r3, #12]
ARM GAS  C:\Users\DAELT-~1\AppData\Local\Temp\cc2rhEX6.s 			page 51


 815:Drivers/STM32F4xx_HAL_Driver/Src/stm32f4xx_hal_tim_ex.c ****       break;
 2057              		.loc 1 815 7
 2058 004a 0BE0     		b	.L117
 2059              	.L113:
 816:Drivers/STM32F4xx_HAL_Driver/Src/stm32f4xx_hal_tim_ex.c ****     }
 817:Drivers/STM32F4xx_HAL_Driver/Src/stm32f4xx_hal_tim_ex.c **** 
 818:Drivers/STM32F4xx_HAL_Driver/Src/stm32f4xx_hal_tim_ex.c ****     case TIM_CHANNEL_3:
 819:Drivers/STM32F4xx_HAL_Driver/Src/stm32f4xx_hal_tim_ex.c ****     {
 820:Drivers/STM32F4xx_HAL_Driver/Src/stm32f4xx_hal_tim_ex.c ****       /* Disable the TIM Output Compare interrupt */
 821:Drivers/STM32F4xx_HAL_Driver/Src/stm32f4xx_hal_tim_ex.c ****       __HAL_TIM_DISABLE_IT(htim, TIM_IT_CC3);
 2060              		.loc 1 821 7
 2061 004c 7B68     		ldr	r3, [r7, #4]
 2062 004e 1B68     		ldr	r3, [r3]
 2063 0050 DA68     		ldr	r2, [r3, #12]
 2064 0052 7B68     		ldr	r3, [r7, #4]
 2065 0054 1B68     		ldr	r3, [r3]
 2066 0056 22F00802 		bic	r2, r2, #8
 2067 005a DA60     		str	r2, [r3, #12]
 822:Drivers/STM32F4xx_HAL_Driver/Src/stm32f4xx_hal_tim_ex.c ****       break;
 2068              		.loc 1 822 7
 2069 005c 02E0     		b	.L117
 2070              	.L114:
 823:Drivers/STM32F4xx_HAL_Driver/Src/stm32f4xx_hal_tim_ex.c ****     }
 824:Drivers/STM32F4xx_HAL_Driver/Src/stm32f4xx_hal_tim_ex.c **** 
 825:Drivers/STM32F4xx_HAL_Driver/Src/stm32f4xx_hal_tim_ex.c ****     default:
 826:Drivers/STM32F4xx_HAL_Driver/Src/stm32f4xx_hal_tim_ex.c ****       status = HAL_ERROR;
 2071              		.loc 1 826 14
 2072 005e 0123     		movs	r3, #1
 2073 0060 FB73     		strb	r3, [r7, #15]
 827:Drivers/STM32F4xx_HAL_Driver/Src/stm32f4xx_hal_tim_ex.c ****       break;
 2074              		.loc 1 827 7
 2075 0062 00BF     		nop
 2076              	.L117:
 828:Drivers/STM32F4xx_HAL_Driver/Src/stm32f4xx_hal_tim_ex.c ****   }
 829:Drivers/STM32F4xx_HAL_Driver/Src/stm32f4xx_hal_tim_ex.c **** 
 830:Drivers/STM32F4xx_HAL_Driver/Src/stm32f4xx_hal_tim_ex.c ****   if (status == HAL_OK)
 2077              		.loc 1 830 6
 2078 0064 FB7B     		ldrb	r3, [r7, #15]	@ zero_extendqisi2
 2079 0066 002B     		cmp	r3, #0
 2080 0068 64D1     		bne	.L118
 831:Drivers/STM32F4xx_HAL_Driver/Src/stm32f4xx_hal_tim_ex.c ****   {
 832:Drivers/STM32F4xx_HAL_Driver/Src/stm32f4xx_hal_tim_ex.c ****     /* Disable the Capture compare channel N */
 833:Drivers/STM32F4xx_HAL_Driver/Src/stm32f4xx_hal_tim_ex.c ****     TIM_CCxNChannelCmd(htim->Instance, Channel, TIM_CCxN_DISABLE);
 2081              		.loc 1 833 5
 2082 006a 7B68     		ldr	r3, [r7, #4]
 2083 006c 1B68     		ldr	r3, [r3]
 2084 006e 0022     		movs	r2, #0
 2085 0070 3968     		ldr	r1, [r7]
 2086 0072 1846     		mov	r0, r3
 2087 0074 FFF7FEFF 		bl	TIM_CCxNChannelCmd
 834:Drivers/STM32F4xx_HAL_Driver/Src/stm32f4xx_hal_tim_ex.c **** 
 835:Drivers/STM32F4xx_HAL_Driver/Src/stm32f4xx_hal_tim_ex.c ****     /* Disable the TIM Break interrupt (only if no more channel is active) */
 836:Drivers/STM32F4xx_HAL_Driver/Src/stm32f4xx_hal_tim_ex.c ****     tmpccer = htim->Instance->CCER;
 2088              		.loc 1 836 19
 2089 0078 7B68     		ldr	r3, [r7, #4]
 2090 007a 1B68     		ldr	r3, [r3]
 2091              		.loc 1 836 13
ARM GAS  C:\Users\DAELT-~1\AppData\Local\Temp\cc2rhEX6.s 			page 52


 2092 007c 1B6A     		ldr	r3, [r3, #32]
 2093 007e BB60     		str	r3, [r7, #8]
 837:Drivers/STM32F4xx_HAL_Driver/Src/stm32f4xx_hal_tim_ex.c ****     if ((tmpccer & (TIM_CCER_CC1NE | TIM_CCER_CC2NE | TIM_CCER_CC3NE)) == (uint32_t)RESET)
 2094              		.loc 1 837 18
 2095 0080 BA68     		ldr	r2, [r7, #8]
 2096 0082 40F24443 		movw	r3, #1092
 2097 0086 1340     		ands	r3, r3, r2
 2098              		.loc 1 837 8
 2099 0088 002B     		cmp	r3, #0
 2100 008a 07D1     		bne	.L119
 838:Drivers/STM32F4xx_HAL_Driver/Src/stm32f4xx_hal_tim_ex.c ****     {
 839:Drivers/STM32F4xx_HAL_Driver/Src/stm32f4xx_hal_tim_ex.c ****       __HAL_TIM_DISABLE_IT(htim, TIM_IT_BREAK);
 2101              		.loc 1 839 7
 2102 008c 7B68     		ldr	r3, [r7, #4]
 2103 008e 1B68     		ldr	r3, [r3]
 2104 0090 DA68     		ldr	r2, [r3, #12]
 2105 0092 7B68     		ldr	r3, [r7, #4]
 2106 0094 1B68     		ldr	r3, [r3]
 2107 0096 22F08002 		bic	r2, r2, #128
 2108 009a DA60     		str	r2, [r3, #12]
 2109              	.L119:
 840:Drivers/STM32F4xx_HAL_Driver/Src/stm32f4xx_hal_tim_ex.c ****     }
 841:Drivers/STM32F4xx_HAL_Driver/Src/stm32f4xx_hal_tim_ex.c **** 
 842:Drivers/STM32F4xx_HAL_Driver/Src/stm32f4xx_hal_tim_ex.c ****     /* Disable the Main Output */
 843:Drivers/STM32F4xx_HAL_Driver/Src/stm32f4xx_hal_tim_ex.c ****     __HAL_TIM_MOE_DISABLE(htim);
 2110              		.loc 1 843 5
 2111 009c 7B68     		ldr	r3, [r7, #4]
 2112 009e 1B68     		ldr	r3, [r3]
 2113 00a0 1A6A     		ldr	r2, [r3, #32]
 2114 00a2 41F21113 		movw	r3, #4369
 2115 00a6 1340     		ands	r3, r3, r2
 2116 00a8 002B     		cmp	r3, #0
 2117 00aa 0FD1     		bne	.L120
 2118              		.loc 1 843 5 is_stmt 0 discriminator 1
 2119 00ac 7B68     		ldr	r3, [r7, #4]
 2120 00ae 1B68     		ldr	r3, [r3]
 2121 00b0 1A6A     		ldr	r2, [r3, #32]
 2122 00b2 40F24443 		movw	r3, #1092
 2123 00b6 1340     		ands	r3, r3, r2
 2124 00b8 002B     		cmp	r3, #0
 2125 00ba 07D1     		bne	.L120
 2126              		.loc 1 843 5 discriminator 2
 2127 00bc 7B68     		ldr	r3, [r7, #4]
 2128 00be 1B68     		ldr	r3, [r3]
 2129 00c0 5A6C     		ldr	r2, [r3, #68]
 2130 00c2 7B68     		ldr	r3, [r7, #4]
 2131 00c4 1B68     		ldr	r3, [r3]
 2132 00c6 22F40042 		bic	r2, r2, #32768
 2133 00ca 5A64     		str	r2, [r3, #68]
 2134              	.L120:
 844:Drivers/STM32F4xx_HAL_Driver/Src/stm32f4xx_hal_tim_ex.c **** 
 845:Drivers/STM32F4xx_HAL_Driver/Src/stm32f4xx_hal_tim_ex.c ****     /* Disable the Peripheral */
 846:Drivers/STM32F4xx_HAL_Driver/Src/stm32f4xx_hal_tim_ex.c ****     __HAL_TIM_DISABLE(htim);
 2135              		.loc 1 846 5 is_stmt 1
 2136 00cc 7B68     		ldr	r3, [r7, #4]
 2137 00ce 1B68     		ldr	r3, [r3]
 2138 00d0 1A6A     		ldr	r2, [r3, #32]
ARM GAS  C:\Users\DAELT-~1\AppData\Local\Temp\cc2rhEX6.s 			page 53


 2139 00d2 41F21113 		movw	r3, #4369
 2140 00d6 1340     		ands	r3, r3, r2
 2141 00d8 002B     		cmp	r3, #0
 2142 00da 0FD1     		bne	.L121
 2143              		.loc 1 846 5 is_stmt 0 discriminator 1
 2144 00dc 7B68     		ldr	r3, [r7, #4]
 2145 00de 1B68     		ldr	r3, [r3]
 2146 00e0 1A6A     		ldr	r2, [r3, #32]
 2147 00e2 40F24443 		movw	r3, #1092
 2148 00e6 1340     		ands	r3, r3, r2
 2149 00e8 002B     		cmp	r3, #0
 2150 00ea 07D1     		bne	.L121
 2151              		.loc 1 846 5 discriminator 2
 2152 00ec 7B68     		ldr	r3, [r7, #4]
 2153 00ee 1B68     		ldr	r3, [r3]
 2154 00f0 1A68     		ldr	r2, [r3]
 2155 00f2 7B68     		ldr	r3, [r7, #4]
 2156 00f4 1B68     		ldr	r3, [r3]
 2157 00f6 22F00102 		bic	r2, r2, #1
 2158 00fa 1A60     		str	r2, [r3]
 2159              	.L121:
 847:Drivers/STM32F4xx_HAL_Driver/Src/stm32f4xx_hal_tim_ex.c **** 
 848:Drivers/STM32F4xx_HAL_Driver/Src/stm32f4xx_hal_tim_ex.c ****     /* Set the TIM complementary channel state */
 849:Drivers/STM32F4xx_HAL_Driver/Src/stm32f4xx_hal_tim_ex.c ****     TIM_CHANNEL_N_STATE_SET(htim, Channel, HAL_TIM_CHANNEL_STATE_READY);
 2160              		.loc 1 849 5 is_stmt 1
 2161 00fc 3B68     		ldr	r3, [r7]
 2162 00fe 002B     		cmp	r3, #0
 2163 0100 04D1     		bne	.L122
 2164              		.loc 1 849 5 is_stmt 0 discriminator 1
 2165 0102 7B68     		ldr	r3, [r7, #4]
 2166 0104 0122     		movs	r2, #1
 2167 0106 83F84220 		strb	r2, [r3, #66]
 2168 010a 13E0     		b	.L118
 2169              	.L122:
 2170              		.loc 1 849 5 discriminator 2
 2171 010c 3B68     		ldr	r3, [r7]
 2172 010e 042B     		cmp	r3, #4
 2173 0110 04D1     		bne	.L123
 2174              		.loc 1 849 5 discriminator 3
 2175 0112 7B68     		ldr	r3, [r7, #4]
 2176 0114 0122     		movs	r2, #1
 2177 0116 83F84320 		strb	r2, [r3, #67]
 2178 011a 0BE0     		b	.L118
 2179              	.L123:
 2180              		.loc 1 849 5 discriminator 4
 2181 011c 3B68     		ldr	r3, [r7]
 2182 011e 082B     		cmp	r3, #8
 2183 0120 04D1     		bne	.L125
 2184              		.loc 1 849 5 discriminator 6
 2185 0122 7B68     		ldr	r3, [r7, #4]
 2186 0124 0122     		movs	r2, #1
 2187 0126 83F84420 		strb	r2, [r3, #68]
 2188 012a 03E0     		b	.L118
 2189              	.L125:
 2190              		.loc 1 849 5 discriminator 7
 2191 012c 7B68     		ldr	r3, [r7, #4]
 2192 012e 0122     		movs	r2, #1
ARM GAS  C:\Users\DAELT-~1\AppData\Local\Temp\cc2rhEX6.s 			page 54


 2193 0130 83F84520 		strb	r2, [r3, #69]
 2194              	.L118:
 850:Drivers/STM32F4xx_HAL_Driver/Src/stm32f4xx_hal_tim_ex.c ****   }
 851:Drivers/STM32F4xx_HAL_Driver/Src/stm32f4xx_hal_tim_ex.c **** 
 852:Drivers/STM32F4xx_HAL_Driver/Src/stm32f4xx_hal_tim_ex.c ****   /* Return function status */
 853:Drivers/STM32F4xx_HAL_Driver/Src/stm32f4xx_hal_tim_ex.c ****   return status;
 2195              		.loc 1 853 10 is_stmt 1
 2196 0134 FB7B     		ldrb	r3, [r7, #15]	@ zero_extendqisi2
 854:Drivers/STM32F4xx_HAL_Driver/Src/stm32f4xx_hal_tim_ex.c **** }
 2197              		.loc 1 854 1
 2198 0136 1846     		mov	r0, r3
 2199 0138 1037     		adds	r7, r7, #16
 2200              	.LCFI70:
 2201              		.cfi_def_cfa_offset 8
 2202 013a BD46     		mov	sp, r7
 2203              	.LCFI71:
 2204              		.cfi_def_cfa_register 13
 2205              		@ sp needed
 2206 013c 80BD     		pop	{r7, pc}
 2207              		.cfi_endproc
 2208              	.LFE143:
 2210              		.section	.text.HAL_TIMEx_OCN_Start_DMA,"ax",%progbits
 2211              		.align	1
 2212              		.global	HAL_TIMEx_OCN_Start_DMA
 2213              		.syntax unified
 2214              		.thumb
 2215              		.thumb_func
 2217              	HAL_TIMEx_OCN_Start_DMA:
 2218              	.LFB144:
 855:Drivers/STM32F4xx_HAL_Driver/Src/stm32f4xx_hal_tim_ex.c **** 
 856:Drivers/STM32F4xx_HAL_Driver/Src/stm32f4xx_hal_tim_ex.c **** /**
 857:Drivers/STM32F4xx_HAL_Driver/Src/stm32f4xx_hal_tim_ex.c ****   * @brief  Starts the TIM Output Compare signal generation in DMA mode
 858:Drivers/STM32F4xx_HAL_Driver/Src/stm32f4xx_hal_tim_ex.c ****   *         on the complementary output.
 859:Drivers/STM32F4xx_HAL_Driver/Src/stm32f4xx_hal_tim_ex.c ****   * @param  htim TIM Output Compare handle
 860:Drivers/STM32F4xx_HAL_Driver/Src/stm32f4xx_hal_tim_ex.c ****   * @param  Channel TIM Channel to be enabled
 861:Drivers/STM32F4xx_HAL_Driver/Src/stm32f4xx_hal_tim_ex.c ****   *          This parameter can be one of the following values:
 862:Drivers/STM32F4xx_HAL_Driver/Src/stm32f4xx_hal_tim_ex.c ****   *            @arg TIM_CHANNEL_1: TIM Channel 1 selected
 863:Drivers/STM32F4xx_HAL_Driver/Src/stm32f4xx_hal_tim_ex.c ****   *            @arg TIM_CHANNEL_2: TIM Channel 2 selected
 864:Drivers/STM32F4xx_HAL_Driver/Src/stm32f4xx_hal_tim_ex.c ****   *            @arg TIM_CHANNEL_3: TIM Channel 3 selected
 865:Drivers/STM32F4xx_HAL_Driver/Src/stm32f4xx_hal_tim_ex.c ****   * @param  pData The source Buffer address.
 866:Drivers/STM32F4xx_HAL_Driver/Src/stm32f4xx_hal_tim_ex.c ****   * @param  Length The length of data to be transferred from memory to TIM peripheral
 867:Drivers/STM32F4xx_HAL_Driver/Src/stm32f4xx_hal_tim_ex.c ****   * @retval HAL status
 868:Drivers/STM32F4xx_HAL_Driver/Src/stm32f4xx_hal_tim_ex.c ****   */
 869:Drivers/STM32F4xx_HAL_Driver/Src/stm32f4xx_hal_tim_ex.c **** HAL_StatusTypeDef HAL_TIMEx_OCN_Start_DMA(TIM_HandleTypeDef *htim, uint32_t Channel, uint32_t *pDat
 870:Drivers/STM32F4xx_HAL_Driver/Src/stm32f4xx_hal_tim_ex.c **** {
 2219              		.loc 1 870 1
 2220              		.cfi_startproc
 2221              		@ args = 0, pretend = 0, frame = 24
 2222              		@ frame_needed = 1, uses_anonymous_args = 0
 2223 0000 80B5     		push	{r7, lr}
 2224              	.LCFI72:
 2225              		.cfi_def_cfa_offset 8
 2226              		.cfi_offset 7, -8
 2227              		.cfi_offset 14, -4
 2228 0002 86B0     		sub	sp, sp, #24
 2229              	.LCFI73:
 2230              		.cfi_def_cfa_offset 32
ARM GAS  C:\Users\DAELT-~1\AppData\Local\Temp\cc2rhEX6.s 			page 55


 2231 0004 00AF     		add	r7, sp, #0
 2232              	.LCFI74:
 2233              		.cfi_def_cfa_register 7
 2234 0006 F860     		str	r0, [r7, #12]
 2235 0008 B960     		str	r1, [r7, #8]
 2236 000a 7A60     		str	r2, [r7, #4]
 2237 000c 7B80     		strh	r3, [r7, #2]	@ movhi
 871:Drivers/STM32F4xx_HAL_Driver/Src/stm32f4xx_hal_tim_ex.c ****   HAL_StatusTypeDef status = HAL_OK;
 2238              		.loc 1 871 21
 2239 000e 0023     		movs	r3, #0
 2240 0010 FB75     		strb	r3, [r7, #23]
 872:Drivers/STM32F4xx_HAL_Driver/Src/stm32f4xx_hal_tim_ex.c ****   uint32_t tmpsmcr;
 873:Drivers/STM32F4xx_HAL_Driver/Src/stm32f4xx_hal_tim_ex.c **** 
 874:Drivers/STM32F4xx_HAL_Driver/Src/stm32f4xx_hal_tim_ex.c ****   /* Check the parameters */
 875:Drivers/STM32F4xx_HAL_Driver/Src/stm32f4xx_hal_tim_ex.c ****   assert_param(IS_TIM_CCXN_INSTANCE(htim->Instance, Channel));
 876:Drivers/STM32F4xx_HAL_Driver/Src/stm32f4xx_hal_tim_ex.c **** 
 877:Drivers/STM32F4xx_HAL_Driver/Src/stm32f4xx_hal_tim_ex.c ****   /* Set the TIM complementary channel state */
 878:Drivers/STM32F4xx_HAL_Driver/Src/stm32f4xx_hal_tim_ex.c ****   if (TIM_CHANNEL_N_STATE_GET(htim, Channel) == HAL_TIM_CHANNEL_STATE_BUSY)
 2241              		.loc 1 878 46
 2242 0012 BB68     		ldr	r3, [r7, #8]
 2243 0014 002B     		cmp	r3, #0
 2244 0016 09D1     		bne	.L129
 2245              		.loc 1 878 7 discriminator 1
 2246 0018 FB68     		ldr	r3, [r7, #12]
 2247 001a 93F84230 		ldrb	r3, [r3, #66]
 2248 001e DBB2     		uxtb	r3, r3
 2249              		.loc 1 878 46 discriminator 1
 2250 0020 022B     		cmp	r3, #2
 2251 0022 0CBF     		ite	eq
 2252 0024 0123     		moveq	r3, #1
 2253 0026 0023     		movne	r3, #0
 2254 0028 DBB2     		uxtb	r3, r3
 2255 002a 22E0     		b	.L130
 2256              	.L129:
 2257              		.loc 1 878 46 is_stmt 0 discriminator 2
 2258 002c BB68     		ldr	r3, [r7, #8]
 2259 002e 042B     		cmp	r3, #4
 2260 0030 09D1     		bne	.L131
 2261              		.loc 1 878 7 is_stmt 1 discriminator 4
 2262 0032 FB68     		ldr	r3, [r7, #12]
 2263 0034 93F84330 		ldrb	r3, [r3, #67]
 2264 0038 DBB2     		uxtb	r3, r3
 2265              		.loc 1 878 46 discriminator 4
 2266 003a 022B     		cmp	r3, #2
 2267 003c 0CBF     		ite	eq
 2268 003e 0123     		moveq	r3, #1
 2269 0040 0023     		movne	r3, #0
 2270 0042 DBB2     		uxtb	r3, r3
 2271 0044 15E0     		b	.L130
 2272              	.L131:
 2273              		.loc 1 878 46 is_stmt 0 discriminator 5
 2274 0046 BB68     		ldr	r3, [r7, #8]
 2275 0048 082B     		cmp	r3, #8
 2276 004a 09D1     		bne	.L133
 2277              		.loc 1 878 7 is_stmt 1 discriminator 7
 2278 004c FB68     		ldr	r3, [r7, #12]
 2279 004e 93F84430 		ldrb	r3, [r3, #68]
ARM GAS  C:\Users\DAELT-~1\AppData\Local\Temp\cc2rhEX6.s 			page 56


 2280 0052 DBB2     		uxtb	r3, r3
 2281              		.loc 1 878 46 discriminator 7
 2282 0054 022B     		cmp	r3, #2
 2283 0056 0CBF     		ite	eq
 2284 0058 0123     		moveq	r3, #1
 2285 005a 0023     		movne	r3, #0
 2286 005c DBB2     		uxtb	r3, r3
 2287 005e 08E0     		b	.L130
 2288              	.L133:
 2289              		.loc 1 878 7 discriminator 8
 2290 0060 FB68     		ldr	r3, [r7, #12]
 2291 0062 93F84530 		ldrb	r3, [r3, #69]
 2292 0066 DBB2     		uxtb	r3, r3
 2293              		.loc 1 878 46 discriminator 8
 2294 0068 022B     		cmp	r3, #2
 2295 006a 0CBF     		ite	eq
 2296 006c 0123     		moveq	r3, #1
 2297 006e 0023     		movne	r3, #0
 2298 0070 DBB2     		uxtb	r3, r3
 2299              	.L130:
 2300              		.loc 1 878 6 discriminator 12
 2301 0072 002B     		cmp	r3, #0
 2302 0074 01D0     		beq	.L135
 879:Drivers/STM32F4xx_HAL_Driver/Src/stm32f4xx_hal_tim_ex.c ****   {
 880:Drivers/STM32F4xx_HAL_Driver/Src/stm32f4xx_hal_tim_ex.c ****     return HAL_BUSY;
 2303              		.loc 1 880 12
 2304 0076 0223     		movs	r3, #2
 2305 0078 1FE1     		b	.L136
 2306              	.L135:
 881:Drivers/STM32F4xx_HAL_Driver/Src/stm32f4xx_hal_tim_ex.c ****   }
 882:Drivers/STM32F4xx_HAL_Driver/Src/stm32f4xx_hal_tim_ex.c ****   else if (TIM_CHANNEL_N_STATE_GET(htim, Channel) == HAL_TIM_CHANNEL_STATE_READY)
 2307              		.loc 1 882 51
 2308 007a BB68     		ldr	r3, [r7, #8]
 2309 007c 002B     		cmp	r3, #0
 2310 007e 09D1     		bne	.L137
 2311              		.loc 1 882 12 discriminator 1
 2312 0080 FB68     		ldr	r3, [r7, #12]
 2313 0082 93F84230 		ldrb	r3, [r3, #66]
 2314 0086 DBB2     		uxtb	r3, r3
 2315              		.loc 1 882 51 discriminator 1
 2316 0088 012B     		cmp	r3, #1
 2317 008a 0CBF     		ite	eq
 2318 008c 0123     		moveq	r3, #1
 2319 008e 0023     		movne	r3, #0
 2320 0090 DBB2     		uxtb	r3, r3
 2321 0092 22E0     		b	.L138
 2322              	.L137:
 2323              		.loc 1 882 51 is_stmt 0 discriminator 2
 2324 0094 BB68     		ldr	r3, [r7, #8]
 2325 0096 042B     		cmp	r3, #4
 2326 0098 09D1     		bne	.L139
 2327              		.loc 1 882 12 is_stmt 1 discriminator 4
 2328 009a FB68     		ldr	r3, [r7, #12]
 2329 009c 93F84330 		ldrb	r3, [r3, #67]
 2330 00a0 DBB2     		uxtb	r3, r3
 2331              		.loc 1 882 51 discriminator 4
 2332 00a2 012B     		cmp	r3, #1
ARM GAS  C:\Users\DAELT-~1\AppData\Local\Temp\cc2rhEX6.s 			page 57


 2333 00a4 0CBF     		ite	eq
 2334 00a6 0123     		moveq	r3, #1
 2335 00a8 0023     		movne	r3, #0
 2336 00aa DBB2     		uxtb	r3, r3
 2337 00ac 15E0     		b	.L138
 2338              	.L139:
 2339              		.loc 1 882 51 is_stmt 0 discriminator 5
 2340 00ae BB68     		ldr	r3, [r7, #8]
 2341 00b0 082B     		cmp	r3, #8
 2342 00b2 09D1     		bne	.L141
 2343              		.loc 1 882 12 is_stmt 1 discriminator 7
 2344 00b4 FB68     		ldr	r3, [r7, #12]
 2345 00b6 93F84430 		ldrb	r3, [r3, #68]
 2346 00ba DBB2     		uxtb	r3, r3
 2347              		.loc 1 882 51 discriminator 7
 2348 00bc 012B     		cmp	r3, #1
 2349 00be 0CBF     		ite	eq
 2350 00c0 0123     		moveq	r3, #1
 2351 00c2 0023     		movne	r3, #0
 2352 00c4 DBB2     		uxtb	r3, r3
 2353 00c6 08E0     		b	.L138
 2354              	.L141:
 2355              		.loc 1 882 12 discriminator 8
 2356 00c8 FB68     		ldr	r3, [r7, #12]
 2357 00ca 93F84530 		ldrb	r3, [r3, #69]
 2358 00ce DBB2     		uxtb	r3, r3
 2359              		.loc 1 882 51 discriminator 8
 2360 00d0 012B     		cmp	r3, #1
 2361 00d2 0CBF     		ite	eq
 2362 00d4 0123     		moveq	r3, #1
 2363 00d6 0023     		movne	r3, #0
 2364 00d8 DBB2     		uxtb	r3, r3
 2365              	.L138:
 2366              		.loc 1 882 11 discriminator 12
 2367 00da 002B     		cmp	r3, #0
 2368 00dc 24D0     		beq	.L143
 883:Drivers/STM32F4xx_HAL_Driver/Src/stm32f4xx_hal_tim_ex.c ****   {
 884:Drivers/STM32F4xx_HAL_Driver/Src/stm32f4xx_hal_tim_ex.c ****     if ((pData == NULL) && (Length > 0U))
 2369              		.loc 1 884 8
 2370 00de 7B68     		ldr	r3, [r7, #4]
 2371 00e0 002B     		cmp	r3, #0
 2372 00e2 04D1     		bne	.L144
 2373              		.loc 1 884 25 discriminator 1
 2374 00e4 7B88     		ldrh	r3, [r7, #2]
 2375 00e6 002B     		cmp	r3, #0
 2376 00e8 01D0     		beq	.L144
 885:Drivers/STM32F4xx_HAL_Driver/Src/stm32f4xx_hal_tim_ex.c ****     {
 886:Drivers/STM32F4xx_HAL_Driver/Src/stm32f4xx_hal_tim_ex.c ****       return HAL_ERROR;
 2377              		.loc 1 886 14
 2378 00ea 0123     		movs	r3, #1
 2379 00ec E5E0     		b	.L136
 2380              	.L144:
 887:Drivers/STM32F4xx_HAL_Driver/Src/stm32f4xx_hal_tim_ex.c ****     }
 888:Drivers/STM32F4xx_HAL_Driver/Src/stm32f4xx_hal_tim_ex.c ****     else
 889:Drivers/STM32F4xx_HAL_Driver/Src/stm32f4xx_hal_tim_ex.c ****     {
 890:Drivers/STM32F4xx_HAL_Driver/Src/stm32f4xx_hal_tim_ex.c ****       TIM_CHANNEL_N_STATE_SET(htim, Channel, HAL_TIM_CHANNEL_STATE_BUSY);
 2381              		.loc 1 890 7
ARM GAS  C:\Users\DAELT-~1\AppData\Local\Temp\cc2rhEX6.s 			page 58


 2382 00ee BB68     		ldr	r3, [r7, #8]
 2383 00f0 002B     		cmp	r3, #0
 2384 00f2 04D1     		bne	.L145
 2385              		.loc 1 890 7 is_stmt 0 discriminator 1
 2386 00f4 FB68     		ldr	r3, [r7, #12]
 2387 00f6 0222     		movs	r2, #2
 2388 00f8 83F84220 		strb	r2, [r3, #66]
 2389 00fc 16E0     		b	.L146
 2390              	.L145:
 2391              		.loc 1 890 7 discriminator 2
 2392 00fe BB68     		ldr	r3, [r7, #8]
 2393 0100 042B     		cmp	r3, #4
 2394 0102 04D1     		bne	.L147
 2395              		.loc 1 890 7 discriminator 3
 2396 0104 FB68     		ldr	r3, [r7, #12]
 2397 0106 0222     		movs	r2, #2
 2398 0108 83F84320 		strb	r2, [r3, #67]
 2399              		.loc 1 890 7 discriminator 10
 2400 010c 0EE0     		b	.L146
 2401              	.L147:
 2402              		.loc 1 890 7 discriminator 4
 2403 010e BB68     		ldr	r3, [r7, #8]
 2404 0110 082B     		cmp	r3, #8
 2405 0112 04D1     		bne	.L149
 2406              		.loc 1 890 7 discriminator 6
 2407 0114 FB68     		ldr	r3, [r7, #12]
 2408 0116 0222     		movs	r2, #2
 2409 0118 83F84420 		strb	r2, [r3, #68]
 2410              		.loc 1 890 7 discriminator 10
 2411 011c 06E0     		b	.L146
 2412              	.L149:
 2413              		.loc 1 890 7 discriminator 7
 2414 011e FB68     		ldr	r3, [r7, #12]
 2415 0120 0222     		movs	r2, #2
 2416 0122 83F84520 		strb	r2, [r3, #69]
 2417 0126 01E0     		b	.L146
 2418              	.L143:
 891:Drivers/STM32F4xx_HAL_Driver/Src/stm32f4xx_hal_tim_ex.c ****     }
 892:Drivers/STM32F4xx_HAL_Driver/Src/stm32f4xx_hal_tim_ex.c ****   }
 893:Drivers/STM32F4xx_HAL_Driver/Src/stm32f4xx_hal_tim_ex.c ****   else
 894:Drivers/STM32F4xx_HAL_Driver/Src/stm32f4xx_hal_tim_ex.c ****   {
 895:Drivers/STM32F4xx_HAL_Driver/Src/stm32f4xx_hal_tim_ex.c ****     return HAL_ERROR;
 2419              		.loc 1 895 12 is_stmt 1
 2420 0128 0123     		movs	r3, #1
 2421 012a C6E0     		b	.L136
 2422              	.L146:
 896:Drivers/STM32F4xx_HAL_Driver/Src/stm32f4xx_hal_tim_ex.c ****   }
 897:Drivers/STM32F4xx_HAL_Driver/Src/stm32f4xx_hal_tim_ex.c **** 
 898:Drivers/STM32F4xx_HAL_Driver/Src/stm32f4xx_hal_tim_ex.c ****   switch (Channel)
 2423              		.loc 1 898 3
 2424 012c BB68     		ldr	r3, [r7, #8]
 2425 012e 082B     		cmp	r3, #8
 2426 0130 51D0     		beq	.L151
 2427 0132 BB68     		ldr	r3, [r7, #8]
 2428 0134 082B     		cmp	r3, #8
 2429 0136 72D8     		bhi	.L152
 2430 0138 BB68     		ldr	r3, [r7, #8]
ARM GAS  C:\Users\DAELT-~1\AppData\Local\Temp\cc2rhEX6.s 			page 59


 2431 013a 002B     		cmp	r3, #0
 2432 013c 03D0     		beq	.L153
 2433 013e BB68     		ldr	r3, [r7, #8]
 2434 0140 042B     		cmp	r3, #4
 2435 0142 24D0     		beq	.L154
 2436 0144 6BE0     		b	.L152
 2437              	.L153:
 899:Drivers/STM32F4xx_HAL_Driver/Src/stm32f4xx_hal_tim_ex.c ****   {
 900:Drivers/STM32F4xx_HAL_Driver/Src/stm32f4xx_hal_tim_ex.c ****     case TIM_CHANNEL_1:
 901:Drivers/STM32F4xx_HAL_Driver/Src/stm32f4xx_hal_tim_ex.c ****     {
 902:Drivers/STM32F4xx_HAL_Driver/Src/stm32f4xx_hal_tim_ex.c ****       /* Set the DMA compare callbacks */
 903:Drivers/STM32F4xx_HAL_Driver/Src/stm32f4xx_hal_tim_ex.c ****       htim->hdma[TIM_DMA_ID_CC1]->XferCpltCallback = TIM_DMADelayPulseNCplt;
 2438              		.loc 1 903 17
 2439 0146 FB68     		ldr	r3, [r7, #12]
 2440 0148 5B6A     		ldr	r3, [r3, #36]
 2441              		.loc 1 903 52
 2442 014a 5E4A     		ldr	r2, .L163
 2443 014c DA63     		str	r2, [r3, #60]
 904:Drivers/STM32F4xx_HAL_Driver/Src/stm32f4xx_hal_tim_ex.c ****       htim->hdma[TIM_DMA_ID_CC1]->XferHalfCpltCallback = TIM_DMADelayPulseHalfCplt;
 2444              		.loc 1 904 17
 2445 014e FB68     		ldr	r3, [r7, #12]
 2446 0150 5B6A     		ldr	r3, [r3, #36]
 2447              		.loc 1 904 56
 2448 0152 5D4A     		ldr	r2, .L163+4
 2449 0154 1A64     		str	r2, [r3, #64]
 905:Drivers/STM32F4xx_HAL_Driver/Src/stm32f4xx_hal_tim_ex.c **** 
 906:Drivers/STM32F4xx_HAL_Driver/Src/stm32f4xx_hal_tim_ex.c ****       /* Set the DMA error callback */
 907:Drivers/STM32F4xx_HAL_Driver/Src/stm32f4xx_hal_tim_ex.c ****       htim->hdma[TIM_DMA_ID_CC1]->XferErrorCallback = TIM_DMAErrorCCxN ;
 2450              		.loc 1 907 17
 2451 0156 FB68     		ldr	r3, [r7, #12]
 2452 0158 5B6A     		ldr	r3, [r3, #36]
 2453              		.loc 1 907 53
 2454 015a 5C4A     		ldr	r2, .L163+8
 2455 015c DA64     		str	r2, [r3, #76]
 908:Drivers/STM32F4xx_HAL_Driver/Src/stm32f4xx_hal_tim_ex.c **** 
 909:Drivers/STM32F4xx_HAL_Driver/Src/stm32f4xx_hal_tim_ex.c ****       /* Enable the DMA stream */
 910:Drivers/STM32F4xx_HAL_Driver/Src/stm32f4xx_hal_tim_ex.c ****       if (HAL_DMA_Start_IT(htim->hdma[TIM_DMA_ID_CC1], (uint32_t)pData, (uint32_t)&htim->Instance->
 2456              		.loc 1 910 11
 2457 015e FB68     		ldr	r3, [r7, #12]
 2458 0160 586A     		ldr	r0, [r3, #36]
 2459 0162 7968     		ldr	r1, [r7, #4]
 2460              		.loc 1 910 88
 2461 0164 FB68     		ldr	r3, [r7, #12]
 2462 0166 1B68     		ldr	r3, [r3]
 2463              		.loc 1 910 83
 2464 0168 3433     		adds	r3, r3, #52
 2465              		.loc 1 910 11
 2466 016a 1A46     		mov	r2, r3
 2467 016c 7B88     		ldrh	r3, [r7, #2]
 2468 016e FFF7FEFF 		bl	HAL_DMA_Start_IT
 2469 0172 0346     		mov	r3, r0
 2470              		.loc 1 910 10 discriminator 1
 2471 0174 002B     		cmp	r3, #0
 2472 0176 01D0     		beq	.L155
 911:Drivers/STM32F4xx_HAL_Driver/Src/stm32f4xx_hal_tim_ex.c ****                            Length) != HAL_OK)
 912:Drivers/STM32F4xx_HAL_Driver/Src/stm32f4xx_hal_tim_ex.c ****       {
 913:Drivers/STM32F4xx_HAL_Driver/Src/stm32f4xx_hal_tim_ex.c ****         /* Return error status */
ARM GAS  C:\Users\DAELT-~1\AppData\Local\Temp\cc2rhEX6.s 			page 60


 914:Drivers/STM32F4xx_HAL_Driver/Src/stm32f4xx_hal_tim_ex.c ****         return HAL_ERROR;
 2473              		.loc 1 914 16
 2474 0178 0123     		movs	r3, #1
 2475 017a 9EE0     		b	.L136
 2476              	.L155:
 915:Drivers/STM32F4xx_HAL_Driver/Src/stm32f4xx_hal_tim_ex.c ****       }
 916:Drivers/STM32F4xx_HAL_Driver/Src/stm32f4xx_hal_tim_ex.c ****       /* Enable the TIM Output Compare DMA request */
 917:Drivers/STM32F4xx_HAL_Driver/Src/stm32f4xx_hal_tim_ex.c ****       __HAL_TIM_ENABLE_DMA(htim, TIM_DMA_CC1);
 2477              		.loc 1 917 7
 2478 017c FB68     		ldr	r3, [r7, #12]
 2479 017e 1B68     		ldr	r3, [r3]
 2480 0180 DA68     		ldr	r2, [r3, #12]
 2481 0182 FB68     		ldr	r3, [r7, #12]
 2482 0184 1B68     		ldr	r3, [r3]
 2483 0186 42F40072 		orr	r2, r2, #512
 2484 018a DA60     		str	r2, [r3, #12]
 918:Drivers/STM32F4xx_HAL_Driver/Src/stm32f4xx_hal_tim_ex.c ****       break;
 2485              		.loc 1 918 7
 2486 018c 4AE0     		b	.L156
 2487              	.L154:
 919:Drivers/STM32F4xx_HAL_Driver/Src/stm32f4xx_hal_tim_ex.c ****     }
 920:Drivers/STM32F4xx_HAL_Driver/Src/stm32f4xx_hal_tim_ex.c **** 
 921:Drivers/STM32F4xx_HAL_Driver/Src/stm32f4xx_hal_tim_ex.c ****     case TIM_CHANNEL_2:
 922:Drivers/STM32F4xx_HAL_Driver/Src/stm32f4xx_hal_tim_ex.c ****     {
 923:Drivers/STM32F4xx_HAL_Driver/Src/stm32f4xx_hal_tim_ex.c ****       /* Set the DMA compare callbacks */
 924:Drivers/STM32F4xx_HAL_Driver/Src/stm32f4xx_hal_tim_ex.c ****       htim->hdma[TIM_DMA_ID_CC2]->XferCpltCallback = TIM_DMADelayPulseNCplt;
 2488              		.loc 1 924 17
 2489 018e FB68     		ldr	r3, [r7, #12]
 2490 0190 9B6A     		ldr	r3, [r3, #40]
 2491              		.loc 1 924 52
 2492 0192 4C4A     		ldr	r2, .L163
 2493 0194 DA63     		str	r2, [r3, #60]
 925:Drivers/STM32F4xx_HAL_Driver/Src/stm32f4xx_hal_tim_ex.c ****       htim->hdma[TIM_DMA_ID_CC2]->XferHalfCpltCallback = TIM_DMADelayPulseHalfCplt;
 2494              		.loc 1 925 17
 2495 0196 FB68     		ldr	r3, [r7, #12]
 2496 0198 9B6A     		ldr	r3, [r3, #40]
 2497              		.loc 1 925 56
 2498 019a 4B4A     		ldr	r2, .L163+4
 2499 019c 1A64     		str	r2, [r3, #64]
 926:Drivers/STM32F4xx_HAL_Driver/Src/stm32f4xx_hal_tim_ex.c **** 
 927:Drivers/STM32F4xx_HAL_Driver/Src/stm32f4xx_hal_tim_ex.c ****       /* Set the DMA error callback */
 928:Drivers/STM32F4xx_HAL_Driver/Src/stm32f4xx_hal_tim_ex.c ****       htim->hdma[TIM_DMA_ID_CC2]->XferErrorCallback = TIM_DMAErrorCCxN ;
 2500              		.loc 1 928 17
 2501 019e FB68     		ldr	r3, [r7, #12]
 2502 01a0 9B6A     		ldr	r3, [r3, #40]
 2503              		.loc 1 928 53
 2504 01a2 4A4A     		ldr	r2, .L163+8
 2505 01a4 DA64     		str	r2, [r3, #76]
 929:Drivers/STM32F4xx_HAL_Driver/Src/stm32f4xx_hal_tim_ex.c **** 
 930:Drivers/STM32F4xx_HAL_Driver/Src/stm32f4xx_hal_tim_ex.c ****       /* Enable the DMA stream */
 931:Drivers/STM32F4xx_HAL_Driver/Src/stm32f4xx_hal_tim_ex.c ****       if (HAL_DMA_Start_IT(htim->hdma[TIM_DMA_ID_CC2], (uint32_t)pData, (uint32_t)&htim->Instance->
 2506              		.loc 1 931 11
 2507 01a6 FB68     		ldr	r3, [r7, #12]
 2508 01a8 986A     		ldr	r0, [r3, #40]
 2509 01aa 7968     		ldr	r1, [r7, #4]
 2510              		.loc 1 931 88
 2511 01ac FB68     		ldr	r3, [r7, #12]
ARM GAS  C:\Users\DAELT-~1\AppData\Local\Temp\cc2rhEX6.s 			page 61


 2512 01ae 1B68     		ldr	r3, [r3]
 2513              		.loc 1 931 83
 2514 01b0 3833     		adds	r3, r3, #56
 2515              		.loc 1 931 11
 2516 01b2 1A46     		mov	r2, r3
 2517 01b4 7B88     		ldrh	r3, [r7, #2]
 2518 01b6 FFF7FEFF 		bl	HAL_DMA_Start_IT
 2519 01ba 0346     		mov	r3, r0
 2520              		.loc 1 931 10 discriminator 1
 2521 01bc 002B     		cmp	r3, #0
 2522 01be 01D0     		beq	.L157
 932:Drivers/STM32F4xx_HAL_Driver/Src/stm32f4xx_hal_tim_ex.c ****                            Length) != HAL_OK)
 933:Drivers/STM32F4xx_HAL_Driver/Src/stm32f4xx_hal_tim_ex.c ****       {
 934:Drivers/STM32F4xx_HAL_Driver/Src/stm32f4xx_hal_tim_ex.c ****         /* Return error status */
 935:Drivers/STM32F4xx_HAL_Driver/Src/stm32f4xx_hal_tim_ex.c ****         return HAL_ERROR;
 2523              		.loc 1 935 16
 2524 01c0 0123     		movs	r3, #1
 2525 01c2 7AE0     		b	.L136
 2526              	.L157:
 936:Drivers/STM32F4xx_HAL_Driver/Src/stm32f4xx_hal_tim_ex.c ****       }
 937:Drivers/STM32F4xx_HAL_Driver/Src/stm32f4xx_hal_tim_ex.c ****       /* Enable the TIM Output Compare DMA request */
 938:Drivers/STM32F4xx_HAL_Driver/Src/stm32f4xx_hal_tim_ex.c ****       __HAL_TIM_ENABLE_DMA(htim, TIM_DMA_CC2);
 2527              		.loc 1 938 7
 2528 01c4 FB68     		ldr	r3, [r7, #12]
 2529 01c6 1B68     		ldr	r3, [r3]
 2530 01c8 DA68     		ldr	r2, [r3, #12]
 2531 01ca FB68     		ldr	r3, [r7, #12]
 2532 01cc 1B68     		ldr	r3, [r3]
 2533 01ce 42F48062 		orr	r2, r2, #1024
 2534 01d2 DA60     		str	r2, [r3, #12]
 939:Drivers/STM32F4xx_HAL_Driver/Src/stm32f4xx_hal_tim_ex.c ****       break;
 2535              		.loc 1 939 7
 2536 01d4 26E0     		b	.L156
 2537              	.L151:
 940:Drivers/STM32F4xx_HAL_Driver/Src/stm32f4xx_hal_tim_ex.c ****     }
 941:Drivers/STM32F4xx_HAL_Driver/Src/stm32f4xx_hal_tim_ex.c **** 
 942:Drivers/STM32F4xx_HAL_Driver/Src/stm32f4xx_hal_tim_ex.c ****     case TIM_CHANNEL_3:
 943:Drivers/STM32F4xx_HAL_Driver/Src/stm32f4xx_hal_tim_ex.c ****     {
 944:Drivers/STM32F4xx_HAL_Driver/Src/stm32f4xx_hal_tim_ex.c ****       /* Set the DMA compare callbacks */
 945:Drivers/STM32F4xx_HAL_Driver/Src/stm32f4xx_hal_tim_ex.c ****       htim->hdma[TIM_DMA_ID_CC3]->XferCpltCallback = TIM_DMADelayPulseNCplt;
 2538              		.loc 1 945 17
 2539 01d6 FB68     		ldr	r3, [r7, #12]
 2540 01d8 DB6A     		ldr	r3, [r3, #44]
 2541              		.loc 1 945 52
 2542 01da 3A4A     		ldr	r2, .L163
 2543 01dc DA63     		str	r2, [r3, #60]
 946:Drivers/STM32F4xx_HAL_Driver/Src/stm32f4xx_hal_tim_ex.c ****       htim->hdma[TIM_DMA_ID_CC3]->XferHalfCpltCallback = TIM_DMADelayPulseHalfCplt;
 2544              		.loc 1 946 17
 2545 01de FB68     		ldr	r3, [r7, #12]
 2546 01e0 DB6A     		ldr	r3, [r3, #44]
 2547              		.loc 1 946 56
 2548 01e2 394A     		ldr	r2, .L163+4
 2549 01e4 1A64     		str	r2, [r3, #64]
 947:Drivers/STM32F4xx_HAL_Driver/Src/stm32f4xx_hal_tim_ex.c **** 
 948:Drivers/STM32F4xx_HAL_Driver/Src/stm32f4xx_hal_tim_ex.c ****       /* Set the DMA error callback */
 949:Drivers/STM32F4xx_HAL_Driver/Src/stm32f4xx_hal_tim_ex.c ****       htim->hdma[TIM_DMA_ID_CC3]->XferErrorCallback = TIM_DMAErrorCCxN ;
 2550              		.loc 1 949 17
ARM GAS  C:\Users\DAELT-~1\AppData\Local\Temp\cc2rhEX6.s 			page 62


 2551 01e6 FB68     		ldr	r3, [r7, #12]
 2552 01e8 DB6A     		ldr	r3, [r3, #44]
 2553              		.loc 1 949 53
 2554 01ea 384A     		ldr	r2, .L163+8
 2555 01ec DA64     		str	r2, [r3, #76]
 950:Drivers/STM32F4xx_HAL_Driver/Src/stm32f4xx_hal_tim_ex.c **** 
 951:Drivers/STM32F4xx_HAL_Driver/Src/stm32f4xx_hal_tim_ex.c ****       /* Enable the DMA stream */
 952:Drivers/STM32F4xx_HAL_Driver/Src/stm32f4xx_hal_tim_ex.c ****       if (HAL_DMA_Start_IT(htim->hdma[TIM_DMA_ID_CC3], (uint32_t)pData, (uint32_t)&htim->Instance->
 2556              		.loc 1 952 11
 2557 01ee FB68     		ldr	r3, [r7, #12]
 2558 01f0 D86A     		ldr	r0, [r3, #44]
 2559 01f2 7968     		ldr	r1, [r7, #4]
 2560              		.loc 1 952 88
 2561 01f4 FB68     		ldr	r3, [r7, #12]
 2562 01f6 1B68     		ldr	r3, [r3]
 2563              		.loc 1 952 83
 2564 01f8 3C33     		adds	r3, r3, #60
 2565              		.loc 1 952 11
 2566 01fa 1A46     		mov	r2, r3
 2567 01fc 7B88     		ldrh	r3, [r7, #2]
 2568 01fe FFF7FEFF 		bl	HAL_DMA_Start_IT
 2569 0202 0346     		mov	r3, r0
 2570              		.loc 1 952 10 discriminator 1
 2571 0204 002B     		cmp	r3, #0
 2572 0206 01D0     		beq	.L158
 953:Drivers/STM32F4xx_HAL_Driver/Src/stm32f4xx_hal_tim_ex.c ****                            Length) != HAL_OK)
 954:Drivers/STM32F4xx_HAL_Driver/Src/stm32f4xx_hal_tim_ex.c ****       {
 955:Drivers/STM32F4xx_HAL_Driver/Src/stm32f4xx_hal_tim_ex.c ****         /* Return error status */
 956:Drivers/STM32F4xx_HAL_Driver/Src/stm32f4xx_hal_tim_ex.c ****         return HAL_ERROR;
 2573              		.loc 1 956 16
 2574 0208 0123     		movs	r3, #1
 2575 020a 56E0     		b	.L136
 2576              	.L158:
 957:Drivers/STM32F4xx_HAL_Driver/Src/stm32f4xx_hal_tim_ex.c ****       }
 958:Drivers/STM32F4xx_HAL_Driver/Src/stm32f4xx_hal_tim_ex.c ****       /* Enable the TIM Output Compare DMA request */
 959:Drivers/STM32F4xx_HAL_Driver/Src/stm32f4xx_hal_tim_ex.c ****       __HAL_TIM_ENABLE_DMA(htim, TIM_DMA_CC3);
 2577              		.loc 1 959 7
 2578 020c FB68     		ldr	r3, [r7, #12]
 2579 020e 1B68     		ldr	r3, [r3]
 2580 0210 DA68     		ldr	r2, [r3, #12]
 2581 0212 FB68     		ldr	r3, [r7, #12]
 2582 0214 1B68     		ldr	r3, [r3]
 2583 0216 42F40062 		orr	r2, r2, #2048
 2584 021a DA60     		str	r2, [r3, #12]
 960:Drivers/STM32F4xx_HAL_Driver/Src/stm32f4xx_hal_tim_ex.c ****       break;
 2585              		.loc 1 960 7
 2586 021c 02E0     		b	.L156
 2587              	.L152:
 961:Drivers/STM32F4xx_HAL_Driver/Src/stm32f4xx_hal_tim_ex.c ****     }
 962:Drivers/STM32F4xx_HAL_Driver/Src/stm32f4xx_hal_tim_ex.c **** 
 963:Drivers/STM32F4xx_HAL_Driver/Src/stm32f4xx_hal_tim_ex.c ****     default:
 964:Drivers/STM32F4xx_HAL_Driver/Src/stm32f4xx_hal_tim_ex.c ****       status = HAL_ERROR;
 2588              		.loc 1 964 14
 2589 021e 0123     		movs	r3, #1
 2590 0220 FB75     		strb	r3, [r7, #23]
 965:Drivers/STM32F4xx_HAL_Driver/Src/stm32f4xx_hal_tim_ex.c ****       break;
 2591              		.loc 1 965 7
ARM GAS  C:\Users\DAELT-~1\AppData\Local\Temp\cc2rhEX6.s 			page 63


 2592 0222 00BF     		nop
 2593              	.L156:
 966:Drivers/STM32F4xx_HAL_Driver/Src/stm32f4xx_hal_tim_ex.c ****   }
 967:Drivers/STM32F4xx_HAL_Driver/Src/stm32f4xx_hal_tim_ex.c **** 
 968:Drivers/STM32F4xx_HAL_Driver/Src/stm32f4xx_hal_tim_ex.c ****   if (status == HAL_OK)
 2594              		.loc 1 968 6
 2595 0224 FB7D     		ldrb	r3, [r7, #23]	@ zero_extendqisi2
 2596 0226 002B     		cmp	r3, #0
 2597 0228 46D1     		bne	.L159
 969:Drivers/STM32F4xx_HAL_Driver/Src/stm32f4xx_hal_tim_ex.c ****   {
 970:Drivers/STM32F4xx_HAL_Driver/Src/stm32f4xx_hal_tim_ex.c ****     /* Enable the Capture compare channel N */
 971:Drivers/STM32F4xx_HAL_Driver/Src/stm32f4xx_hal_tim_ex.c ****     TIM_CCxNChannelCmd(htim->Instance, Channel, TIM_CCxN_ENABLE);
 2598              		.loc 1 971 5
 2599 022a FB68     		ldr	r3, [r7, #12]
 2600 022c 1B68     		ldr	r3, [r3]
 2601 022e 0422     		movs	r2, #4
 2602 0230 B968     		ldr	r1, [r7, #8]
 2603 0232 1846     		mov	r0, r3
 2604 0234 FFF7FEFF 		bl	TIM_CCxNChannelCmd
 972:Drivers/STM32F4xx_HAL_Driver/Src/stm32f4xx_hal_tim_ex.c **** 
 973:Drivers/STM32F4xx_HAL_Driver/Src/stm32f4xx_hal_tim_ex.c ****     /* Enable the Main Output */
 974:Drivers/STM32F4xx_HAL_Driver/Src/stm32f4xx_hal_tim_ex.c ****     __HAL_TIM_MOE_ENABLE(htim);
 2605              		.loc 1 974 5
 2606 0238 FB68     		ldr	r3, [r7, #12]
 2607 023a 1B68     		ldr	r3, [r3]
 2608 023c 5A6C     		ldr	r2, [r3, #68]
 2609 023e FB68     		ldr	r3, [r7, #12]
 2610 0240 1B68     		ldr	r3, [r3]
 2611 0242 42F40042 		orr	r2, r2, #32768
 2612 0246 5A64     		str	r2, [r3, #68]
 975:Drivers/STM32F4xx_HAL_Driver/Src/stm32f4xx_hal_tim_ex.c **** 
 976:Drivers/STM32F4xx_HAL_Driver/Src/stm32f4xx_hal_tim_ex.c ****     /* Enable the Peripheral, except in trigger mode where enable is automatically done with trigge
 977:Drivers/STM32F4xx_HAL_Driver/Src/stm32f4xx_hal_tim_ex.c ****     if (IS_TIM_SLAVE_INSTANCE(htim->Instance))
 2613              		.loc 1 977 9
 2614 0248 FB68     		ldr	r3, [r7, #12]
 2615 024a 1B68     		ldr	r3, [r3]
 2616              		.loc 1 977 8
 2617 024c 204A     		ldr	r2, .L163+12
 2618 024e 9342     		cmp	r3, r2
 2619 0250 18D0     		beq	.L160
 2620              		.loc 1 977 9 discriminator 1
 2621 0252 FB68     		ldr	r3, [r7, #12]
 2622 0254 1B68     		ldr	r3, [r3]
 2623 0256 B3F1804F 		cmp	r3, #1073741824
 2624 025a 13D0     		beq	.L160
 2625              		.loc 1 977 9 is_stmt 0 discriminator 2
 2626 025c FB68     		ldr	r3, [r7, #12]
 2627 025e 1B68     		ldr	r3, [r3]
 2628 0260 1C4A     		ldr	r2, .L163+16
 2629 0262 9342     		cmp	r3, r2
 2630 0264 0ED0     		beq	.L160
 2631              		.loc 1 977 9 discriminator 3
 2632 0266 FB68     		ldr	r3, [r7, #12]
 2633 0268 1B68     		ldr	r3, [r3]
 2634 026a 1B4A     		ldr	r2, .L163+20
 2635 026c 9342     		cmp	r3, r2
 2636 026e 09D0     		beq	.L160
ARM GAS  C:\Users\DAELT-~1\AppData\Local\Temp\cc2rhEX6.s 			page 64


 2637              		.loc 1 977 9 discriminator 4
 2638 0270 FB68     		ldr	r3, [r7, #12]
 2639 0272 1B68     		ldr	r3, [r3]
 2640 0274 194A     		ldr	r2, .L163+24
 2641 0276 9342     		cmp	r3, r2
 2642 0278 04D0     		beq	.L160
 2643              		.loc 1 977 9 discriminator 5
 2644 027a FB68     		ldr	r3, [r7, #12]
 2645 027c 1B68     		ldr	r3, [r3]
 2646 027e 184A     		ldr	r2, .L163+28
 2647 0280 9342     		cmp	r3, r2
 2648 0282 11D1     		bne	.L161
 2649              	.L160:
 978:Drivers/STM32F4xx_HAL_Driver/Src/stm32f4xx_hal_tim_ex.c ****     {
 979:Drivers/STM32F4xx_HAL_Driver/Src/stm32f4xx_hal_tim_ex.c ****       tmpsmcr = htim->Instance->SMCR & TIM_SMCR_SMS;
 2650              		.loc 1 979 21 is_stmt 1
 2651 0284 FB68     		ldr	r3, [r7, #12]
 2652 0286 1B68     		ldr	r3, [r3]
 2653              		.loc 1 979 31
 2654 0288 9B68     		ldr	r3, [r3, #8]
 2655              		.loc 1 979 15
 2656 028a 03F00703 		and	r3, r3, #7
 2657 028e 3B61     		str	r3, [r7, #16]
 980:Drivers/STM32F4xx_HAL_Driver/Src/stm32f4xx_hal_tim_ex.c ****       if (!IS_TIM_SLAVEMODE_TRIGGER_ENABLED(tmpsmcr))
 2658              		.loc 1 980 10
 2659 0290 3B69     		ldr	r3, [r7, #16]
 2660 0292 062B     		cmp	r3, #6
 2661 0294 10D0     		beq	.L159
 981:Drivers/STM32F4xx_HAL_Driver/Src/stm32f4xx_hal_tim_ex.c ****       {
 982:Drivers/STM32F4xx_HAL_Driver/Src/stm32f4xx_hal_tim_ex.c ****         __HAL_TIM_ENABLE(htim);
 2662              		.loc 1 982 9
 2663 0296 FB68     		ldr	r3, [r7, #12]
 2664 0298 1B68     		ldr	r3, [r3]
 2665 029a 1A68     		ldr	r2, [r3]
 2666 029c FB68     		ldr	r3, [r7, #12]
 2667 029e 1B68     		ldr	r3, [r3]
 2668 02a0 42F00102 		orr	r2, r2, #1
 2669 02a4 1A60     		str	r2, [r3]
 980:Drivers/STM32F4xx_HAL_Driver/Src/stm32f4xx_hal_tim_ex.c ****       if (!IS_TIM_SLAVEMODE_TRIGGER_ENABLED(tmpsmcr))
 2670              		.loc 1 980 10
 2671 02a6 07E0     		b	.L159
 2672              	.L161:
 983:Drivers/STM32F4xx_HAL_Driver/Src/stm32f4xx_hal_tim_ex.c ****       }
 984:Drivers/STM32F4xx_HAL_Driver/Src/stm32f4xx_hal_tim_ex.c ****     }
 985:Drivers/STM32F4xx_HAL_Driver/Src/stm32f4xx_hal_tim_ex.c ****     else
 986:Drivers/STM32F4xx_HAL_Driver/Src/stm32f4xx_hal_tim_ex.c ****     {
 987:Drivers/STM32F4xx_HAL_Driver/Src/stm32f4xx_hal_tim_ex.c ****       __HAL_TIM_ENABLE(htim);
 2673              		.loc 1 987 7
 2674 02a8 FB68     		ldr	r3, [r7, #12]
 2675 02aa 1B68     		ldr	r3, [r3]
 2676 02ac 1A68     		ldr	r2, [r3]
 2677 02ae FB68     		ldr	r3, [r7, #12]
 2678 02b0 1B68     		ldr	r3, [r3]
 2679 02b2 42F00102 		orr	r2, r2, #1
 2680 02b6 1A60     		str	r2, [r3]
 2681              	.L159:
 988:Drivers/STM32F4xx_HAL_Driver/Src/stm32f4xx_hal_tim_ex.c ****     }
ARM GAS  C:\Users\DAELT-~1\AppData\Local\Temp\cc2rhEX6.s 			page 65


 989:Drivers/STM32F4xx_HAL_Driver/Src/stm32f4xx_hal_tim_ex.c ****   }
 990:Drivers/STM32F4xx_HAL_Driver/Src/stm32f4xx_hal_tim_ex.c **** 
 991:Drivers/STM32F4xx_HAL_Driver/Src/stm32f4xx_hal_tim_ex.c ****   /* Return function status */
 992:Drivers/STM32F4xx_HAL_Driver/Src/stm32f4xx_hal_tim_ex.c ****   return status;
 2682              		.loc 1 992 10
 2683 02b8 FB7D     		ldrb	r3, [r7, #23]	@ zero_extendqisi2
 2684              	.L136:
 993:Drivers/STM32F4xx_HAL_Driver/Src/stm32f4xx_hal_tim_ex.c **** }
 2685              		.loc 1 993 1
 2686 02ba 1846     		mov	r0, r3
 2687 02bc 1837     		adds	r7, r7, #24
 2688              	.LCFI75:
 2689              		.cfi_def_cfa_offset 8
 2690 02be BD46     		mov	sp, r7
 2691              	.LCFI76:
 2692              		.cfi_def_cfa_register 13
 2693              		@ sp needed
 2694 02c0 80BD     		pop	{r7, pc}
 2695              	.L164:
 2696 02c2 00BF     		.align	2
 2697              	.L163:
 2698 02c4 00000000 		.word	TIM_DMADelayPulseNCplt
 2699 02c8 00000000 		.word	TIM_DMADelayPulseHalfCplt
 2700 02cc 00000000 		.word	TIM_DMAErrorCCxN
 2701 02d0 00000140 		.word	1073807360
 2702 02d4 00040040 		.word	1073742848
 2703 02d8 00080040 		.word	1073743872
 2704 02dc 000C0040 		.word	1073744896
 2705 02e0 00400140 		.word	1073823744
 2706              		.cfi_endproc
 2707              	.LFE144:
 2709              		.section	.text.HAL_TIMEx_OCN_Stop_DMA,"ax",%progbits
 2710              		.align	1
 2711              		.global	HAL_TIMEx_OCN_Stop_DMA
 2712              		.syntax unified
 2713              		.thumb
 2714              		.thumb_func
 2716              	HAL_TIMEx_OCN_Stop_DMA:
 2717              	.LFB145:
 994:Drivers/STM32F4xx_HAL_Driver/Src/stm32f4xx_hal_tim_ex.c **** 
 995:Drivers/STM32F4xx_HAL_Driver/Src/stm32f4xx_hal_tim_ex.c **** /**
 996:Drivers/STM32F4xx_HAL_Driver/Src/stm32f4xx_hal_tim_ex.c ****   * @brief  Stops the TIM Output Compare signal generation in DMA mode
 997:Drivers/STM32F4xx_HAL_Driver/Src/stm32f4xx_hal_tim_ex.c ****   *         on the complementary output.
 998:Drivers/STM32F4xx_HAL_Driver/Src/stm32f4xx_hal_tim_ex.c ****   * @param  htim TIM Output Compare handle
 999:Drivers/STM32F4xx_HAL_Driver/Src/stm32f4xx_hal_tim_ex.c ****   * @param  Channel TIM Channel to be disabled
1000:Drivers/STM32F4xx_HAL_Driver/Src/stm32f4xx_hal_tim_ex.c ****   *          This parameter can be one of the following values:
1001:Drivers/STM32F4xx_HAL_Driver/Src/stm32f4xx_hal_tim_ex.c ****   *            @arg TIM_CHANNEL_1: TIM Channel 1 selected
1002:Drivers/STM32F4xx_HAL_Driver/Src/stm32f4xx_hal_tim_ex.c ****   *            @arg TIM_CHANNEL_2: TIM Channel 2 selected
1003:Drivers/STM32F4xx_HAL_Driver/Src/stm32f4xx_hal_tim_ex.c ****   *            @arg TIM_CHANNEL_3: TIM Channel 3 selected
1004:Drivers/STM32F4xx_HAL_Driver/Src/stm32f4xx_hal_tim_ex.c ****   * @retval HAL status
1005:Drivers/STM32F4xx_HAL_Driver/Src/stm32f4xx_hal_tim_ex.c ****   */
1006:Drivers/STM32F4xx_HAL_Driver/Src/stm32f4xx_hal_tim_ex.c **** HAL_StatusTypeDef HAL_TIMEx_OCN_Stop_DMA(TIM_HandleTypeDef *htim, uint32_t Channel)
1007:Drivers/STM32F4xx_HAL_Driver/Src/stm32f4xx_hal_tim_ex.c **** {
 2718              		.loc 1 1007 1
 2719              		.cfi_startproc
 2720              		@ args = 0, pretend = 0, frame = 16
 2721              		@ frame_needed = 1, uses_anonymous_args = 0
ARM GAS  C:\Users\DAELT-~1\AppData\Local\Temp\cc2rhEX6.s 			page 66


 2722 0000 80B5     		push	{r7, lr}
 2723              	.LCFI77:
 2724              		.cfi_def_cfa_offset 8
 2725              		.cfi_offset 7, -8
 2726              		.cfi_offset 14, -4
 2727 0002 84B0     		sub	sp, sp, #16
 2728              	.LCFI78:
 2729              		.cfi_def_cfa_offset 24
 2730 0004 00AF     		add	r7, sp, #0
 2731              	.LCFI79:
 2732              		.cfi_def_cfa_register 7
 2733 0006 7860     		str	r0, [r7, #4]
 2734 0008 3960     		str	r1, [r7]
1008:Drivers/STM32F4xx_HAL_Driver/Src/stm32f4xx_hal_tim_ex.c ****   HAL_StatusTypeDef status = HAL_OK;
 2735              		.loc 1 1008 21
 2736 000a 0023     		movs	r3, #0
 2737 000c FB73     		strb	r3, [r7, #15]
1009:Drivers/STM32F4xx_HAL_Driver/Src/stm32f4xx_hal_tim_ex.c **** 
1010:Drivers/STM32F4xx_HAL_Driver/Src/stm32f4xx_hal_tim_ex.c ****   /* Check the parameters */
1011:Drivers/STM32F4xx_HAL_Driver/Src/stm32f4xx_hal_tim_ex.c ****   assert_param(IS_TIM_CCXN_INSTANCE(htim->Instance, Channel));
1012:Drivers/STM32F4xx_HAL_Driver/Src/stm32f4xx_hal_tim_ex.c **** 
1013:Drivers/STM32F4xx_HAL_Driver/Src/stm32f4xx_hal_tim_ex.c ****   switch (Channel)
 2738              		.loc 1 1013 3
 2739 000e 3B68     		ldr	r3, [r7]
 2740 0010 082B     		cmp	r3, #8
 2741 0012 25D0     		beq	.L166
 2742 0014 3B68     		ldr	r3, [r7]
 2743 0016 082B     		cmp	r3, #8
 2744 0018 30D8     		bhi	.L167
 2745 001a 3B68     		ldr	r3, [r7]
 2746 001c 002B     		cmp	r3, #0
 2747 001e 03D0     		beq	.L168
 2748 0020 3B68     		ldr	r3, [r7]
 2749 0022 042B     		cmp	r3, #4
 2750 0024 0ED0     		beq	.L169
 2751 0026 29E0     		b	.L167
 2752              	.L168:
1014:Drivers/STM32F4xx_HAL_Driver/Src/stm32f4xx_hal_tim_ex.c ****   {
1015:Drivers/STM32F4xx_HAL_Driver/Src/stm32f4xx_hal_tim_ex.c ****     case TIM_CHANNEL_1:
1016:Drivers/STM32F4xx_HAL_Driver/Src/stm32f4xx_hal_tim_ex.c ****     {
1017:Drivers/STM32F4xx_HAL_Driver/Src/stm32f4xx_hal_tim_ex.c ****       /* Disable the TIM Output Compare DMA request */
1018:Drivers/STM32F4xx_HAL_Driver/Src/stm32f4xx_hal_tim_ex.c ****       __HAL_TIM_DISABLE_DMA(htim, TIM_DMA_CC1);
 2753              		.loc 1 1018 7
 2754 0028 7B68     		ldr	r3, [r7, #4]
 2755 002a 1B68     		ldr	r3, [r3]
 2756 002c DA68     		ldr	r2, [r3, #12]
 2757 002e 7B68     		ldr	r3, [r7, #4]
 2758 0030 1B68     		ldr	r3, [r3]
 2759 0032 22F40072 		bic	r2, r2, #512
 2760 0036 DA60     		str	r2, [r3, #12]
1019:Drivers/STM32F4xx_HAL_Driver/Src/stm32f4xx_hal_tim_ex.c ****       (void)HAL_DMA_Abort_IT(htim->hdma[TIM_DMA_ID_CC1]);
 2761              		.loc 1 1019 13
 2762 0038 7B68     		ldr	r3, [r7, #4]
 2763 003a 5B6A     		ldr	r3, [r3, #36]
 2764 003c 1846     		mov	r0, r3
 2765 003e FFF7FEFF 		bl	HAL_DMA_Abort_IT
1020:Drivers/STM32F4xx_HAL_Driver/Src/stm32f4xx_hal_tim_ex.c ****       break;
ARM GAS  C:\Users\DAELT-~1\AppData\Local\Temp\cc2rhEX6.s 			page 67


 2766              		.loc 1 1020 7
 2767 0042 1EE0     		b	.L170
 2768              	.L169:
1021:Drivers/STM32F4xx_HAL_Driver/Src/stm32f4xx_hal_tim_ex.c ****     }
1022:Drivers/STM32F4xx_HAL_Driver/Src/stm32f4xx_hal_tim_ex.c **** 
1023:Drivers/STM32F4xx_HAL_Driver/Src/stm32f4xx_hal_tim_ex.c ****     case TIM_CHANNEL_2:
1024:Drivers/STM32F4xx_HAL_Driver/Src/stm32f4xx_hal_tim_ex.c ****     {
1025:Drivers/STM32F4xx_HAL_Driver/Src/stm32f4xx_hal_tim_ex.c ****       /* Disable the TIM Output Compare DMA request */
1026:Drivers/STM32F4xx_HAL_Driver/Src/stm32f4xx_hal_tim_ex.c ****       __HAL_TIM_DISABLE_DMA(htim, TIM_DMA_CC2);
 2769              		.loc 1 1026 7
 2770 0044 7B68     		ldr	r3, [r7, #4]
 2771 0046 1B68     		ldr	r3, [r3]
 2772 0048 DA68     		ldr	r2, [r3, #12]
 2773 004a 7B68     		ldr	r3, [r7, #4]
 2774 004c 1B68     		ldr	r3, [r3]
 2775 004e 22F48062 		bic	r2, r2, #1024
 2776 0052 DA60     		str	r2, [r3, #12]
1027:Drivers/STM32F4xx_HAL_Driver/Src/stm32f4xx_hal_tim_ex.c ****       (void)HAL_DMA_Abort_IT(htim->hdma[TIM_DMA_ID_CC2]);
 2777              		.loc 1 1027 13
 2778 0054 7B68     		ldr	r3, [r7, #4]
 2779 0056 9B6A     		ldr	r3, [r3, #40]
 2780 0058 1846     		mov	r0, r3
 2781 005a FFF7FEFF 		bl	HAL_DMA_Abort_IT
1028:Drivers/STM32F4xx_HAL_Driver/Src/stm32f4xx_hal_tim_ex.c ****       break;
 2782              		.loc 1 1028 7
 2783 005e 10E0     		b	.L170
 2784              	.L166:
1029:Drivers/STM32F4xx_HAL_Driver/Src/stm32f4xx_hal_tim_ex.c ****     }
1030:Drivers/STM32F4xx_HAL_Driver/Src/stm32f4xx_hal_tim_ex.c **** 
1031:Drivers/STM32F4xx_HAL_Driver/Src/stm32f4xx_hal_tim_ex.c ****     case TIM_CHANNEL_3:
1032:Drivers/STM32F4xx_HAL_Driver/Src/stm32f4xx_hal_tim_ex.c ****     {
1033:Drivers/STM32F4xx_HAL_Driver/Src/stm32f4xx_hal_tim_ex.c ****       /* Disable the TIM Output Compare DMA request */
1034:Drivers/STM32F4xx_HAL_Driver/Src/stm32f4xx_hal_tim_ex.c ****       __HAL_TIM_DISABLE_DMA(htim, TIM_DMA_CC3);
 2785              		.loc 1 1034 7
 2786 0060 7B68     		ldr	r3, [r7, #4]
 2787 0062 1B68     		ldr	r3, [r3]
 2788 0064 DA68     		ldr	r2, [r3, #12]
 2789 0066 7B68     		ldr	r3, [r7, #4]
 2790 0068 1B68     		ldr	r3, [r3]
 2791 006a 22F40062 		bic	r2, r2, #2048
 2792 006e DA60     		str	r2, [r3, #12]
1035:Drivers/STM32F4xx_HAL_Driver/Src/stm32f4xx_hal_tim_ex.c ****       (void)HAL_DMA_Abort_IT(htim->hdma[TIM_DMA_ID_CC3]);
 2793              		.loc 1 1035 13
 2794 0070 7B68     		ldr	r3, [r7, #4]
 2795 0072 DB6A     		ldr	r3, [r3, #44]
 2796 0074 1846     		mov	r0, r3
 2797 0076 FFF7FEFF 		bl	HAL_DMA_Abort_IT
1036:Drivers/STM32F4xx_HAL_Driver/Src/stm32f4xx_hal_tim_ex.c ****       break;
 2798              		.loc 1 1036 7
 2799 007a 02E0     		b	.L170
 2800              	.L167:
1037:Drivers/STM32F4xx_HAL_Driver/Src/stm32f4xx_hal_tim_ex.c ****     }
1038:Drivers/STM32F4xx_HAL_Driver/Src/stm32f4xx_hal_tim_ex.c **** 
1039:Drivers/STM32F4xx_HAL_Driver/Src/stm32f4xx_hal_tim_ex.c ****     default:
1040:Drivers/STM32F4xx_HAL_Driver/Src/stm32f4xx_hal_tim_ex.c ****       status = HAL_ERROR;
 2801              		.loc 1 1040 14
 2802 007c 0123     		movs	r3, #1
ARM GAS  C:\Users\DAELT-~1\AppData\Local\Temp\cc2rhEX6.s 			page 68


 2803 007e FB73     		strb	r3, [r7, #15]
1041:Drivers/STM32F4xx_HAL_Driver/Src/stm32f4xx_hal_tim_ex.c ****       break;
 2804              		.loc 1 1041 7
 2805 0080 00BF     		nop
 2806              	.L170:
1042:Drivers/STM32F4xx_HAL_Driver/Src/stm32f4xx_hal_tim_ex.c ****   }
1043:Drivers/STM32F4xx_HAL_Driver/Src/stm32f4xx_hal_tim_ex.c **** 
1044:Drivers/STM32F4xx_HAL_Driver/Src/stm32f4xx_hal_tim_ex.c ****   if (status == HAL_OK)
 2807              		.loc 1 1044 6
 2808 0082 FB7B     		ldrb	r3, [r7, #15]	@ zero_extendqisi2
 2809 0084 002B     		cmp	r3, #0
 2810 0086 52D1     		bne	.L171
1045:Drivers/STM32F4xx_HAL_Driver/Src/stm32f4xx_hal_tim_ex.c ****   {
1046:Drivers/STM32F4xx_HAL_Driver/Src/stm32f4xx_hal_tim_ex.c ****     /* Disable the Capture compare channel N */
1047:Drivers/STM32F4xx_HAL_Driver/Src/stm32f4xx_hal_tim_ex.c ****     TIM_CCxNChannelCmd(htim->Instance, Channel, TIM_CCxN_DISABLE);
 2811              		.loc 1 1047 5
 2812 0088 7B68     		ldr	r3, [r7, #4]
 2813 008a 1B68     		ldr	r3, [r3]
 2814 008c 0022     		movs	r2, #0
 2815 008e 3968     		ldr	r1, [r7]
 2816 0090 1846     		mov	r0, r3
 2817 0092 FFF7FEFF 		bl	TIM_CCxNChannelCmd
1048:Drivers/STM32F4xx_HAL_Driver/Src/stm32f4xx_hal_tim_ex.c **** 
1049:Drivers/STM32F4xx_HAL_Driver/Src/stm32f4xx_hal_tim_ex.c ****     /* Disable the Main Output */
1050:Drivers/STM32F4xx_HAL_Driver/Src/stm32f4xx_hal_tim_ex.c ****     __HAL_TIM_MOE_DISABLE(htim);
 2818              		.loc 1 1050 5
 2819 0096 7B68     		ldr	r3, [r7, #4]
 2820 0098 1B68     		ldr	r3, [r3]
 2821 009a 1A6A     		ldr	r2, [r3, #32]
 2822 009c 41F21113 		movw	r3, #4369
 2823 00a0 1340     		ands	r3, r3, r2
 2824 00a2 002B     		cmp	r3, #0
 2825 00a4 0FD1     		bne	.L172
 2826              		.loc 1 1050 5 is_stmt 0 discriminator 1
 2827 00a6 7B68     		ldr	r3, [r7, #4]
 2828 00a8 1B68     		ldr	r3, [r3]
 2829 00aa 1A6A     		ldr	r2, [r3, #32]
 2830 00ac 40F24443 		movw	r3, #1092
 2831 00b0 1340     		ands	r3, r3, r2
 2832 00b2 002B     		cmp	r3, #0
 2833 00b4 07D1     		bne	.L172
 2834              		.loc 1 1050 5 discriminator 2
 2835 00b6 7B68     		ldr	r3, [r7, #4]
 2836 00b8 1B68     		ldr	r3, [r3]
 2837 00ba 5A6C     		ldr	r2, [r3, #68]
 2838 00bc 7B68     		ldr	r3, [r7, #4]
 2839 00be 1B68     		ldr	r3, [r3]
 2840 00c0 22F40042 		bic	r2, r2, #32768
 2841 00c4 5A64     		str	r2, [r3, #68]
 2842              	.L172:
1051:Drivers/STM32F4xx_HAL_Driver/Src/stm32f4xx_hal_tim_ex.c **** 
1052:Drivers/STM32F4xx_HAL_Driver/Src/stm32f4xx_hal_tim_ex.c ****     /* Disable the Peripheral */
1053:Drivers/STM32F4xx_HAL_Driver/Src/stm32f4xx_hal_tim_ex.c ****     __HAL_TIM_DISABLE(htim);
 2843              		.loc 1 1053 5 is_stmt 1
 2844 00c6 7B68     		ldr	r3, [r7, #4]
 2845 00c8 1B68     		ldr	r3, [r3]
 2846 00ca 1A6A     		ldr	r2, [r3, #32]
ARM GAS  C:\Users\DAELT-~1\AppData\Local\Temp\cc2rhEX6.s 			page 69


 2847 00cc 41F21113 		movw	r3, #4369
 2848 00d0 1340     		ands	r3, r3, r2
 2849 00d2 002B     		cmp	r3, #0
 2850 00d4 0FD1     		bne	.L173
 2851              		.loc 1 1053 5 is_stmt 0 discriminator 1
 2852 00d6 7B68     		ldr	r3, [r7, #4]
 2853 00d8 1B68     		ldr	r3, [r3]
 2854 00da 1A6A     		ldr	r2, [r3, #32]
 2855 00dc 40F24443 		movw	r3, #1092
 2856 00e0 1340     		ands	r3, r3, r2
 2857 00e2 002B     		cmp	r3, #0
 2858 00e4 07D1     		bne	.L173
 2859              		.loc 1 1053 5 discriminator 2
 2860 00e6 7B68     		ldr	r3, [r7, #4]
 2861 00e8 1B68     		ldr	r3, [r3]
 2862 00ea 1A68     		ldr	r2, [r3]
 2863 00ec 7B68     		ldr	r3, [r7, #4]
 2864 00ee 1B68     		ldr	r3, [r3]
 2865 00f0 22F00102 		bic	r2, r2, #1
 2866 00f4 1A60     		str	r2, [r3]
 2867              	.L173:
1054:Drivers/STM32F4xx_HAL_Driver/Src/stm32f4xx_hal_tim_ex.c **** 
1055:Drivers/STM32F4xx_HAL_Driver/Src/stm32f4xx_hal_tim_ex.c ****     /* Set the TIM complementary channel state */
1056:Drivers/STM32F4xx_HAL_Driver/Src/stm32f4xx_hal_tim_ex.c ****     TIM_CHANNEL_N_STATE_SET(htim, Channel, HAL_TIM_CHANNEL_STATE_READY);
 2868              		.loc 1 1056 5 is_stmt 1
 2869 00f6 3B68     		ldr	r3, [r7]
 2870 00f8 002B     		cmp	r3, #0
 2871 00fa 04D1     		bne	.L174
 2872              		.loc 1 1056 5 is_stmt 0 discriminator 1
 2873 00fc 7B68     		ldr	r3, [r7, #4]
 2874 00fe 0122     		movs	r2, #1
 2875 0100 83F84220 		strb	r2, [r3, #66]
 2876 0104 13E0     		b	.L171
 2877              	.L174:
 2878              		.loc 1 1056 5 discriminator 2
 2879 0106 3B68     		ldr	r3, [r7]
 2880 0108 042B     		cmp	r3, #4
 2881 010a 04D1     		bne	.L175
 2882              		.loc 1 1056 5 discriminator 3
 2883 010c 7B68     		ldr	r3, [r7, #4]
 2884 010e 0122     		movs	r2, #1
 2885 0110 83F84320 		strb	r2, [r3, #67]
 2886 0114 0BE0     		b	.L171
 2887              	.L175:
 2888              		.loc 1 1056 5 discriminator 4
 2889 0116 3B68     		ldr	r3, [r7]
 2890 0118 082B     		cmp	r3, #8
 2891 011a 04D1     		bne	.L177
 2892              		.loc 1 1056 5 discriminator 6
 2893 011c 7B68     		ldr	r3, [r7, #4]
 2894 011e 0122     		movs	r2, #1
 2895 0120 83F84420 		strb	r2, [r3, #68]
 2896 0124 03E0     		b	.L171
 2897              	.L177:
 2898              		.loc 1 1056 5 discriminator 7
 2899 0126 7B68     		ldr	r3, [r7, #4]
 2900 0128 0122     		movs	r2, #1
ARM GAS  C:\Users\DAELT-~1\AppData\Local\Temp\cc2rhEX6.s 			page 70


 2901 012a 83F84520 		strb	r2, [r3, #69]
 2902              	.L171:
1057:Drivers/STM32F4xx_HAL_Driver/Src/stm32f4xx_hal_tim_ex.c ****   }
1058:Drivers/STM32F4xx_HAL_Driver/Src/stm32f4xx_hal_tim_ex.c **** 
1059:Drivers/STM32F4xx_HAL_Driver/Src/stm32f4xx_hal_tim_ex.c ****   /* Return function status */
1060:Drivers/STM32F4xx_HAL_Driver/Src/stm32f4xx_hal_tim_ex.c ****   return status;
 2903              		.loc 1 1060 10 is_stmt 1
 2904 012e FB7B     		ldrb	r3, [r7, #15]	@ zero_extendqisi2
1061:Drivers/STM32F4xx_HAL_Driver/Src/stm32f4xx_hal_tim_ex.c **** }
 2905              		.loc 1 1061 1
 2906 0130 1846     		mov	r0, r3
 2907 0132 1037     		adds	r7, r7, #16
 2908              	.LCFI80:
 2909              		.cfi_def_cfa_offset 8
 2910 0134 BD46     		mov	sp, r7
 2911              	.LCFI81:
 2912              		.cfi_def_cfa_register 13
 2913              		@ sp needed
 2914 0136 80BD     		pop	{r7, pc}
 2915              		.cfi_endproc
 2916              	.LFE145:
 2918              		.section	.text.HAL_TIMEx_PWMN_Start,"ax",%progbits
 2919              		.align	1
 2920              		.global	HAL_TIMEx_PWMN_Start
 2921              		.syntax unified
 2922              		.thumb
 2923              		.thumb_func
 2925              	HAL_TIMEx_PWMN_Start:
 2926              	.LFB146:
1062:Drivers/STM32F4xx_HAL_Driver/Src/stm32f4xx_hal_tim_ex.c **** 
1063:Drivers/STM32F4xx_HAL_Driver/Src/stm32f4xx_hal_tim_ex.c **** /**
1064:Drivers/STM32F4xx_HAL_Driver/Src/stm32f4xx_hal_tim_ex.c ****   * @}
1065:Drivers/STM32F4xx_HAL_Driver/Src/stm32f4xx_hal_tim_ex.c ****   */
1066:Drivers/STM32F4xx_HAL_Driver/Src/stm32f4xx_hal_tim_ex.c **** 
1067:Drivers/STM32F4xx_HAL_Driver/Src/stm32f4xx_hal_tim_ex.c **** /** @defgroup TIMEx_Exported_Functions_Group3 Extended Timer Complementary PWM functions
1068:Drivers/STM32F4xx_HAL_Driver/Src/stm32f4xx_hal_tim_ex.c ****   * @brief    Timer Complementary PWM functions
1069:Drivers/STM32F4xx_HAL_Driver/Src/stm32f4xx_hal_tim_ex.c ****   *
1070:Drivers/STM32F4xx_HAL_Driver/Src/stm32f4xx_hal_tim_ex.c **** @verbatim
1071:Drivers/STM32F4xx_HAL_Driver/Src/stm32f4xx_hal_tim_ex.c ****   ==============================================================================
1072:Drivers/STM32F4xx_HAL_Driver/Src/stm32f4xx_hal_tim_ex.c ****                  ##### Timer Complementary PWM functions #####
1073:Drivers/STM32F4xx_HAL_Driver/Src/stm32f4xx_hal_tim_ex.c ****   ==============================================================================
1074:Drivers/STM32F4xx_HAL_Driver/Src/stm32f4xx_hal_tim_ex.c ****   [..]
1075:Drivers/STM32F4xx_HAL_Driver/Src/stm32f4xx_hal_tim_ex.c ****     This section provides functions allowing to:
1076:Drivers/STM32F4xx_HAL_Driver/Src/stm32f4xx_hal_tim_ex.c ****     (+) Start the Complementary PWM.
1077:Drivers/STM32F4xx_HAL_Driver/Src/stm32f4xx_hal_tim_ex.c ****     (+) Stop the Complementary PWM.
1078:Drivers/STM32F4xx_HAL_Driver/Src/stm32f4xx_hal_tim_ex.c ****     (+) Start the Complementary PWM and enable interrupts.
1079:Drivers/STM32F4xx_HAL_Driver/Src/stm32f4xx_hal_tim_ex.c ****     (+) Stop the Complementary PWM and disable interrupts.
1080:Drivers/STM32F4xx_HAL_Driver/Src/stm32f4xx_hal_tim_ex.c ****     (+) Start the Complementary PWM and enable DMA transfers.
1081:Drivers/STM32F4xx_HAL_Driver/Src/stm32f4xx_hal_tim_ex.c ****     (+) Stop the Complementary PWM and disable DMA transfers.
1082:Drivers/STM32F4xx_HAL_Driver/Src/stm32f4xx_hal_tim_ex.c ****     (+) Start the Complementary Input Capture measurement.
1083:Drivers/STM32F4xx_HAL_Driver/Src/stm32f4xx_hal_tim_ex.c ****     (+) Stop the Complementary Input Capture.
1084:Drivers/STM32F4xx_HAL_Driver/Src/stm32f4xx_hal_tim_ex.c ****     (+) Start the Complementary Input Capture and enable interrupts.
1085:Drivers/STM32F4xx_HAL_Driver/Src/stm32f4xx_hal_tim_ex.c ****     (+) Stop the Complementary Input Capture and disable interrupts.
1086:Drivers/STM32F4xx_HAL_Driver/Src/stm32f4xx_hal_tim_ex.c ****     (+) Start the Complementary Input Capture and enable DMA transfers.
1087:Drivers/STM32F4xx_HAL_Driver/Src/stm32f4xx_hal_tim_ex.c ****     (+) Stop the Complementary Input Capture and disable DMA transfers.
1088:Drivers/STM32F4xx_HAL_Driver/Src/stm32f4xx_hal_tim_ex.c ****     (+) Start the Complementary One Pulse generation.
1089:Drivers/STM32F4xx_HAL_Driver/Src/stm32f4xx_hal_tim_ex.c ****     (+) Stop the Complementary One Pulse.
ARM GAS  C:\Users\DAELT-~1\AppData\Local\Temp\cc2rhEX6.s 			page 71


1090:Drivers/STM32F4xx_HAL_Driver/Src/stm32f4xx_hal_tim_ex.c ****     (+) Start the Complementary One Pulse and enable interrupts.
1091:Drivers/STM32F4xx_HAL_Driver/Src/stm32f4xx_hal_tim_ex.c ****     (+) Stop the Complementary One Pulse and disable interrupts.
1092:Drivers/STM32F4xx_HAL_Driver/Src/stm32f4xx_hal_tim_ex.c **** 
1093:Drivers/STM32F4xx_HAL_Driver/Src/stm32f4xx_hal_tim_ex.c **** @endverbatim
1094:Drivers/STM32F4xx_HAL_Driver/Src/stm32f4xx_hal_tim_ex.c ****   * @{
1095:Drivers/STM32F4xx_HAL_Driver/Src/stm32f4xx_hal_tim_ex.c ****   */
1096:Drivers/STM32F4xx_HAL_Driver/Src/stm32f4xx_hal_tim_ex.c **** 
1097:Drivers/STM32F4xx_HAL_Driver/Src/stm32f4xx_hal_tim_ex.c **** /**
1098:Drivers/STM32F4xx_HAL_Driver/Src/stm32f4xx_hal_tim_ex.c ****   * @brief  Starts the PWM signal generation on the complementary output.
1099:Drivers/STM32F4xx_HAL_Driver/Src/stm32f4xx_hal_tim_ex.c ****   * @param  htim TIM handle
1100:Drivers/STM32F4xx_HAL_Driver/Src/stm32f4xx_hal_tim_ex.c ****   * @param  Channel TIM Channel to be enabled
1101:Drivers/STM32F4xx_HAL_Driver/Src/stm32f4xx_hal_tim_ex.c ****   *          This parameter can be one of the following values:
1102:Drivers/STM32F4xx_HAL_Driver/Src/stm32f4xx_hal_tim_ex.c ****   *            @arg TIM_CHANNEL_1: TIM Channel 1 selected
1103:Drivers/STM32F4xx_HAL_Driver/Src/stm32f4xx_hal_tim_ex.c ****   *            @arg TIM_CHANNEL_2: TIM Channel 2 selected
1104:Drivers/STM32F4xx_HAL_Driver/Src/stm32f4xx_hal_tim_ex.c ****   *            @arg TIM_CHANNEL_3: TIM Channel 3 selected
1105:Drivers/STM32F4xx_HAL_Driver/Src/stm32f4xx_hal_tim_ex.c ****   * @retval HAL status
1106:Drivers/STM32F4xx_HAL_Driver/Src/stm32f4xx_hal_tim_ex.c ****   */
1107:Drivers/STM32F4xx_HAL_Driver/Src/stm32f4xx_hal_tim_ex.c **** HAL_StatusTypeDef HAL_TIMEx_PWMN_Start(TIM_HandleTypeDef *htim, uint32_t Channel)
1108:Drivers/STM32F4xx_HAL_Driver/Src/stm32f4xx_hal_tim_ex.c **** {
 2927              		.loc 1 1108 1
 2928              		.cfi_startproc
 2929              		@ args = 0, pretend = 0, frame = 16
 2930              		@ frame_needed = 1, uses_anonymous_args = 0
 2931 0000 80B5     		push	{r7, lr}
 2932              	.LCFI82:
 2933              		.cfi_def_cfa_offset 8
 2934              		.cfi_offset 7, -8
 2935              		.cfi_offset 14, -4
 2936 0002 84B0     		sub	sp, sp, #16
 2937              	.LCFI83:
 2938              		.cfi_def_cfa_offset 24
 2939 0004 00AF     		add	r7, sp, #0
 2940              	.LCFI84:
 2941              		.cfi_def_cfa_register 7
 2942 0006 7860     		str	r0, [r7, #4]
 2943 0008 3960     		str	r1, [r7]
1109:Drivers/STM32F4xx_HAL_Driver/Src/stm32f4xx_hal_tim_ex.c ****   uint32_t tmpsmcr;
1110:Drivers/STM32F4xx_HAL_Driver/Src/stm32f4xx_hal_tim_ex.c **** 
1111:Drivers/STM32F4xx_HAL_Driver/Src/stm32f4xx_hal_tim_ex.c ****   /* Check the parameters */
1112:Drivers/STM32F4xx_HAL_Driver/Src/stm32f4xx_hal_tim_ex.c ****   assert_param(IS_TIM_CCXN_INSTANCE(htim->Instance, Channel));
1113:Drivers/STM32F4xx_HAL_Driver/Src/stm32f4xx_hal_tim_ex.c **** 
1114:Drivers/STM32F4xx_HAL_Driver/Src/stm32f4xx_hal_tim_ex.c ****   /* Check the TIM complementary channel state */
1115:Drivers/STM32F4xx_HAL_Driver/Src/stm32f4xx_hal_tim_ex.c ****   if (TIM_CHANNEL_N_STATE_GET(htim, Channel) != HAL_TIM_CHANNEL_STATE_READY)
 2944              		.loc 1 1115 46
 2945 000a 3B68     		ldr	r3, [r7]
 2946 000c 002B     		cmp	r3, #0
 2947 000e 09D1     		bne	.L181
 2948              		.loc 1 1115 7 discriminator 1
 2949 0010 7B68     		ldr	r3, [r7, #4]
 2950 0012 93F84230 		ldrb	r3, [r3, #66]
 2951 0016 DBB2     		uxtb	r3, r3
 2952              		.loc 1 1115 46 discriminator 1
 2953 0018 012B     		cmp	r3, #1
 2954 001a 14BF     		ite	ne
 2955 001c 0123     		movne	r3, #1
 2956 001e 0023     		moveq	r3, #0
 2957 0020 DBB2     		uxtb	r3, r3
ARM GAS  C:\Users\DAELT-~1\AppData\Local\Temp\cc2rhEX6.s 			page 72


 2958 0022 22E0     		b	.L182
 2959              	.L181:
 2960              		.loc 1 1115 46 is_stmt 0 discriminator 2
 2961 0024 3B68     		ldr	r3, [r7]
 2962 0026 042B     		cmp	r3, #4
 2963 0028 09D1     		bne	.L183
 2964              		.loc 1 1115 7 is_stmt 1 discriminator 4
 2965 002a 7B68     		ldr	r3, [r7, #4]
 2966 002c 93F84330 		ldrb	r3, [r3, #67]
 2967 0030 DBB2     		uxtb	r3, r3
 2968              		.loc 1 1115 46 discriminator 4
 2969 0032 012B     		cmp	r3, #1
 2970 0034 14BF     		ite	ne
 2971 0036 0123     		movne	r3, #1
 2972 0038 0023     		moveq	r3, #0
 2973 003a DBB2     		uxtb	r3, r3
 2974 003c 15E0     		b	.L182
 2975              	.L183:
 2976              		.loc 1 1115 46 is_stmt 0 discriminator 5
 2977 003e 3B68     		ldr	r3, [r7]
 2978 0040 082B     		cmp	r3, #8
 2979 0042 09D1     		bne	.L185
 2980              		.loc 1 1115 7 is_stmt 1 discriminator 7
 2981 0044 7B68     		ldr	r3, [r7, #4]
 2982 0046 93F84430 		ldrb	r3, [r3, #68]
 2983 004a DBB2     		uxtb	r3, r3
 2984              		.loc 1 1115 46 discriminator 7
 2985 004c 012B     		cmp	r3, #1
 2986 004e 14BF     		ite	ne
 2987 0050 0123     		movne	r3, #1
 2988 0052 0023     		moveq	r3, #0
 2989 0054 DBB2     		uxtb	r3, r3
 2990 0056 08E0     		b	.L182
 2991              	.L185:
 2992              		.loc 1 1115 7 discriminator 8
 2993 0058 7B68     		ldr	r3, [r7, #4]
 2994 005a 93F84530 		ldrb	r3, [r3, #69]
 2995 005e DBB2     		uxtb	r3, r3
 2996              		.loc 1 1115 46 discriminator 8
 2997 0060 012B     		cmp	r3, #1
 2998 0062 14BF     		ite	ne
 2999 0064 0123     		movne	r3, #1
 3000 0066 0023     		moveq	r3, #0
 3001 0068 DBB2     		uxtb	r3, r3
 3002              	.L182:
 3003              		.loc 1 1115 6 discriminator 12
 3004 006a 002B     		cmp	r3, #0
 3005 006c 01D0     		beq	.L187
1116:Drivers/STM32F4xx_HAL_Driver/Src/stm32f4xx_hal_tim_ex.c ****   {
1117:Drivers/STM32F4xx_HAL_Driver/Src/stm32f4xx_hal_tim_ex.c ****     return HAL_ERROR;
 3006              		.loc 1 1117 12
 3007 006e 0123     		movs	r3, #1
 3008 0070 63E0     		b	.L188
 3009              	.L187:
1118:Drivers/STM32F4xx_HAL_Driver/Src/stm32f4xx_hal_tim_ex.c ****   }
1119:Drivers/STM32F4xx_HAL_Driver/Src/stm32f4xx_hal_tim_ex.c **** 
1120:Drivers/STM32F4xx_HAL_Driver/Src/stm32f4xx_hal_tim_ex.c ****   /* Set the TIM complementary channel state */
ARM GAS  C:\Users\DAELT-~1\AppData\Local\Temp\cc2rhEX6.s 			page 73


1121:Drivers/STM32F4xx_HAL_Driver/Src/stm32f4xx_hal_tim_ex.c ****   TIM_CHANNEL_N_STATE_SET(htim, Channel, HAL_TIM_CHANNEL_STATE_BUSY);
 3010              		.loc 1 1121 3
 3011 0072 3B68     		ldr	r3, [r7]
 3012 0074 002B     		cmp	r3, #0
 3013 0076 04D1     		bne	.L189
 3014              		.loc 1 1121 3 is_stmt 0 discriminator 1
 3015 0078 7B68     		ldr	r3, [r7, #4]
 3016 007a 0222     		movs	r2, #2
 3017 007c 83F84220 		strb	r2, [r3, #66]
 3018 0080 13E0     		b	.L190
 3019              	.L189:
 3020              		.loc 1 1121 3 discriminator 2
 3021 0082 3B68     		ldr	r3, [r7]
 3022 0084 042B     		cmp	r3, #4
 3023 0086 04D1     		bne	.L191
 3024              		.loc 1 1121 3 discriminator 3
 3025 0088 7B68     		ldr	r3, [r7, #4]
 3026 008a 0222     		movs	r2, #2
 3027 008c 83F84320 		strb	r2, [r3, #67]
 3028 0090 0BE0     		b	.L190
 3029              	.L191:
 3030              		.loc 1 1121 3 discriminator 4
 3031 0092 3B68     		ldr	r3, [r7]
 3032 0094 082B     		cmp	r3, #8
 3033 0096 04D1     		bne	.L193
 3034              		.loc 1 1121 3 discriminator 6
 3035 0098 7B68     		ldr	r3, [r7, #4]
 3036 009a 0222     		movs	r2, #2
 3037 009c 83F84420 		strb	r2, [r3, #68]
 3038 00a0 03E0     		b	.L190
 3039              	.L193:
 3040              		.loc 1 1121 3 discriminator 7
 3041 00a2 7B68     		ldr	r3, [r7, #4]
 3042 00a4 0222     		movs	r2, #2
 3043 00a6 83F84520 		strb	r2, [r3, #69]
 3044              	.L190:
1122:Drivers/STM32F4xx_HAL_Driver/Src/stm32f4xx_hal_tim_ex.c **** 
1123:Drivers/STM32F4xx_HAL_Driver/Src/stm32f4xx_hal_tim_ex.c ****   /* Enable the complementary PWM output  */
1124:Drivers/STM32F4xx_HAL_Driver/Src/stm32f4xx_hal_tim_ex.c ****   TIM_CCxNChannelCmd(htim->Instance, Channel, TIM_CCxN_ENABLE);
 3045              		.loc 1 1124 3 is_stmt 1
 3046 00aa 7B68     		ldr	r3, [r7, #4]
 3047 00ac 1B68     		ldr	r3, [r3]
 3048 00ae 0422     		movs	r2, #4
 3049 00b0 3968     		ldr	r1, [r7]
 3050 00b2 1846     		mov	r0, r3
 3051 00b4 FFF7FEFF 		bl	TIM_CCxNChannelCmd
1125:Drivers/STM32F4xx_HAL_Driver/Src/stm32f4xx_hal_tim_ex.c **** 
1126:Drivers/STM32F4xx_HAL_Driver/Src/stm32f4xx_hal_tim_ex.c ****   /* Enable the Main Output */
1127:Drivers/STM32F4xx_HAL_Driver/Src/stm32f4xx_hal_tim_ex.c ****   __HAL_TIM_MOE_ENABLE(htim);
 3052              		.loc 1 1127 3
 3053 00b8 7B68     		ldr	r3, [r7, #4]
 3054 00ba 1B68     		ldr	r3, [r3]
 3055 00bc 5A6C     		ldr	r2, [r3, #68]
 3056 00be 7B68     		ldr	r3, [r7, #4]
 3057 00c0 1B68     		ldr	r3, [r3]
 3058 00c2 42F40042 		orr	r2, r2, #32768
 3059 00c6 5A64     		str	r2, [r3, #68]
ARM GAS  C:\Users\DAELT-~1\AppData\Local\Temp\cc2rhEX6.s 			page 74


1128:Drivers/STM32F4xx_HAL_Driver/Src/stm32f4xx_hal_tim_ex.c **** 
1129:Drivers/STM32F4xx_HAL_Driver/Src/stm32f4xx_hal_tim_ex.c ****   /* Enable the Peripheral, except in trigger mode where enable is automatically done with trigger 
1130:Drivers/STM32F4xx_HAL_Driver/Src/stm32f4xx_hal_tim_ex.c ****   if (IS_TIM_SLAVE_INSTANCE(htim->Instance))
 3060              		.loc 1 1130 7
 3061 00c8 7B68     		ldr	r3, [r7, #4]
 3062 00ca 1B68     		ldr	r3, [r3]
 3063              		.loc 1 1130 6
 3064 00cc 1D4A     		ldr	r2, .L199
 3065 00ce 9342     		cmp	r3, r2
 3066 00d0 18D0     		beq	.L195
 3067              		.loc 1 1130 7 discriminator 1
 3068 00d2 7B68     		ldr	r3, [r7, #4]
 3069 00d4 1B68     		ldr	r3, [r3]
 3070 00d6 B3F1804F 		cmp	r3, #1073741824
 3071 00da 13D0     		beq	.L195
 3072              		.loc 1 1130 7 is_stmt 0 discriminator 2
 3073 00dc 7B68     		ldr	r3, [r7, #4]
 3074 00de 1B68     		ldr	r3, [r3]
 3075 00e0 194A     		ldr	r2, .L199+4
 3076 00e2 9342     		cmp	r3, r2
 3077 00e4 0ED0     		beq	.L195
 3078              		.loc 1 1130 7 discriminator 3
 3079 00e6 7B68     		ldr	r3, [r7, #4]
 3080 00e8 1B68     		ldr	r3, [r3]
 3081 00ea 184A     		ldr	r2, .L199+8
 3082 00ec 9342     		cmp	r3, r2
 3083 00ee 09D0     		beq	.L195
 3084              		.loc 1 1130 7 discriminator 4
 3085 00f0 7B68     		ldr	r3, [r7, #4]
 3086 00f2 1B68     		ldr	r3, [r3]
 3087 00f4 164A     		ldr	r2, .L199+12
 3088 00f6 9342     		cmp	r3, r2
 3089 00f8 04D0     		beq	.L195
 3090              		.loc 1 1130 7 discriminator 5
 3091 00fa 7B68     		ldr	r3, [r7, #4]
 3092 00fc 1B68     		ldr	r3, [r3]
 3093 00fe 154A     		ldr	r2, .L199+16
 3094 0100 9342     		cmp	r3, r2
 3095 0102 11D1     		bne	.L196
 3096              	.L195:
1131:Drivers/STM32F4xx_HAL_Driver/Src/stm32f4xx_hal_tim_ex.c ****   {
1132:Drivers/STM32F4xx_HAL_Driver/Src/stm32f4xx_hal_tim_ex.c ****     tmpsmcr = htim->Instance->SMCR & TIM_SMCR_SMS;
 3097              		.loc 1 1132 19 is_stmt 1
 3098 0104 7B68     		ldr	r3, [r7, #4]
 3099 0106 1B68     		ldr	r3, [r3]
 3100              		.loc 1 1132 29
 3101 0108 9B68     		ldr	r3, [r3, #8]
 3102              		.loc 1 1132 13
 3103 010a 03F00703 		and	r3, r3, #7
 3104 010e FB60     		str	r3, [r7, #12]
1133:Drivers/STM32F4xx_HAL_Driver/Src/stm32f4xx_hal_tim_ex.c ****     if (!IS_TIM_SLAVEMODE_TRIGGER_ENABLED(tmpsmcr))
 3105              		.loc 1 1133 8
 3106 0110 FB68     		ldr	r3, [r7, #12]
 3107 0112 062B     		cmp	r3, #6
 3108 0114 10D0     		beq	.L198
1134:Drivers/STM32F4xx_HAL_Driver/Src/stm32f4xx_hal_tim_ex.c ****     {
1135:Drivers/STM32F4xx_HAL_Driver/Src/stm32f4xx_hal_tim_ex.c ****       __HAL_TIM_ENABLE(htim);
ARM GAS  C:\Users\DAELT-~1\AppData\Local\Temp\cc2rhEX6.s 			page 75


 3109              		.loc 1 1135 7
 3110 0116 7B68     		ldr	r3, [r7, #4]
 3111 0118 1B68     		ldr	r3, [r3]
 3112 011a 1A68     		ldr	r2, [r3]
 3113 011c 7B68     		ldr	r3, [r7, #4]
 3114 011e 1B68     		ldr	r3, [r3]
 3115 0120 42F00102 		orr	r2, r2, #1
 3116 0124 1A60     		str	r2, [r3]
1133:Drivers/STM32F4xx_HAL_Driver/Src/stm32f4xx_hal_tim_ex.c ****     if (!IS_TIM_SLAVEMODE_TRIGGER_ENABLED(tmpsmcr))
 3117              		.loc 1 1133 8
 3118 0126 07E0     		b	.L198
 3119              	.L196:
1136:Drivers/STM32F4xx_HAL_Driver/Src/stm32f4xx_hal_tim_ex.c ****     }
1137:Drivers/STM32F4xx_HAL_Driver/Src/stm32f4xx_hal_tim_ex.c ****   }
1138:Drivers/STM32F4xx_HAL_Driver/Src/stm32f4xx_hal_tim_ex.c ****   else
1139:Drivers/STM32F4xx_HAL_Driver/Src/stm32f4xx_hal_tim_ex.c ****   {
1140:Drivers/STM32F4xx_HAL_Driver/Src/stm32f4xx_hal_tim_ex.c ****     __HAL_TIM_ENABLE(htim);
 3120              		.loc 1 1140 5
 3121 0128 7B68     		ldr	r3, [r7, #4]
 3122 012a 1B68     		ldr	r3, [r3]
 3123 012c 1A68     		ldr	r2, [r3]
 3124 012e 7B68     		ldr	r3, [r7, #4]
 3125 0130 1B68     		ldr	r3, [r3]
 3126 0132 42F00102 		orr	r2, r2, #1
 3127 0136 1A60     		str	r2, [r3]
 3128              	.L198:
1141:Drivers/STM32F4xx_HAL_Driver/Src/stm32f4xx_hal_tim_ex.c ****   }
1142:Drivers/STM32F4xx_HAL_Driver/Src/stm32f4xx_hal_tim_ex.c **** 
1143:Drivers/STM32F4xx_HAL_Driver/Src/stm32f4xx_hal_tim_ex.c ****   /* Return function status */
1144:Drivers/STM32F4xx_HAL_Driver/Src/stm32f4xx_hal_tim_ex.c ****   return HAL_OK;
 3129              		.loc 1 1144 10
 3130 0138 0023     		movs	r3, #0
 3131              	.L188:
1145:Drivers/STM32F4xx_HAL_Driver/Src/stm32f4xx_hal_tim_ex.c **** }
 3132              		.loc 1 1145 1
 3133 013a 1846     		mov	r0, r3
 3134 013c 1037     		adds	r7, r7, #16
 3135              	.LCFI85:
 3136              		.cfi_def_cfa_offset 8
 3137 013e BD46     		mov	sp, r7
 3138              	.LCFI86:
 3139              		.cfi_def_cfa_register 13
 3140              		@ sp needed
 3141 0140 80BD     		pop	{r7, pc}
 3142              	.L200:
 3143 0142 00BF     		.align	2
 3144              	.L199:
 3145 0144 00000140 		.word	1073807360
 3146 0148 00040040 		.word	1073742848
 3147 014c 00080040 		.word	1073743872
 3148 0150 000C0040 		.word	1073744896
 3149 0154 00400140 		.word	1073823744
 3150              		.cfi_endproc
 3151              	.LFE146:
 3153              		.section	.text.HAL_TIMEx_PWMN_Stop,"ax",%progbits
 3154              		.align	1
 3155              		.global	HAL_TIMEx_PWMN_Stop
ARM GAS  C:\Users\DAELT-~1\AppData\Local\Temp\cc2rhEX6.s 			page 76


 3156              		.syntax unified
 3157              		.thumb
 3158              		.thumb_func
 3160              	HAL_TIMEx_PWMN_Stop:
 3161              	.LFB147:
1146:Drivers/STM32F4xx_HAL_Driver/Src/stm32f4xx_hal_tim_ex.c **** 
1147:Drivers/STM32F4xx_HAL_Driver/Src/stm32f4xx_hal_tim_ex.c **** /**
1148:Drivers/STM32F4xx_HAL_Driver/Src/stm32f4xx_hal_tim_ex.c ****   * @brief  Stops the PWM signal generation on the complementary output.
1149:Drivers/STM32F4xx_HAL_Driver/Src/stm32f4xx_hal_tim_ex.c ****   * @param  htim TIM handle
1150:Drivers/STM32F4xx_HAL_Driver/Src/stm32f4xx_hal_tim_ex.c ****   * @param  Channel TIM Channel to be disabled
1151:Drivers/STM32F4xx_HAL_Driver/Src/stm32f4xx_hal_tim_ex.c ****   *          This parameter can be one of the following values:
1152:Drivers/STM32F4xx_HAL_Driver/Src/stm32f4xx_hal_tim_ex.c ****   *            @arg TIM_CHANNEL_1: TIM Channel 1 selected
1153:Drivers/STM32F4xx_HAL_Driver/Src/stm32f4xx_hal_tim_ex.c ****   *            @arg TIM_CHANNEL_2: TIM Channel 2 selected
1154:Drivers/STM32F4xx_HAL_Driver/Src/stm32f4xx_hal_tim_ex.c ****   *            @arg TIM_CHANNEL_3: TIM Channel 3 selected
1155:Drivers/STM32F4xx_HAL_Driver/Src/stm32f4xx_hal_tim_ex.c ****   * @retval HAL status
1156:Drivers/STM32F4xx_HAL_Driver/Src/stm32f4xx_hal_tim_ex.c ****   */
1157:Drivers/STM32F4xx_HAL_Driver/Src/stm32f4xx_hal_tim_ex.c **** HAL_StatusTypeDef HAL_TIMEx_PWMN_Stop(TIM_HandleTypeDef *htim, uint32_t Channel)
1158:Drivers/STM32F4xx_HAL_Driver/Src/stm32f4xx_hal_tim_ex.c **** {
 3162              		.loc 1 1158 1
 3163              		.cfi_startproc
 3164              		@ args = 0, pretend = 0, frame = 8
 3165              		@ frame_needed = 1, uses_anonymous_args = 0
 3166 0000 80B5     		push	{r7, lr}
 3167              	.LCFI87:
 3168              		.cfi_def_cfa_offset 8
 3169              		.cfi_offset 7, -8
 3170              		.cfi_offset 14, -4
 3171 0002 82B0     		sub	sp, sp, #8
 3172              	.LCFI88:
 3173              		.cfi_def_cfa_offset 16
 3174 0004 00AF     		add	r7, sp, #0
 3175              	.LCFI89:
 3176              		.cfi_def_cfa_register 7
 3177 0006 7860     		str	r0, [r7, #4]
 3178 0008 3960     		str	r1, [r7]
1159:Drivers/STM32F4xx_HAL_Driver/Src/stm32f4xx_hal_tim_ex.c ****   /* Check the parameters */
1160:Drivers/STM32F4xx_HAL_Driver/Src/stm32f4xx_hal_tim_ex.c ****   assert_param(IS_TIM_CCXN_INSTANCE(htim->Instance, Channel));
1161:Drivers/STM32F4xx_HAL_Driver/Src/stm32f4xx_hal_tim_ex.c **** 
1162:Drivers/STM32F4xx_HAL_Driver/Src/stm32f4xx_hal_tim_ex.c ****   /* Disable the complementary PWM output  */
1163:Drivers/STM32F4xx_HAL_Driver/Src/stm32f4xx_hal_tim_ex.c ****   TIM_CCxNChannelCmd(htim->Instance, Channel, TIM_CCxN_DISABLE);
 3179              		.loc 1 1163 3
 3180 000a 7B68     		ldr	r3, [r7, #4]
 3181 000c 1B68     		ldr	r3, [r3]
 3182 000e 0022     		movs	r2, #0
 3183 0010 3968     		ldr	r1, [r7]
 3184 0012 1846     		mov	r0, r3
 3185 0014 FFF7FEFF 		bl	TIM_CCxNChannelCmd
1164:Drivers/STM32F4xx_HAL_Driver/Src/stm32f4xx_hal_tim_ex.c **** 
1165:Drivers/STM32F4xx_HAL_Driver/Src/stm32f4xx_hal_tim_ex.c ****   /* Disable the Main Output */
1166:Drivers/STM32F4xx_HAL_Driver/Src/stm32f4xx_hal_tim_ex.c ****   __HAL_TIM_MOE_DISABLE(htim);
 3186              		.loc 1 1166 3
 3187 0018 7B68     		ldr	r3, [r7, #4]
 3188 001a 1B68     		ldr	r3, [r3]
 3189 001c 1A6A     		ldr	r2, [r3, #32]
 3190 001e 41F21113 		movw	r3, #4369
 3191 0022 1340     		ands	r3, r3, r2
 3192 0024 002B     		cmp	r3, #0
ARM GAS  C:\Users\DAELT-~1\AppData\Local\Temp\cc2rhEX6.s 			page 77


 3193 0026 0FD1     		bne	.L202
 3194              		.loc 1 1166 3 is_stmt 0 discriminator 1
 3195 0028 7B68     		ldr	r3, [r7, #4]
 3196 002a 1B68     		ldr	r3, [r3]
 3197 002c 1A6A     		ldr	r2, [r3, #32]
 3198 002e 40F24443 		movw	r3, #1092
 3199 0032 1340     		ands	r3, r3, r2
 3200 0034 002B     		cmp	r3, #0
 3201 0036 07D1     		bne	.L202
 3202              		.loc 1 1166 3 discriminator 2
 3203 0038 7B68     		ldr	r3, [r7, #4]
 3204 003a 1B68     		ldr	r3, [r3]
 3205 003c 5A6C     		ldr	r2, [r3, #68]
 3206 003e 7B68     		ldr	r3, [r7, #4]
 3207 0040 1B68     		ldr	r3, [r3]
 3208 0042 22F40042 		bic	r2, r2, #32768
 3209 0046 5A64     		str	r2, [r3, #68]
 3210              	.L202:
1167:Drivers/STM32F4xx_HAL_Driver/Src/stm32f4xx_hal_tim_ex.c **** 
1168:Drivers/STM32F4xx_HAL_Driver/Src/stm32f4xx_hal_tim_ex.c ****   /* Disable the Peripheral */
1169:Drivers/STM32F4xx_HAL_Driver/Src/stm32f4xx_hal_tim_ex.c ****   __HAL_TIM_DISABLE(htim);
 3211              		.loc 1 1169 3 is_stmt 1
 3212 0048 7B68     		ldr	r3, [r7, #4]
 3213 004a 1B68     		ldr	r3, [r3]
 3214 004c 1A6A     		ldr	r2, [r3, #32]
 3215 004e 41F21113 		movw	r3, #4369
 3216 0052 1340     		ands	r3, r3, r2
 3217 0054 002B     		cmp	r3, #0
 3218 0056 0FD1     		bne	.L203
 3219              		.loc 1 1169 3 is_stmt 0 discriminator 1
 3220 0058 7B68     		ldr	r3, [r7, #4]
 3221 005a 1B68     		ldr	r3, [r3]
 3222 005c 1A6A     		ldr	r2, [r3, #32]
 3223 005e 40F24443 		movw	r3, #1092
 3224 0062 1340     		ands	r3, r3, r2
 3225 0064 002B     		cmp	r3, #0
 3226 0066 07D1     		bne	.L203
 3227              		.loc 1 1169 3 discriminator 2
 3228 0068 7B68     		ldr	r3, [r7, #4]
 3229 006a 1B68     		ldr	r3, [r3]
 3230 006c 1A68     		ldr	r2, [r3]
 3231 006e 7B68     		ldr	r3, [r7, #4]
 3232 0070 1B68     		ldr	r3, [r3]
 3233 0072 22F00102 		bic	r2, r2, #1
 3234 0076 1A60     		str	r2, [r3]
 3235              	.L203:
1170:Drivers/STM32F4xx_HAL_Driver/Src/stm32f4xx_hal_tim_ex.c **** 
1171:Drivers/STM32F4xx_HAL_Driver/Src/stm32f4xx_hal_tim_ex.c ****   /* Set the TIM complementary channel state */
1172:Drivers/STM32F4xx_HAL_Driver/Src/stm32f4xx_hal_tim_ex.c ****   TIM_CHANNEL_N_STATE_SET(htim, Channel, HAL_TIM_CHANNEL_STATE_READY);
 3236              		.loc 1 1172 3 is_stmt 1
 3237 0078 3B68     		ldr	r3, [r7]
 3238 007a 002B     		cmp	r3, #0
 3239 007c 04D1     		bne	.L204
 3240              		.loc 1 1172 3 is_stmt 0 discriminator 1
 3241 007e 7B68     		ldr	r3, [r7, #4]
 3242 0080 0122     		movs	r2, #1
 3243 0082 83F84220 		strb	r2, [r3, #66]
ARM GAS  C:\Users\DAELT-~1\AppData\Local\Temp\cc2rhEX6.s 			page 78


 3244 0086 13E0     		b	.L205
 3245              	.L204:
 3246              		.loc 1 1172 3 discriminator 2
 3247 0088 3B68     		ldr	r3, [r7]
 3248 008a 042B     		cmp	r3, #4
 3249 008c 04D1     		bne	.L206
 3250              		.loc 1 1172 3 discriminator 3
 3251 008e 7B68     		ldr	r3, [r7, #4]
 3252 0090 0122     		movs	r2, #1
 3253 0092 83F84320 		strb	r2, [r3, #67]
 3254 0096 0BE0     		b	.L205
 3255              	.L206:
 3256              		.loc 1 1172 3 discriminator 4
 3257 0098 3B68     		ldr	r3, [r7]
 3258 009a 082B     		cmp	r3, #8
 3259 009c 04D1     		bne	.L208
 3260              		.loc 1 1172 3 discriminator 6
 3261 009e 7B68     		ldr	r3, [r7, #4]
 3262 00a0 0122     		movs	r2, #1
 3263 00a2 83F84420 		strb	r2, [r3, #68]
 3264 00a6 03E0     		b	.L205
 3265              	.L208:
 3266              		.loc 1 1172 3 discriminator 7
 3267 00a8 7B68     		ldr	r3, [r7, #4]
 3268 00aa 0122     		movs	r2, #1
 3269 00ac 83F84520 		strb	r2, [r3, #69]
 3270              	.L205:
1173:Drivers/STM32F4xx_HAL_Driver/Src/stm32f4xx_hal_tim_ex.c **** 
1174:Drivers/STM32F4xx_HAL_Driver/Src/stm32f4xx_hal_tim_ex.c ****   /* Return function status */
1175:Drivers/STM32F4xx_HAL_Driver/Src/stm32f4xx_hal_tim_ex.c ****   return HAL_OK;
 3271              		.loc 1 1175 10 is_stmt 1
 3272 00b0 0023     		movs	r3, #0
1176:Drivers/STM32F4xx_HAL_Driver/Src/stm32f4xx_hal_tim_ex.c **** }
 3273              		.loc 1 1176 1
 3274 00b2 1846     		mov	r0, r3
 3275 00b4 0837     		adds	r7, r7, #8
 3276              	.LCFI90:
 3277              		.cfi_def_cfa_offset 8
 3278 00b6 BD46     		mov	sp, r7
 3279              	.LCFI91:
 3280              		.cfi_def_cfa_register 13
 3281              		@ sp needed
 3282 00b8 80BD     		pop	{r7, pc}
 3283              		.cfi_endproc
 3284              	.LFE147:
 3286              		.section	.text.HAL_TIMEx_PWMN_Start_IT,"ax",%progbits
 3287              		.align	1
 3288              		.global	HAL_TIMEx_PWMN_Start_IT
 3289              		.syntax unified
 3290              		.thumb
 3291              		.thumb_func
 3293              	HAL_TIMEx_PWMN_Start_IT:
 3294              	.LFB148:
1177:Drivers/STM32F4xx_HAL_Driver/Src/stm32f4xx_hal_tim_ex.c **** 
1178:Drivers/STM32F4xx_HAL_Driver/Src/stm32f4xx_hal_tim_ex.c **** /**
1179:Drivers/STM32F4xx_HAL_Driver/Src/stm32f4xx_hal_tim_ex.c ****   * @brief  Starts the PWM signal generation in interrupt mode on the
1180:Drivers/STM32F4xx_HAL_Driver/Src/stm32f4xx_hal_tim_ex.c ****   *         complementary output.
ARM GAS  C:\Users\DAELT-~1\AppData\Local\Temp\cc2rhEX6.s 			page 79


1181:Drivers/STM32F4xx_HAL_Driver/Src/stm32f4xx_hal_tim_ex.c ****   * @param  htim TIM handle
1182:Drivers/STM32F4xx_HAL_Driver/Src/stm32f4xx_hal_tim_ex.c ****   * @param  Channel TIM Channel to be disabled
1183:Drivers/STM32F4xx_HAL_Driver/Src/stm32f4xx_hal_tim_ex.c ****   *          This parameter can be one of the following values:
1184:Drivers/STM32F4xx_HAL_Driver/Src/stm32f4xx_hal_tim_ex.c ****   *            @arg TIM_CHANNEL_1: TIM Channel 1 selected
1185:Drivers/STM32F4xx_HAL_Driver/Src/stm32f4xx_hal_tim_ex.c ****   *            @arg TIM_CHANNEL_2: TIM Channel 2 selected
1186:Drivers/STM32F4xx_HAL_Driver/Src/stm32f4xx_hal_tim_ex.c ****   *            @arg TIM_CHANNEL_3: TIM Channel 3 selected
1187:Drivers/STM32F4xx_HAL_Driver/Src/stm32f4xx_hal_tim_ex.c ****   * @retval HAL status
1188:Drivers/STM32F4xx_HAL_Driver/Src/stm32f4xx_hal_tim_ex.c ****   */
1189:Drivers/STM32F4xx_HAL_Driver/Src/stm32f4xx_hal_tim_ex.c **** HAL_StatusTypeDef HAL_TIMEx_PWMN_Start_IT(TIM_HandleTypeDef *htim, uint32_t Channel)
1190:Drivers/STM32F4xx_HAL_Driver/Src/stm32f4xx_hal_tim_ex.c **** {
 3295              		.loc 1 1190 1
 3296              		.cfi_startproc
 3297              		@ args = 0, pretend = 0, frame = 16
 3298              		@ frame_needed = 1, uses_anonymous_args = 0
 3299 0000 80B5     		push	{r7, lr}
 3300              	.LCFI92:
 3301              		.cfi_def_cfa_offset 8
 3302              		.cfi_offset 7, -8
 3303              		.cfi_offset 14, -4
 3304 0002 84B0     		sub	sp, sp, #16
 3305              	.LCFI93:
 3306              		.cfi_def_cfa_offset 24
 3307 0004 00AF     		add	r7, sp, #0
 3308              	.LCFI94:
 3309              		.cfi_def_cfa_register 7
 3310 0006 7860     		str	r0, [r7, #4]
 3311 0008 3960     		str	r1, [r7]
1191:Drivers/STM32F4xx_HAL_Driver/Src/stm32f4xx_hal_tim_ex.c ****   HAL_StatusTypeDef status = HAL_OK;
 3312              		.loc 1 1191 21
 3313 000a 0023     		movs	r3, #0
 3314 000c FB73     		strb	r3, [r7, #15]
1192:Drivers/STM32F4xx_HAL_Driver/Src/stm32f4xx_hal_tim_ex.c ****   uint32_t tmpsmcr;
1193:Drivers/STM32F4xx_HAL_Driver/Src/stm32f4xx_hal_tim_ex.c **** 
1194:Drivers/STM32F4xx_HAL_Driver/Src/stm32f4xx_hal_tim_ex.c ****   /* Check the parameters */
1195:Drivers/STM32F4xx_HAL_Driver/Src/stm32f4xx_hal_tim_ex.c ****   assert_param(IS_TIM_CCXN_INSTANCE(htim->Instance, Channel));
1196:Drivers/STM32F4xx_HAL_Driver/Src/stm32f4xx_hal_tim_ex.c **** 
1197:Drivers/STM32F4xx_HAL_Driver/Src/stm32f4xx_hal_tim_ex.c ****   /* Check the TIM complementary channel state */
1198:Drivers/STM32F4xx_HAL_Driver/Src/stm32f4xx_hal_tim_ex.c ****   if (TIM_CHANNEL_N_STATE_GET(htim, Channel) != HAL_TIM_CHANNEL_STATE_READY)
 3315              		.loc 1 1198 46
 3316 000e 3B68     		ldr	r3, [r7]
 3317 0010 002B     		cmp	r3, #0
 3318 0012 09D1     		bne	.L212
 3319              		.loc 1 1198 7 discriminator 1
 3320 0014 7B68     		ldr	r3, [r7, #4]
 3321 0016 93F84230 		ldrb	r3, [r3, #66]
 3322 001a DBB2     		uxtb	r3, r3
 3323              		.loc 1 1198 46 discriminator 1
 3324 001c 012B     		cmp	r3, #1
 3325 001e 14BF     		ite	ne
 3326 0020 0123     		movne	r3, #1
 3327 0022 0023     		moveq	r3, #0
 3328 0024 DBB2     		uxtb	r3, r3
 3329 0026 22E0     		b	.L213
 3330              	.L212:
 3331              		.loc 1 1198 46 is_stmt 0 discriminator 2
 3332 0028 3B68     		ldr	r3, [r7]
 3333 002a 042B     		cmp	r3, #4
ARM GAS  C:\Users\DAELT-~1\AppData\Local\Temp\cc2rhEX6.s 			page 80


 3334 002c 09D1     		bne	.L214
 3335              		.loc 1 1198 7 is_stmt 1 discriminator 4
 3336 002e 7B68     		ldr	r3, [r7, #4]
 3337 0030 93F84330 		ldrb	r3, [r3, #67]
 3338 0034 DBB2     		uxtb	r3, r3
 3339              		.loc 1 1198 46 discriminator 4
 3340 0036 012B     		cmp	r3, #1
 3341 0038 14BF     		ite	ne
 3342 003a 0123     		movne	r3, #1
 3343 003c 0023     		moveq	r3, #0
 3344 003e DBB2     		uxtb	r3, r3
 3345 0040 15E0     		b	.L213
 3346              	.L214:
 3347              		.loc 1 1198 46 is_stmt 0 discriminator 5
 3348 0042 3B68     		ldr	r3, [r7]
 3349 0044 082B     		cmp	r3, #8
 3350 0046 09D1     		bne	.L216
 3351              		.loc 1 1198 7 is_stmt 1 discriminator 7
 3352 0048 7B68     		ldr	r3, [r7, #4]
 3353 004a 93F84430 		ldrb	r3, [r3, #68]
 3354 004e DBB2     		uxtb	r3, r3
 3355              		.loc 1 1198 46 discriminator 7
 3356 0050 012B     		cmp	r3, #1
 3357 0052 14BF     		ite	ne
 3358 0054 0123     		movne	r3, #1
 3359 0056 0023     		moveq	r3, #0
 3360 0058 DBB2     		uxtb	r3, r3
 3361 005a 08E0     		b	.L213
 3362              	.L216:
 3363              		.loc 1 1198 7 discriminator 8
 3364 005c 7B68     		ldr	r3, [r7, #4]
 3365 005e 93F84530 		ldrb	r3, [r3, #69]
 3366 0062 DBB2     		uxtb	r3, r3
 3367              		.loc 1 1198 46 discriminator 8
 3368 0064 012B     		cmp	r3, #1
 3369 0066 14BF     		ite	ne
 3370 0068 0123     		movne	r3, #1
 3371 006a 0023     		moveq	r3, #0
 3372 006c DBB2     		uxtb	r3, r3
 3373              	.L213:
 3374              		.loc 1 1198 6 discriminator 12
 3375 006e 002B     		cmp	r3, #0
 3376 0070 01D0     		beq	.L218
1199:Drivers/STM32F4xx_HAL_Driver/Src/stm32f4xx_hal_tim_ex.c ****   {
1200:Drivers/STM32F4xx_HAL_Driver/Src/stm32f4xx_hal_tim_ex.c ****     return HAL_ERROR;
 3377              		.loc 1 1200 12
 3378 0072 0123     		movs	r3, #1
 3379 0074 99E0     		b	.L219
 3380              	.L218:
1201:Drivers/STM32F4xx_HAL_Driver/Src/stm32f4xx_hal_tim_ex.c ****   }
1202:Drivers/STM32F4xx_HAL_Driver/Src/stm32f4xx_hal_tim_ex.c **** 
1203:Drivers/STM32F4xx_HAL_Driver/Src/stm32f4xx_hal_tim_ex.c ****   /* Set the TIM complementary channel state */
